 PhysXCommon_64

 Timestamp is 60ac14e6 (Mon May 24 17:04:38 2021)

 Preferred load address is 0000000180000000

 Start         Length     Name                   Class
 0001:00000000 000028c0H .text$di                CODE
 0001:000028c0 001175e0H .text$mn                CODE
 0001:00119ea0 00000036H .text$mn$00             CODE
 0001:00119ed6 00000092H .text$x                 CODE
 0002:00000000 00000188H .idata$5                DATA
 0002:00000188 00000028H .00cfg                  DATA
 0002:000001b0 00000008H .CRT$XCA                DATA
 0002:000001b8 00001428H .CRT$XCU                DATA
 0002:000015e0 00000008H .CRT$XCZ                DATA
 0002:000015e8 00000008H .CRT$XIA                DATA
 0002:000015f0 00000008H .CRT$XIZ                DATA
 0002:000015f8 00000008H .CRT$XPA                DATA
 0002:00001600 00000008H .CRT$XPZ                DATA
 0002:00001608 00000008H .CRT$XTA                DATA
 0002:00001610 00000010H .CRT$XTZ                DATA
 0002:00001618 00000000H .gehcont$y              DATA
 0002:00001618 00000000H .gfids$y                DATA
 0002:00001620 000040e0H .rdata                  DATA
 0002:00005700 00000000H .rdata$CastGuardVftablesA DATA
 0002:00005700 00000000H .rdata$CastGuardVftablesC DATA
 0002:00005700 00000074H .rdata$r                DATA
 0002:00005774 000003b4H .rdata$zzzdbg           DATA
 0002:00005b28 00000008H .rtc$IAA                DATA
 0002:00005b30 00000008H .rtc$IZZ                DATA
 0002:00005b38 00000008H .rtc$TAA                DATA
 0002:00005b40 00000008H .rtc$TZZ                DATA
 0002:00005b48 0000b690H .xdata                  DATA
 0002:000111d8 00000020H .didat$2                DATA
 0002:000111f8 00000020H .didat$3                DATA
 0002:00011218 00000088H .didat$4                DATA
 0002:000112a0 00000318H .didat$6                DATA
 0002:000115b8 00000088H .didat$7                DATA
 0002:00011640 0000a0dcH .edata                  DATA
 0002:0001b71c 00000078H .idata$2                DATA
 0002:0001b794 00000014H .idata$3                DATA
 0002:0001b7a8 00000188H .idata$4                DATA
 0002:0001b930 000003daH .idata$6                DATA
 0003:00000000 00000a70H .data                   DATA
 0003:00000a70 00000578H .data$r                 DATA
 0003:00000fe8 00000020H .data$rs                DATA
 0003:00001008 00000088H .didat$5                DATA
 0003:00001090 000029b0H .bss                    DATA
 0004:00000000 00005a54H .pdata                  DATA
 0005:00000000 00002208H _RDATA                  DATA
 0006:00000000 000000a0H .rsrc$01                DATA
 0006:000000a0 000004b0H .rsrc$02                DATA

  Address         Publics by Value              Rva+Base               Lib:Object

 0000:00000000       __guard_longjmp_table      0000000000000000     <absolute>
 0000:00000000       __x64_code_ranges_to_entry_points 0000000000000000     <absolute>
 0000:00000000       __guard_iat_count          0000000000000000     <absolute>
 0000:00000000       __AbsoluteZero             0000000000000000     <absolute>
 0000:00000000       __guard_fids_count         0000000000000000     <absolute>
 0000:00000000       __guard_fids_table         0000000000000000     <absolute>
 0000:00000000       __guard_longjmp_count      0000000000000000     <absolute>
 0000:00000000       __arm64x_extra_rfe_table   0000000000000000     <absolute>
 0000:00000000       __hybrid_code_map          0000000000000000     <absolute>
 0000:00000000       __volatile_metadata        0000000000000000     <absolute>
 0000:00000000       __arm64x_extra_rfe_table_size 0000000000000000     <absolute>
 0000:00000000       ___safe_se_handler_count   0000000000000000     <absolute>
 0000:00000000       __guard_check_icall_a64n_fptr 0000000000000000     <absolute>
 0000:00000000       ___safe_se_handler_table   0000000000000000     <absolute>
 0000:00000000       __arm64x_redirection_metadata_count 0000000000000000     <absolute>
 0000:00000000       __arm64x_redirection_metadata 0000000000000000     <absolute>
 0000:00000000       __enclave_config           0000000000000000     <absolute>
 0000:00000000       __x64_code_ranges_to_entry_points_count 0000000000000000     <absolute>
 0000:00000000       __dynamic_value_reloc_table 0000000000000000     <absolute>
 0000:00000000       __hybrid_auxiliary_iat_copy 0000000000000000     <absolute>
 0000:00000000       __guard_eh_cont_table      0000000000000000     <absolute>
 0000:00000000       __guard_eh_cont_count      0000000000000000     <absolute>
 0000:00000000       __arm64x_native_entrypoint 0000000000000000     <absolute>
 0000:00000000       __hybrid_auxiliary_iat     0000000000000000     <absolute>
 0000:00000000       __guard_iat_table          0000000000000000     <absolute>
 0000:00000000       __hybrid_code_map_count    0000000000000000     <absolute>
 0000:00000100       __guard_flags              0000000000000100     <absolute>
 0000:00000000       __ImageBase                0000000180000000     <linker-defined>
 0001:000028c0       ??_ECollection@Cm@physx@@UEAAPEAXI@Z 00000001800038c0 f i CmCollection.obj
 0001:000028c0       ??_GCollection@Cm@physx@@UEAAPEAXI@Z 00000001800038c0 f i CmCollection.obj
 0001:00002970       ??_GPxCollection@physx@@MEAAPEAXI@Z 0000000180003970 f i CmCollection.obj
 0001:00002970       ??_EPxCollection@physx@@MEAAPEAXI@Z 0000000180003970 f i CmCollection.obj
 0001:000029a0       ?PxCreateCollection@@YAPEAVPxCollection@physx@@XZ 00000001800039a0 f   CmCollection.obj
 0001:00002aa0       ?add@Collection@Cm@physx@@UEAAXAEAVPxBase@3@_K@Z 0000000180003aa0 f   CmCollection.obj
 0001:00002b90       ?add@Collection@Cm@physx@@UEAAXAEAVPxCollection@3@@Z 0000000180003b90 f   CmCollection.obj
 0001:00002d30       ?addId@Collection@Cm@physx@@UEAAXAEAVPxBase@3@_K@Z 0000000180003d30 f   CmCollection.obj
 0001:00002e60       ?contains@Collection@Cm@physx@@UEBA_NAEAVPxBase@3@@Z 0000000180003e60 f   CmCollection.obj
 0001:00002f10       ?create@?$HashBase@V?$Pair@$$CB_KPEAVPxBase@physx@@@shdfnd@physx@@_KU?$Hash@_K@23@UGetKey@?$HashMapBase@_KPEAVPxBase@physx@@U?$Hash@_K@shdfnd@2@VNonTrackingAllocator@42@@internal@23@VNonTrackingAllocator@23@$00@internal@shdfnd@physx@@QEAAPEAV?$Pair@$$CB_KPEAVPxBase@physx@@@34@AEB_KAEA_N@Z 0000000180003f10 f i CmCollection.obj
 0001:00002f10       ?create@?$HashBase@V?$Pair@QEAVPxBase@physx@@_K@shdfnd@physx@@PEAVPxBase@3@U?$Hash@PEAVPxBase@physx@@@23@UGetKey@?$HashMapBase@PEAVPxBase@physx@@_KU?$Hash@PEAVPxBase@physx@@@shdfnd@2@VNonTrackingAllocator@42@@internal@23@VNonTrackingAllocator@23@$00@internal@shdfnd@physx@@QEAAPEAV?$Pair@QEAVPxBase@physx@@_K@34@AEBQEAVPxBase@4@AEA_N@Z 0000000180003f10 f i CmCollection.obj
 0001:000030b0       ?erase@?$HashBase@V?$Pair@QEAVPxBase@physx@@_K@shdfnd@physx@@PEAVPxBase@3@U?$Hash@PEAVPxBase@physx@@@23@UGetKey@?$HashMapBase@PEAVPxBase@physx@@_KU?$Hash@PEAVPxBase@physx@@@shdfnd@2@VNonTrackingAllocator@42@@internal@23@VNonTrackingAllocator@23@$00@internal@shdfnd@physx@@QEAA_NAEBQEAVPxBase@4@@Z 00000001800040b0 f i CmCollection.obj
 0001:000030b0       ?erase@?$HashBase@V?$Pair@$$CB_KPEAVPxBase@physx@@@shdfnd@physx@@_KU?$Hash@_K@23@UGetKey@?$HashMapBase@_KPEAVPxBase@physx@@U?$Hash@_K@shdfnd@2@VNonTrackingAllocator@42@@internal@23@VNonTrackingAllocator@23@$00@internal@shdfnd@physx@@QEAA_NAEB_K@Z 00000001800040b0 f i CmCollection.obj
 0001:00003250       ?find@?$HashMapBase@_KPEAVPxBase@physx@@U?$Hash@_K@shdfnd@2@VNonTrackingAllocator@42@@internal@shdfnd@physx@@QEBAPEBV?$Pair@$$CB_KPEAVPxBase@physx@@@34@AEB_K@Z 0000000180004250 f i CmCollection.obj
 0001:000032f0       ?find@Collection@Cm@physx@@UEBAPEAVPxBase@3@_K@Z 00000001800042f0 f   CmCollection.obj
 0001:00003320       ?getId@Collection@Cm@physx@@UEBA_KAEBVPxBase@3@@Z 0000000180004320 f   CmCollection.obj
 0001:000033d0       ?getIds@Collection@Cm@physx@@UEBAIPEA_KII@Z 00000001800043d0 f   CmCollection.obj
 0001:00003490       ?getNbColumns@HeightField@Gu@physx@@UEBAIXZ 0000000180004490 f   GuBounds.obj
 0001:00003490       ?getNbIds@Collection@Cm@physx@@UEBAIXZ 0000000180004490 f   CmCollection.obj
 0001:000034a0       ?getNbObjects@Collection@Cm@physx@@UEBAIXZ 00000001800044a0 f   CmCollection.obj
 0001:000034b0       ?getObject@Collection@Cm@physx@@UEBAAEAVPxBase@3@I@Z 00000001800044b0 f   CmCollection.obj
 0001:000034c0       ?getObjects@Collection@Cm@physx@@UEBAIPEAPEAVPxBase@3@II@Z 00000001800044c0 f   CmCollection.obj
 0001:00003510       ?release@Collection@Cm@physx@@UEAAXXZ 0000000180004510 f i CmCollection.obj
 0001:00003530       ?remove@Collection@Cm@physx@@UEAAXAEAVPxBase@3@@Z 0000000180004530 f   CmCollection.obj
 0001:00003620       ?remove@Collection@Cm@physx@@UEAAXAEAVPxCollection@3@@Z 0000000180004620 f   CmCollection.obj
 0001:00003730       ?removeId@Collection@Cm@physx@@UEAAX_K@Z 0000000180004730 f   CmCollection.obj
 0001:000037b0       ?reserveInternal@?$HashBase@V?$Pair@$$CB_KPEAVPxBase@physx@@@shdfnd@physx@@_KU?$Hash@_K@23@UGetKey@?$HashMapBase@_KPEAVPxBase@physx@@U?$Hash@_K@shdfnd@2@VNonTrackingAllocator@42@@internal@23@VNonTrackingAllocator@23@$00@internal@shdfnd@physx@@AEAAXI@Z 00000001800047b0 f i CmCollection.obj
 0001:000037b0       ?reserveInternal@?$HashBase@V?$Pair@QEAVPxBase@physx@@_K@shdfnd@physx@@PEAVPxBase@3@U?$Hash@PEAVPxBase@physx@@@23@UGetKey@?$HashMapBase@PEAVPxBase@physx@@_KU?$Hash@PEAVPxBase@physx@@@shdfnd@2@VNonTrackingAllocator@42@@internal@23@VNonTrackingAllocator@23@$00@internal@shdfnd@physx@@AEAAXI@Z 00000001800047b0 f i CmCollection.obj
 0001:000039a0       ??0PtrTable@Cm@physx@@QEAA@W4PxEMPTY@2@@Z 00000001800049a0 f i CmPtrTable.obj
 0001:000039c0       ??0PtrTable@Cm@physx@@QEAA@XZ 00000001800049c0 f   CmPtrTable.obj
 0001:000039d0       _guard_check_icall_nop     00000001800049d0 f   MSVCRT:guard_support.obj
 0001:000039d0       ?requiresObjects@TriangleMesh@Gu@physx@@UEAAXAEAVPxProcessPxBaseCallback@3@@Z 00000001800049d0 f   GuTriangleMesh.obj
 0001:000039d0       ??1AABBTreeBuildNode@Gu@physx@@QEAA@XZ 00000001800049d0 f   GuAABBTreeBuild.obj
 0001:000039d0       ??1MaterialIndicesStruct@physx@@QEAA@XZ 00000001800049d0 f   GuGeometryUnion.obj
 0001:000039d0       ??1Box@Gu@physx@@QEAA@XZ   00000001800049d0 f   GuBounds.obj
 0001:000039d0       ?profile@Callback@RTree@Gu@physx@@UEAAXXZ 00000001800049d0 f   GuMidphaseRTree.obj
 0001:000039d0       ??1PtrTable@Cm@physx@@QEAA@XZ 00000001800049d0 f   CmPtrTable.obj
 0001:000039d0       ??1HeightFieldData@Gu@physx@@QEAA@XZ 00000001800049d0 f   GuBounds.obj
 0001:000039d0       ?requiresObjects@HeightField@Gu@physx@@UEAAXAEAVPxProcessPxBaseCallback@3@@Z 00000001800049d0 f   GuHeightField.obj
 0001:000039d0       ?requiresObjects@ConvexMesh@Gu@physx@@UEAAXAEAVPxProcessPxBaseCallback@3@@Z 00000001800049d0 f   GuConvexMesh.obj
 0001:000039e0       ??4PtrTable@Cm@physx@@QEAAAEAU012@AEBU012@@Z 00000001800049e0 f i CmPtrTable.obj
 0001:000039e0       ??4MaterialIndicesStruct@physx@@QEAAAEAU01@AEBU01@@Z 00000001800049e0 f i GuGeometryUnion.obj
 0001:000039e0       ??4CmModuleUpdateLoader@Cm@physx@@QEAAAEAV012@AEBV012@@Z 00000001800049e0 f i CmWindowsModuleUpdateLoader.obj
 0001:000039f0       ?add@PtrTable@Cm@physx@@QEAAXPEAXAEAVPtrTableStorageManager@23@@Z 00000001800049f0 f   CmPtrTable.obj
 0001:00003ab0       ?clear@PtrTable@Cm@physx@@QEAAXAEAVPtrTableStorageManager@23@@Z 0000000180004ab0 f   CmPtrTable.obj
 0001:00003b30       ?exportExtraData@PtrTable@Cm@physx@@QEAAXAEAVPxSerializationContext@3@@Z 0000000180004b30 f   CmPtrTable.obj
 0001:00003b80       ?find@PtrTable@Cm@physx@@QEBAIPEBX@Z 0000000180004b80 f   CmPtrTable.obj
 0001:00003bb0       ?getBinaryMetaData@PtrTable@Cm@physx@@SAXAEAVPxOutputStream@3@@Z 0000000180004bb0 f   CmPtrTable.obj
 0001:00003d60       ?getCount@PtrTable@Cm@physx@@QEBAIXZ 0000000180004d60 f i CmPtrTable.obj
 0001:00003d70       ?getPtrs@PtrTable@Cm@physx@@QEBAPEBQEAXXZ 0000000180004d70 f i CmPtrTable.obj
 0001:00003d70       ?getPtrs@PtrTable@Cm@physx@@QEAAPEAPEAXXZ 0000000180004d70 f i CmPtrTable.obj
 0001:00003d80       ?importExtraData@PtrTable@Cm@physx@@QEAAXAEAVPxDeserializationContext@3@@Z 0000000180004d80 f   CmPtrTable.obj
 0001:00003db0       ?realloc@PtrTable@Cm@physx@@AEAAXIIAEAVPtrTableStorageManager@23@@Z 0000000180004db0 f   CmPtrTable.obj
 0001:00003e40       ?replaceWithLast@PtrTable@Cm@physx@@QEAAXIAEAVPtrTableStorageManager@23@@Z 0000000180004e40 f   CmPtrTable.obj
 0001:00003f40       ??0RadixSort@Cm@physx@@QEAA@XZ 0000000180004f40 f   CmRadixSort.obj
 0001:00003f70       ??1RadixSort@Cm@physx@@UEAA@XZ 0000000180004f70 f   CmRadixSort.obj
 0001:00003f80       ??_ERadixSort@Cm@physx@@UEAAPEAXI@Z 0000000180004f80 f i CmRadixSort.obj
 0001:00004010       ?GetNbHits@RadixSort@Cm@physx@@QEBAIXZ 0000000180005010 f i CmRadixSort.obj
 0001:00004020       ?GetNbTotalCalls@RadixSort@Cm@physx@@QEBAIXZ 0000000180005020 f i CmRadixSort.obj
 0001:00004030       ?GetRanks@RadixSort@Cm@physx@@QEBAPEBIXZ 0000000180005030 f i CmRadixSort.obj
 0001:00004030       ?getHeightField@HeightFieldUtil@Gu@physx@@QEBAAEBVHeightField@23@XZ 0000000180005030 f i GuCCTSweepTests.obj
 0001:00004040       ?GetRecyclable@RadixSort@Cm@physx@@QEBAPEAIXZ 0000000180005040 f i CmRadixSort.obj
 0001:00004040       ?getHeightFieldGeometry@HeightFieldUtil@Gu@physx@@QEBAAEBVPxHeightFieldGeometry@3@XZ 0000000180005040 f i GuCCTSweepTests.obj
 0001:00004040       ?getPos@AABBTreeBuildNode@Gu@physx@@QEBAPEBV123@XZ 0000000180005040 f i GuAABBTreeBuild.obj
 0001:00004040       ?GetValencies@BigConvexData@physx@@QEBAPEBUValency@Gu@2@XZ 0000000180005040 f i GuMetaData.obj
 0001:00004050       ?SetBuffers@RadixSort@Cm@physx@@QEAA_NPEAI00PEAPEAI@Z 0000000180005050 f   CmRadixSort.obj
 0001:00004090       ?Sort@RadixSort@Cm@physx@@QEAAAEAV123@PEBIIW4RadixHint@23@@Z 0000000180005090 f   CmRadixSort.obj
 0001:000046e0       ?Sort@RadixSort@Cm@physx@@QEAAAEAV123@PEBMI@Z 00000001800056e0 f   CmRadixSort.obj
 0001:00004e40       ?invalidateRanks@RadixSort@Cm@physx@@QEAAXXZ 0000000180005e40 f i CmRadixSort.obj
 0001:00004e50       ??0RadixSortBuffered@Cm@physx@@QEAA@XZ 0000000180005e50 f   CmRadixSortBuffered.obj
 0001:00004e80       ??1RadixSortBuffered@Cm@physx@@UEAA@XZ 0000000180005e80 f   CmRadixSortBuffered.obj
 0001:00004eb0       ??_ERadixSortBuffered@Cm@physx@@UEAAPEAXI@Z 0000000180005eb0 f i CmRadixSortBuffered.obj
 0001:00004fe0       ?CheckResize@RadixSortBuffered@Cm@physx@@AEAAXI@Z 0000000180005fe0 f i CmRadixSortBuffered.obj
 0001:00005020       ?Resize@RadixSortBuffered@Cm@physx@@AEAA_NI@Z 0000000180006020 f   CmRadixSortBuffered.obj
 0001:00005110       ?Sort@RadixSortBuffered@Cm@physx@@QEAAAEAV123@PEBIIW4RadixHint@23@@Z 0000000180006110 f   CmRadixSortBuffered.obj
 0001:000051b0       ?Sort@RadixSortBuffered@Cm@physx@@QEAAAEAV123@PEBMI@Z 00000001800061b0 f   CmRadixSortBuffered.obj
 0001:00005240       ?reset@RadixSortBuffered@Cm@physx@@QEAAXXZ 0000000180006240 f   CmRadixSortBuffered.obj
 0001:000052c0       ??0DebugText@Cm@physx@@QEAA@$$QEAU012@@Z 00000001800062c0 f i CmRenderOutput.obj
 0001:000052c0       ??0DebugText@Cm@physx@@QEAA@AEBU012@@Z 00000001800062c0 f i CmRenderOutput.obj
 0001:000053a0       ??0DebugText@Cm@physx@@QEAA@AEBVPxVec3@2@MPEBDZZ 00000001800063a0 f   CmRenderOutput.obj
 0001:00005400       ??0RenderOutput@Cm@physx@@QEAA@AEAVRenderBuffer@12@@Z 0000000180006400 f i CmRenderOutput.obj
 0001:00005450       ??0RenderOutput@Cm@physx@@QEAA@AEBV012@@Z 0000000180006450 f i CmRenderOutput.obj
 0001:000054f0       ??4DebugText@Cm@physx@@QEAAAEAU012@AEBU012@@Z 00000001800064f0 f i CmRenderOutput.obj
 0001:000054f0       ??4DebugText@Cm@physx@@QEAAAEAU012@$$QEAU012@@Z 00000001800064f0 f i CmRenderOutput.obj
 0001:00005620       ??6Cm@physx@@YAAEAVRenderOutput@01@AEAV201@AEBUDebugArc@01@@Z 0000000180006620 f   CmRenderOutput.obj
 0001:00005720       ??6Cm@physx@@YAAEAVRenderOutput@01@AEAV201@AEBUDebugArrow@01@@Z 0000000180006720 f   CmRenderOutput.obj
 0001:00005b10       ??6Cm@physx@@YAAEAVRenderOutput@01@AEAV201@AEBUDebugBasis@01@@Z 0000000180006b10 f   CmRenderOutput.obj
 0001:00005c10       ??6Cm@physx@@YAAEAVRenderOutput@01@AEAV201@AEBUDebugBox@01@@Z 0000000180006c10 f   CmRenderOutput.obj
 0001:00006110       ??6Cm@physx@@YAAEAVRenderOutput@01@AEAV201@AEBUDebugCircle@01@@Z 0000000180007110 f   CmRenderOutput.obj
 0001:000061f0       ??6RenderOutput@Cm@physx@@QEAAAEAV012@AEBUDebugText@12@@Z 00000001800071f0 f   CmRenderOutput.obj
 0001:00006400       ??6RenderOutput@Cm@physx@@QEAAAEAV012@AEBVPxMat44@2@@Z 0000000180007400 f   CmRenderOutput.obj
 0001:00006470       ??6RenderOutput@Cm@physx@@QEAAAEAV012@AEBVPxTransform@2@@Z 0000000180007470 f   CmRenderOutput.obj
 0001:000065f0       ??6RenderOutput@Cm@physx@@QEAAAEAV012@I@Z 00000001800075f0 f   CmRenderOutput.obj
 0001:00006600       ??6RenderOutput@Cm@physx@@QEAAAEAV012@VPxVec3@2@@Z 0000000180007600 f   CmRenderOutput.obj
 0001:00006b50       ??6RenderOutput@Cm@physx@@QEAAAEAV012@W4Primitive@012@@Z 0000000180007b50 f   CmRenderOutput.obj
 0001:00006b60       ?allocate@?$Array@DV?$ReflectionAllocator@D@shdfnd@physx@@@shdfnd@physx@@IEAAPEADI@Z 0000000180007b60 f i CmRenderOutput.obj
 0001:00006bf0       ?allocate@?$Array@UPxDebugLine@physx@@V?$ReflectionAllocator@UPxDebugLine@physx@@@shdfnd@2@@shdfnd@physx@@IEAAPEAUPxDebugLine@3@I@Z 0000000180007bf0 f i CmRenderOutput.obj
 0001:00006c90       ?allocate@?$Array@UPxDebugPoint@physx@@V?$ReflectionAllocator@UPxDebugPoint@physx@@@shdfnd@2@@shdfnd@physx@@IEAAPEAUPxDebugPoint@3@I@Z 0000000180007c90 f i CmRenderOutput.obj
 0001:00006d30       ?allocate@?$Array@UPxDebugText@physx@@V?$ReflectionAllocator@UPxDebugText@physx@@@shdfnd@2@@shdfnd@physx@@IEAAPEAUPxDebugText@3@I@Z 0000000180007d30 f i CmRenderOutput.obj
 0001:00006dd0       ?allocate@?$Array@UPxDebugTriangle@physx@@V?$ReflectionAllocator@UPxDebugTriangle@physx@@@shdfnd@2@@shdfnd@physx@@IEAAPEAUPxDebugTriangle@3@I@Z 0000000180007dd0 f i CmRenderOutput.obj
 0001:00006e70       ?copy@?$Array@UPxDebugLine@physx@@V?$ReflectionAllocator@UPxDebugLine@physx@@@shdfnd@2@@shdfnd@physx@@KAXPEAUPxDebugLine@3@0PEBU43@@Z 0000000180007e70 f i CmRenderOutput.obj
 0001:00007020       ?copy@?$Array@UPxDebugPoint@physx@@V?$ReflectionAllocator@UPxDebugPoint@physx@@@shdfnd@2@@shdfnd@physx@@KAXPEAUPxDebugPoint@3@0PEBU43@@Z 0000000180008020 f i CmRenderOutput.obj
 0001:00007120       ?copy@?$Array@UPxDebugText@physx@@V?$ReflectionAllocator@UPxDebugText@physx@@@shdfnd@2@@shdfnd@physx@@KAXPEAUPxDebugText@3@0PEBU43@@Z 0000000180008120 f i CmRenderOutput.obj
 0001:00007290       ?copy@?$Array@UPxDebugTriangle@physx@@V?$ReflectionAllocator@UPxDebugTriangle@physx@@@shdfnd@2@@shdfnd@physx@@KAXPEAUPxDebugTriangle@3@0PEBU43@@Z 0000000180008290 f i CmRenderOutput.obj
 0001:00007490       ?growAndPushBack@?$Array@DV?$ReflectionAllocator@D@shdfnd@physx@@@shdfnd@physx@@IEAAAEADAEBD@Z 0000000180008490 f i CmRenderOutput.obj
 0001:00007550       ?growAndPushBack@?$Array@UPxDebugLine@physx@@V?$ReflectionAllocator@UPxDebugLine@physx@@@shdfnd@2@@shdfnd@physx@@IEAAAEAUPxDebugLine@3@AEBU43@@Z 0000000180008550 f i CmRenderOutput.obj
 0001:00007630       ?growAndPushBack@?$Array@UPxDebugPoint@physx@@V?$ReflectionAllocator@UPxDebugPoint@physx@@@shdfnd@2@@shdfnd@physx@@IEAAAEAUPxDebugPoint@3@AEBU43@@Z 0000000180008630 f i CmRenderOutput.obj
 0001:000076f0       ?growAndPushBack@?$Array@UPxDebugText@physx@@V?$ReflectionAllocator@UPxDebugText@physx@@@shdfnd@2@@shdfnd@physx@@IEAAAEAUPxDebugText@3@AEBU43@@Z 00000001800086f0 f i CmRenderOutput.obj
 0001:000077c0       ?growAndPushBack@?$Array@UPxDebugTriangle@physx@@V?$ReflectionAllocator@UPxDebugTriangle@physx@@@shdfnd@2@@shdfnd@physx@@IEAAAEAUPxDebugTriangle@3@AEBU43@@Z 00000001800087c0 f i CmRenderOutput.obj
 0001:000078c0       ?outputCapsule@RenderOutput@Cm@physx@@QEAAAEAV123@MMAEBVPxMat44@3@@Z 00000001800088c0 f   CmRenderOutput.obj
 0001:000083a0       ?outputSegment@RenderOutput@Cm@physx@@QEAAXAEBVPxVec3@3@0@Z 00000001800093a0 f i CmRenderOutput.obj
 0001:00008460       ?recreate@?$Array@DV?$ReflectionAllocator@D@shdfnd@physx@@@shdfnd@physx@@IEAAXI@Z 0000000180009460 f i CmRenderOutput.obj
 0001:00008500       ?recreate@?$Array@UPxDebugLine@physx@@V?$ReflectionAllocator@UPxDebugLine@physx@@@shdfnd@2@@shdfnd@physx@@IEAAXI@Z 0000000180009500 f i CmRenderOutput.obj
 0001:00008590       ?reserveSegments@RenderOutput@Cm@physx@@QEAAPEAUPxDebugLine@3@I@Z 0000000180009590 f i CmRenderOutput.obj
 0001:00008600       ??DPxQuat@physx@@QEBA?AV01@AEBV01@@Z 0000000180009600 f i CmVisualization.obj
 0001:00008740       ?visualizeAngularLimit@Cm@physx@@YAXAEAVRenderOutput@12@MAEBVPxTransform@2@MM_N@Z 0000000180009740 f   CmVisualization.obj
 0001:00008900       ?visualizeDoubleCone@Cm@physx@@YAXAEAVRenderOutput@12@MAEBVPxTransform@2@M_N@Z 0000000180009900 f   CmVisualization.obj
 0001:00008b60       ?visualizeJointFrames@Cm@physx@@YAXAEAVRenderOutput@12@MAEBVPxTransform@2@1@Z 0000000180009b60 f   CmVisualization.obj
 0001:00008c20       ?visualizeLimitCone@Cm@physx@@YAXAEAVRenderOutput@12@MAEBVPxTransform@2@MM_N@Z 0000000180009c20 f   CmVisualization.obj
 0001:00008eb0       ?visualizeLinearLimit@Cm@physx@@YAXAEAVRenderOutput@12@MAEBVPxTransform@2@1M_N@Z 0000000180009eb0 f   CmVisualization.obj
 0001:00009130       ??0CmModuleUpdateLoader@Cm@physx@@QEAA@PEBD@Z 000000018000a130 f   CmWindowsModuleUpdateLoader.obj
 0001:00009170       ??1CmModuleUpdateLoader@Cm@physx@@QEAA@XZ 000000018000a170 f   CmWindowsModuleUpdateLoader.obj
 0001:000091a0       ?LoadModule@CmModuleUpdateLoader@Cm@physx@@QEAAPEAUHINSTANCE__@@PEBD0@Z 000000018000a1a0 f   CmWindowsModuleUpdateLoader.obj
 0001:000091c0       ?commonDelayHook@@YAP6A_JXZIPEAUDelayLoadInfo@@@Z 000000018000a1c0 f   CmWindowsDelayLoadHook.obj
 0001:000092a0       PxSetPhysXCommonDelayLoadHook 000000018000a2a0 f   CmWindowsDelayLoadHook.obj
 0001:000092b0       ??4Box@Gu@physx@@QEAAAEBV012@AEBV012@@Z 000000018000a2b0 f i GuBounds.obj
 0001:000092b0       ??0Box@Gu@physx@@QEAA@AEBV012@@Z 000000018000a2b0 f i GuBounds.obj
 0001:00009310       ??0Box@Gu@physx@@QEAA@AEBVPxVec3@2@0AEBVPxMat33@2@@Z 000000018000a310 f i GuBounds.obj
 0001:00009380       ??0Box@Gu@physx@@QEAA@XZ   000000018000a380 f i GuBounds.obj
 0001:00009380       ?getGeometry@GeometryUnion@Gu@physx@@QEBAAEBVPxGeometry@3@XZ 000000018000a380 f i GuGeometryUnion.obj
 0001:00009380       ??0AABBTreeBuildNode@Gu@physx@@QEAA@XZ 000000018000a380 f i GuAABBTreeBuild.obj
 0001:00009380       ??0BigConvexData@physx@@QEAA@W4PxEMPTY@1@@Z 000000018000a380 f i GuMetaData.obj
 0001:00009380       ??0HeightFieldData@Gu@physx@@QEAA@W4PxEMPTY@2@@Z 000000018000a380 f i GuBounds.obj
 0001:00009380       ??0GeometryUnion@Gu@physx@@QEAA@W4PxEMPTY@2@@Z 000000018000a380 f i GuGeometryUnion.obj
 0001:00009380       ?getAABB@AABBTreeBuildNode@Gu@physx@@QEBAAEBVPxBounds3@3@XZ 000000018000a380 f i GuAABBTreeBuild.obj
 0001:00009380       ?getPaddedBounds@HeightFieldData@Gu@physx@@QEBAAEBVCenterExtentsPadded@23@XZ 000000018000a380 f i GuBounds.obj
 0001:00009380       ??0MaterialIndicesStruct@physx@@QEAA@W4PxEMPTY@1@@Z 000000018000a380 f i GuGeometryUnion.obj
 0001:00009390       ??0HeightFieldData@Gu@physx@@QEAA@$$QEAU012@@Z 000000018000a390 f i GuBounds.obj
 0001:00009390       ??4HeightFieldData@Gu@physx@@QEAAAEAU012@$$QEAU012@@Z 000000018000a390 f i GuBounds.obj
 0001:00009390       ??4HeightFieldData@Gu@physx@@QEAAAEAU012@AEBU012@@Z 000000018000a390 f i GuBounds.obj
 0001:00009390       ??0HeightFieldData@Gu@physx@@QEAA@AEBU012@@Z 000000018000a390 f i GuBounds.obj
 0001:000093f0       ??0HeightFieldData@Gu@physx@@QEAA@XZ 000000018000a3f0 f i GuBounds.obj
 0001:00009400       ??0PxQuat@physx@@QEAA@AEBVPxMat33@1@@Z 000000018000a400 f i GuBounds.obj
 0001:000095e0       ??0ShapeData@Gu@physx@@QEAA@AEBVPxGeometry@2@AEBVPxTransform@2@M@Z 000000018000a5e0 f   GuBounds.obj
 0001:00009b40       ??1PxConvexMesh@physx@@MEAA@XZ 000000018000ab40 f i GuBounds.obj
 0001:00009b40       ??1PxHeightField@physx@@MEAA@XZ 000000018000ab40 f i GuBounds.obj
 0001:00009b50       ??_EPxTriangleMesh@physx@@MEAAPEAXI@Z 000000018000ab50 f i GuTriangleMesh.obj
 0001:00009b50       ??_GPxBVHStructure@physx@@MEAAPEAXI@Z 000000018000ab50 f i GuBVHStructure.obj
 0001:00009b50       ??_GPxTriangleMesh@physx@@MEAAPEAXI@Z 000000018000ab50 f i GuTriangleMesh.obj
 0001:00009b50       ??_GPxBase@physx@@MEAAPEAXI@Z 000000018000ab50 f i GuBounds.obj
 0001:00009b50       ??_EPxBVHStructure@physx@@MEAAPEAXI@Z 000000018000ab50 f i GuBVHStructure.obj
 0001:00009b50       ??_EPxBase@physx@@MEAAPEAXI@Z 000000018000ab50 f i GuBounds.obj
 0001:00009b80       ??_H@YAXPEAX_K1P6APEAX0@Z@Z 000000018000ab80 f i GuBounds.obj
 0001:00009bd0       ?computeAABBExtent@Box@Gu@physx@@QEBA?AVPxVec3@3@XZ 000000018000abd0 f i GuBounds.obj
 0001:00009c90       ?computeBounds@Gu@physx@@YAXAEAVPxBounds3@2@AEBVPxGeometry@2@AEBVPxTransform@2@MPEIBVCenterExtentsPadded@12@M@Z 000000018000ac90 f   GuBounds.obj
 0001:0000a570       ?computeBoundsWithCCDThreshold@Gu@physx@@YAMAEAVVec3p@12@0AEBVPxGeometry@2@AEBVPxTransform@2@PEIBVCenterExtentsPadded@12@@Z 000000018000b570 f   GuBounds.obj
 0001:0000a740       ?computeBoxPoints@Box@Gu@physx@@QEBAXPEIAVPxVec3@3@@Z 000000018000b740 f i GuBounds.obj
 0001:0000b6f0       ?getConcreteTypeName@PxConvexMesh@physx@@UEBAPEBDXZ 000000018000c6f0 f i GuBounds.obj
 0001:0000b700       ?getConcreteTypeName@PxHeightField@physx@@UEBAPEBDXZ 000000018000c700 f i GuBounds.obj
 0001:0000b710       ?getConvexEdgeThreshold@HeightField@Gu@physx@@UEBAMXZ 000000018000c710 f i GuBounds.obj
 0001:0000b720       ?getFlags@HeightField@Gu@physx@@UEBA?AV?$PxFlags@W4Enum@PxHeightFieldFlag@physx@@G@3@XZ 000000018000c720 f i GuBounds.obj
 0001:0000b730       ?getFormat@HeightField@Gu@physx@@UEBA?AW4Enum@PxHeightFieldFormat@3@XZ 000000018000c730 f i GuBounds.obj
 0001:0000b740       ?getHeight@HeightField@Gu@physx@@UEBAMMM@Z 000000018000c740 f i GuBounds.obj
 0001:0000b780       ?getHeightInternal2@HeightField@Gu@physx@@QEBAMIMM@Z 000000018000c780 f i GuBounds.obj
 0001:0000b8f0       ?getIndexBuffer@ConvexMesh@Gu@physx@@UEBAPEBEXZ 000000018000c8f0 f i GuBounds.obj
 0001:0000b930       ?getNbPolygons@ConvexMesh@Gu@physx@@UEBAIXZ 000000018000c930 f i GuBounds.obj
 0001:0000b940       ?getNbRows@HeightField@Gu@physx@@UEBAIXZ 000000018000c940 f i GuBounds.obj
 0001:0000b950       ?getNbVertices@ConvexMesh@Gu@physx@@UEBAIXZ 000000018000c950 f i GuBounds.obj
 0001:0000b960       ?getSample@HeightField@Gu@physx@@UEBAAEBUPxHeightFieldSample@3@II@Z 000000018000c960 f i GuBounds.obj
 0001:0000b970       ?getSampleStride@HeightField@Gu@physx@@UEBAIXZ 000000018000c970 f i GuBounds.obj
 0001:0000b980       ?getTimestamp@HeightField@Gu@physx@@UEBAIXZ 000000018000c980 f i GuBounds.obj
 0001:0000b990       ?getTransform@Box@Gu@physx@@QEBA?AVPxTransform@3@XZ 000000018000c990 f i GuBounds.obj
 0001:0000b9f0       ?getTriangleMaterialIndex@HeightField@Gu@physx@@UEBAGI@Z 000000018000c9f0 f i GuBounds.obj
 0001:0000ba20       ?getTriangleNormal@HeightField@Gu@physx@@UEBA?AVPxVec3@3@I@Z 000000018000ca20 f i GuBounds.obj
 0001:0000bb20       ?getVertices@ConvexMesh@Gu@physx@@UEBAPEBVPxVec3@3@XZ 000000018000cb20 f i GuBounds.obj
 0001:0000bb40       ?isKindOf@PxBase@physx@@MEBA_NPEBD@Z 000000018000cb40 f i GuBounds.obj
 0001:0000bb70       ?isKindOf@PxConvexMesh@physx@@MEBA_NPEBD@Z 000000018000cb70 f i GuBounds.obj
 0001:0000bbc0       ?isKindOf@PxHeightField@physx@@MEBA_NPEBD@Z 000000018000cbc0 f i GuBounds.obj
 0001:0000bc10       ?isReleasable@PxBase@physx@@UEBA_NXZ 000000018000cc10 f i GuBounds.obj
 0001:0000bc20       ?isValid@Box@Gu@physx@@QEBA_NXZ 000000018000cc20 f i GuBounds.obj
 0001:0000bc40       ?preExportDataReset@HeightField@Gu@physx@@QEAAXXZ 000000018000cc40 f i GuBounds.obj
 0001:0000bc40       ?preExportDataReset@ConvexMesh@Gu@physx@@QEAAXXZ 000000018000cc40 f i GuBounds.obj
 0001:0000bc50       ?rotate@Box@Gu@physx@@QEBA?AVPxVec3@3@AEBV43@@Z 000000018000cc50 f i GuBounds.obj
 0001:0000bce0       ?rotateInv@Box@Gu@physx@@QEBA?AVPxVec3@3@AEBV43@@Z 000000018000cce0 f i GuBounds.obj
 0001:0000bd70       ?setAxes@Box@Gu@physx@@QEAAXAEBVPxVec3@3@00@Z 000000018000cd70 f i GuBounds.obj
 0001:0000bdb0       ?setEmpty@Box@Gu@physx@@QEAAXXZ 000000018000cdb0 f i GuBounds.obj
 0001:0000bdf0       ?transform@Box@Gu@physx@@QEBA?AVPxVec3@3@AEBV43@@Z 000000018000cdf0 f i GuBounds.obj
 0001:0000be90       ?computeOBBPoints@Gu@physx@@YAXPEIAVPxVec3@2@AEBV32@1111@Z 000000018000ce90 f   GuBox.obj
 0001:0000c110       ?create@Box@Gu@physx@@QEAAXAEBVCapsule@23@@Z 000000018000d110 f   GuBox.obj
 0001:0000c340       ?getBoxEdges@Gu@physx@@YAPEBEXZ 000000018000d340 f   GuBox.obj
 0001:0000c350       ?computeBasis@shdfnd@physx@@YAXAEBVPxVec3@2@0AEAV32@11@Z 000000018000d350 f i GuCapsule.obj
 0001:0000c4f0       ?computeBoxAroundCapsule@Gu@physx@@YAXAEBVCapsule@12@AEAVBox@12@@Z 000000018000d4f0 f   GuCapsule.obj
 0001:0000c640       ??0HeightFieldUtil@Gu@physx@@QEAA@AEBVPxHeightFieldGeometry@2@@Z 000000018000d640 f i GuCCTSweepTests.obj
 0001:0000c640       ??0HeightFieldTraceUtil@Gu@physx@@QEAA@AEBVPxHeightFieldGeometry@2@@Z 000000018000d640 f i GuCCTSweepTests.obj
 0001:0000c680       ??4HeightFieldTraceUtil@Gu@physx@@QEAAAEAV012@AEBV012@@Z 000000018000d680 f i GuCCTSweepTests.obj
 0001:0000c680       ??4HeightFieldTraceUtil@Gu@physx@@QEAAAEAV012@$$QEAV012@@Z 000000018000d680 f i GuCCTSweepTests.obj
 0001:0000c680       ??4HeightFieldUtil@Gu@physx@@QEAAAEAV012@AEBV012@@Z 000000018000d680 f i GuCCTSweepTests.obj
 0001:0000c6a0       ??4HeightFieldUtil@Gu@physx@@QEAAAEAV012@$$QEAV012@@Z 000000018000d6a0 f i GuCCTSweepTests.obj
 0001:0000c6d0       ??_E?$EntityReport@I@Gu@physx@@UEAAPEAXI@Z 000000018000d6d0 f i GuCCTSweepTests.obj
 0001:0000c6d0       ??_G?$EntityReport@I@Gu@physx@@UEAAPEAXI@Z 000000018000d6d0 f i GuCCTSweepTests.obj
 0001:0000c730       ?ceilUp@HeightFieldTraceUtil@Gu@physx@@SAMM@Z 000000018000d730 f i GuCCTSweepTests.obj
 0001:0000c770       ?computePointNormal@HeightFieldUtil@Gu@physx@@QEBA?AVPxVec3@3@IAEBV43@AEBVPxTransform@3@MMMMAEAM@Z 000000018000d770 f i GuCCTSweepTests.obj
 0001:0000cb90       ?floorDown@HeightFieldTraceUtil@Gu@physx@@SAMM@Z 000000018000db90 f i GuCCTSweepTests.obj
 0001:0000cbd0       ?getFeatureIndex@HeightFieldUtil@Gu@physx@@SAII@Z 000000018000dbd0 f i GuCCTSweepTests.obj
 0001:0000cbe0       ?getFeatureType@HeightFieldUtil@Gu@physx@@SA?AW4Feature@123@I@Z 000000018000dbe0 f i GuCCTSweepTests.obj
 0001:0000cbf0       ?getHeightAtShapePoint@HeightFieldUtil@Gu@physx@@QEBAMMM@Z 000000018000dbf0 f i GuCCTSweepTests.obj
 0001:0000cc50       ?getNormalAtShapePoint@HeightFieldUtil@Gu@physx@@QEBA?AVPxVec3@3@MM@Z 000000018000dc50 f i GuCCTSweepTests.obj
 0001:0000cd10       ?getNormal_2@HeightField@Gu@physx@@QEBA?AVPxVec3@3@IMMMMM@Z 000000018000dd10 f i GuCCTSweepTests.obj
 0001:0000ce30       ?getOneOverColumnScale@HeightFieldUtil@Gu@physx@@QEBAMXZ 000000018000de30 f i GuCCTSweepTests.obj
 0001:0000ce40       ?getOneOverHeightScale@HeightFieldUtil@Gu@physx@@QEBAMXZ 000000018000de40 f i GuCCTSweepTests.obj
 0001:0000ce50       ?getOneOverRowScale@HeightFieldUtil@Gu@physx@@QEBAMXZ 000000018000de50 f i GuCCTSweepTests.obj
 0001:0000ce60       ?getVertexNormal@HeightFieldUtil@Gu@physx@@QEBA?AVPxVec3@3@I@Z 000000018000de60 f i GuCCTSweepTests.obj
 0001:0000cea0       ?shape2hfp@HeightFieldUtil@Gu@physx@@QEBA?AVPxVec3@3@AEBV43@@Z 000000018000dea0 f i GuCCTSweepTests.obj
 0001:0000cea0       ?hf2shapen@HeightFieldUtil@Gu@physx@@QEBA?AVPxVec3@3@AEBV43@@Z 000000018000dea0 f i GuCCTSweepTests.obj
 0001:0000cee0       ?hf2shapep@HeightFieldUtil@Gu@physx@@QEBA?AVPxVec3@3@AEBV43@@Z 000000018000dee0 f i GuCCTSweepTests.obj
 0001:0000cf20       ?hf2worldn@HeightFieldUtil@Gu@physx@@QEBA?AVPxVec3@3@AEBVPxTransform@3@AEBV43@@Z 000000018000df20 f i GuCCTSweepTests.obj
 0001:0000d090       ?hf2worldp@HeightFieldUtil@Gu@physx@@QEBA?AVPxVec3@3@AEBVPxTransform@3@AEBV43@@Z 000000018000e090 f i GuCCTSweepTests.obj
 0001:0000d210       ?isCollisionVertex@HeightFieldUtil@Gu@physx@@QEBA_NIII@Z 000000018000e210 f i GuCCTSweepTests.obj
 0001:0000d230       ?isQueryVertex@HeightFieldUtil@Gu@physx@@QEBA_NIII@Z 000000018000e230 f i GuCCTSweepTests.obj
 0001:0000d2f0       ?isShapePointOnHeightField@HeightFieldUtil@Gu@physx@@QEBA_NMM@Z 000000018000e2f0 f i GuCCTSweepTests.obj
 0001:0000d340       ?makeFeatureCode@HeightFieldUtil@Gu@physx@@SAIIW4Feature@123@@Z 000000018000e340 f i GuCCTSweepTests.obj
 0001:0000d500       ?sweepBoxTriangles_Precise@Gu@physx@@YA_NIPEBVPxTriangle@2@_NAEBVPxBoxGeometry@2@AEBVPxTransform@2@AEBVPxVec3@2@MAEAUPxSweepHit@2@PEBIMV?$PxFlags@W4Enum@PxHitFlag@physx@@G@2@@Z 000000018000e500 f   GuCCTSweepTests.obj
 0001:0000e280       ?sweepBox_BoxGeom_Precise@@YA_NAEBVPxGeometry@physx@@AEBVPxTransform@2@AEBVPxBoxGeometry@2@1AEBVBox@Gu@2@AEBVPxVec3@2@MAEAUPxSweepHit@2@V?$PxFlags@W4Enum@PxHitFlag@physx@@G@2@M@Z 000000018000f280 f   GuCCTSweepTests.obj
 0001:0000e440       ?sweepBox_CapsuleGeom_Precise@@YA_NAEBVPxGeometry@physx@@AEBVPxTransform@2@AEBVPxBoxGeometry@2@1AEBVBox@Gu@2@AEBVPxVec3@2@MAEAUPxSweepHit@2@V?$PxFlags@W4Enum@PxHitFlag@physx@@G@2@M@Z 000000018000f440 f   GuCCTSweepTests.obj
 0001:0000e810       ?sweepBox_HeightFieldGeom_Precise@@YA_NAEBVPxGeometry@physx@@AEBVPxTransform@2@AEBVPxBoxGeometry@2@1AEBVBox@Gu@2@AEBVPxVec3@2@MAEAUPxSweepHit@2@V?$PxFlags@W4Enum@PxHitFlag@physx@@G@2@M@Z 000000018000f810 f   GuCCTSweepTests.obj
 0001:0000ebe0       ?sweepBox_SphereGeom_Precise@@YA_NAEBVPxGeometry@physx@@AEBVPxTransform@2@AEBVPxBoxGeometry@2@1AEBVBox@Gu@2@AEBVPxVec3@2@MAEAUPxSweepHit@2@V?$PxFlags@W4Enum@PxHitFlag@physx@@G@2@M@Z 000000018000fbe0 f   GuCCTSweepTests.obj
 0001:0000eeb0       ?sweepCapsule_BoxGeom_Precise@@YA_NAEBVPxGeometry@physx@@AEBVPxTransform@2@AEBVPxCapsuleGeometry@2@1AEBVCapsule@Gu@2@AEBVPxVec3@2@MAEAUPxSweepHit@2@V?$PxFlags@W4Enum@PxHitFlag@physx@@G@2@M@Z 000000018000feb0 f   GuCCTSweepTests.obj
 0001:0000f510       ?computePenetration@PxGeometryQuery@physx@@SA_NAEAVPxVec3@2@AEAMAEBVPxGeometry@2@AEBVPxTransform@2@23@Z 0000000180010510 f   GuGeometryQuery.obj
 0001:0000f5f0       ?getWorldBounds@PxGeometryQuery@physx@@SA?AVPxBounds3@2@AEBVPxGeometry@2@AEBVPxTransform@2@M@Z 00000001800105f0 f   GuGeometryQuery.obj
 0001:0000f650       ?isFinite@PxQuat@physx@@QEBA_NXZ 0000000180010650 f i GuGeometryQuery.obj
 0001:0000f6c0       ?isValid@PxGeometryQuery@physx@@SA_NAEBVPxGeometry@2@@Z 00000001800106c0 f   GuGeometryQuery.obj
 0001:0000f8c0       ?overlap@PxGeometryQuery@physx@@SA_NAEBVPxGeometry@2@AEBVPxTransform@2@01@Z 00000001800108c0 f   GuGeometryQuery.obj
 0001:0000f950       ?pointDistance@PxGeometryQuery@physx@@SAMAEBVPxVec3@2@AEBVPxGeometry@2@AEBVPxTransform@2@PEAV32@@Z 0000000180010950 f   GuGeometryQuery.obj
 0001:0000ffe0       ?raycast@PxGeometryQuery@physx@@SAIAEBVPxVec3@2@0AEBVPxGeometry@2@AEBVPxTransform@2@MV?$PxFlags@W4Enum@PxHitFlag@physx@@G@2@IPEIAUPxRaycastHit@2@@Z 0000000180010fe0 f   GuGeometryQuery.obj
 0001:00010080       ?sweep@PxGeometryQuery@physx@@SA_NAEBVPxVec3@2@MAEBVPxGeometry@2@AEBVPxTransform@2@12AEAUPxSweepHit@2@V?$PxFlags@W4Enum@PxHitFlag@physx@@G@2@M@Z 0000000180011080 f   GuGeometryQuery.obj
 0001:00010480       ??0GeometryUnion@Gu@physx@@QEAA@AEBVPxGeometry@2@@Z 0000000180011480 f i GuGeometryUnion.obj
 0001:000104a0       ??0GeometryUnion@Gu@physx@@QEAA@XZ 00000001800114a0 f i GuGeometryUnion.obj
 0001:000104b0       ??0MaterialIndicesStruct@physx@@QEAA@XZ 00000001800114b0 f i GuGeometryUnion.obj
 0001:000104d0       ??4GeometryUnion@Gu@physx@@QEAAAEAV012@$$QEAV012@@Z 00000001800114d0 f i GuGeometryUnion.obj
 0001:000104d0       ??4GeometryUnion@Gu@physx@@QEAAAEAV012@AEBV012@@Z 00000001800114d0 f i GuGeometryUnion.obj
 0001:00010500       ?allocate@MaterialIndicesStruct@physx@@QEAAXG@Z 0000000180011500 f i GuGeometryUnion.obj
 0001:00010580       ?deallocate@MaterialIndicesStruct@physx@@QEAAXXZ 0000000180011580 f i GuGeometryUnion.obj
 0001:000105d0       ?getNumAxes@SeparatingAxes@Gu@physx@@QEBAIXZ 00000001800115d0 f i GuMTD.obj
 0001:000105d0       ?getType@GeometryUnion@Gu@physx@@QEBA?AW4Enum@PxGeometryType@3@XZ 00000001800115d0 f i GuGeometryUnion.obj
 0001:000105d0       ?getCount@BuildStats@Gu@physx@@QEBAIXZ 00000001800115d0 f i GuAABBTreeBuild.obj
 0001:000105e0       ?set@GeometryUnion@Gu@physx@@QEAAXAEBVPxGeometry@3@@Z 00000001800115e0 f   GuGeometryUnion.obj
 0001:000107c0       ?computeBoundsAroundVertices@Gu@physx@@YAXAEAVPxBounds3@2@IPEIBVPxVec3@2@@Z 00000001800117c0 f   GuInternal.obj
 0001:00010870       ?computeBoxPoints@Gu@physx@@YAXAEBVPxBounds3@2@PEIAVPxVec3@2@@Z 0000000180011870 f   GuInternal.obj
 0001:00010910       ?computeSweptBox@Gu@physx@@YAXAEAVBox@12@AEBVPxVec3@2@1AEBVPxMat33@2@1M@Z 0000000180011910 f   GuInternal.obj
 0001:00010e40       ?getPlane@Gu@physx@@YA?AVPxPlane@2@AEBVPxTransform@2@@Z 0000000180011e40 f   GuInternal.obj
 0001:00010ef0       ??$?_UI@@YAPEAX_KV?$ReflectionAllocator@I@shdfnd@physx@@PEBDH@Z 0000000180011ef0 f i GuMeshFactory.obj
 0001:00010f90       ??0GuMeshFactory@physx@@QEAA@XZ 0000000180011f90 f   GuMeshFactory.obj
 0001:00011120       ??1GuMeshFactory@physx@@MEAA@XZ 0000000180012120 f   GuMeshFactory.obj
 0001:00011210       ??1MeshDataBase@Gu@physx@@UEAA@XZ 0000000180012210 f i GuMeshFactory.obj
 0001:00011300       ??1TriangleMeshData@Gu@physx@@UEAA@XZ 0000000180012300 f i GuMeshFactory.obj
 0001:000113d0       ??_EGuMeshFactory@physx@@MEAAPEAXI@Z 00000001800123d0 f i GuMeshFactory.obj
 0001:000114e0       ??_EBV4TriangleData@Gu@physx@@UEAAPEAXI@Z 00000001800124e0 f i GuMeshFactory.obj
 0001:000114e0       ??_GBV4TriangleData@Gu@physx@@UEAAPEAXI@Z 00000001800124e0 f i GuMeshFactory.obj
 0001:00011570       ??_EMeshDataBase@Gu@physx@@UEAAPEAXI@Z 0000000180012570 f i GuMeshFactory.obj
 0001:00011570       ??_GMeshDataBase@Gu@physx@@UEAAPEAXI@Z 0000000180012570 f i GuMeshFactory.obj
 0001:000115e0       ??_ERTreeTriangleData@Gu@physx@@UEAAPEAXI@Z 00000001800125e0 f i GuMeshFactory.obj
 0001:000115e0       ??_GRTreeTriangleData@Gu@physx@@UEAAPEAXI@Z 00000001800125e0 f i GuMeshFactory.obj
 0001:00011690       ??_ETriangleMeshData@Gu@physx@@UEAAPEAXI@Z 0000000180012690 f i GuMeshFactory.obj
 0001:00011690       ??_GTriangleMeshData@Gu@physx@@UEAAPEAXI@Z 0000000180012690 f i GuMeshFactory.obj
 0001:00011700       ?__global_array_delete@@YAXPEAX_K@Z 0000000180012700 f i GuMeshFactory.obj
 0001:00011710       ?__global_delete@@YAXPEAX_K@Z 0000000180012710 f i GuMeshFactory.obj
 0001:00011710       ??_V@YAXPEAX_K@Z           0000000180012710 f i MSVCRT:delete_array_size.obj
 0001:00011720       ?addBVHStructure@GuMeshFactory@physx@@QEAAXPEAVBVHStructure@Gu@2@_N@Z 0000000180012720 f   GuMeshFactory.obj
 0001:000117a0       ?addConvexMesh@GuMeshFactory@physx@@QEAAXPEAVConvexMesh@Gu@2@_N@Z 00000001800127a0 f   GuMeshFactory.obj
 0001:00011820       ?addFactoryListener@GuMeshFactory@physx@@QEAAXAEAVGuMeshFactoryListener@2@@Z 0000000180012820 f   GuMeshFactory.obj
 0001:00011890       ?addHeightField@GuMeshFactory@physx@@QEAAXPEAVHeightField@Gu@2@_N@Z 0000000180012890 f   GuMeshFactory.obj
 0001:00011910       ?addTriangleMesh@GuMeshFactory@physx@@QEAAXPEAVTriangleMesh@Gu@2@_N@Z 0000000180012910 f   GuMeshFactory.obj
 0001:00011990       ?create@?$HashBase@PEAVHeightField@Gu@physx@@PEAV123@U?$Hash@PEAVHeightField@Gu@physx@@@shdfnd@3@UGetKey@?$HashSetBase@PEAVHeightField@Gu@physx@@U?$Hash@PEAVHeightField@Gu@physx@@@shdfnd@3@VNonTrackingAllocator@53@$00@internal@53@VNonTrackingAllocator@53@$00@internal@shdfnd@physx@@QEAAPEAPEAVHeightField@Gu@4@AEBQEAV564@AEA_N@Z 0000000180012990 f i GuMeshFactory.obj
 0001:00011990       ?create@?$HashBase@PEAVBVHStructure@Gu@physx@@PEAV123@U?$Hash@PEAVBVHStructure@Gu@physx@@@shdfnd@3@UGetKey@?$HashSetBase@PEAVBVHStructure@Gu@physx@@U?$Hash@PEAVBVHStructure@Gu@physx@@@shdfnd@3@VNonTrackingAllocator@53@$00@internal@53@VNonTrackingAllocator@53@$00@internal@shdfnd@physx@@QEAAPEAPEAVBVHStructure@Gu@4@AEBQEAV564@AEA_N@Z 0000000180012990 f i GuMeshFactory.obj
 0001:00011990       ?create@?$HashBase@PEAVTriangleMesh@Gu@physx@@PEAV123@U?$Hash@PEAVTriangleMesh@Gu@physx@@@shdfnd@3@UGetKey@?$HashSetBase@PEAVTriangleMesh@Gu@physx@@U?$Hash@PEAVTriangleMesh@Gu@physx@@@shdfnd@3@VNonTrackingAllocator@53@$00@internal@53@VNonTrackingAllocator@53@$00@internal@shdfnd@physx@@QEAAPEAPEAVTriangleMesh@Gu@4@AEBQEAV564@AEA_N@Z 0000000180012990 f i GuMeshFactory.obj
 0001:00011990       ?create@?$HashBase@PEAVConvexMesh@Gu@physx@@PEAV123@U?$Hash@PEAVConvexMesh@Gu@physx@@@shdfnd@3@UGetKey@?$HashSetBase@PEAVConvexMesh@Gu@physx@@U?$Hash@PEAVConvexMesh@Gu@physx@@@shdfnd@3@VNonTrackingAllocator@53@$00@internal@53@VNonTrackingAllocator@53@$00@internal@shdfnd@physx@@QEAAPEAPEAVConvexMesh@Gu@4@AEBQEAV564@AEA_N@Z 0000000180012990 f i GuMeshFactory.obj
 0001:00011b30       ?createBVHStructure@GuMeshFactory@physx@@IEAAPEAVPxBVHStructure@2@AEAUBVHStructureData@Gu@2@@Z 0000000180012b30 f   GuMeshFactory.obj
 0001:00011c30       ?createBVHStructure@GuMeshFactory@physx@@QEAAPEAVPxBVHStructure@2@AEAVPxInputStream@2@@Z 0000000180012c30 f   GuMeshFactory.obj
 0001:00011d50       ?createBVHStructure@GuMeshFactory@physx@@QEAAPEAVPxBVHStructure@2@PEAX@Z 0000000180012d50 f   GuMeshFactory.obj
 0001:00011d60       ?createConvexMesh@GuMeshFactory@physx@@IEAAPEAVPxConvexMesh@2@AEAUConvexHullInitData@Gu@2@@Z 0000000180012d60 f   GuMeshFactory.obj
 0001:00011e50       ?createConvexMesh@GuMeshFactory@physx@@QEAAPEAVPxConvexMesh@2@AEAVPxInputStream@2@@Z 0000000180012e50 f   GuMeshFactory.obj
 0001:00011f70       ?createConvexMesh@GuMeshFactory@physx@@QEAAPEAVPxConvexMesh@2@PEAX@Z 0000000180012f70 f   GuMeshFactory.obj
 0001:00011f80       ?createHeightField@GuMeshFactory@physx@@QEAAPEAVPxHeightField@2@AEAVPxInputStream@2@@Z 0000000180012f80 f   GuMeshFactory.obj
 0001:000120a0       ?createHeightField@GuMeshFactory@physx@@QEAAPEAVPxHeightField@2@PEAX@Z 00000001800130a0 f   GuMeshFactory.obj
 0001:000121a0       ?createTriangleMesh@GuMeshFactory@physx@@IEAAPEAVPxTriangleMesh@2@AEAVTriangleMeshData@Gu@2@@Z 00000001800131a0 f   GuMeshFactory.obj
 0001:00012330       ?createTriangleMesh@GuMeshFactory@physx@@QEAAPEAVPxTriangleMesh@2@AEAVPxInputStream@2@@Z 0000000180013330 f   GuMeshFactory.obj
 0001:00012390       ?createTriangleMesh@GuMeshFactory@physx@@QEAAPEAVPxTriangleMesh@2@PEAX@Z 0000000180013390 f   GuMeshFactory.obj
 0001:000123a0       ?erase@?$HashBase@PEAVConvexMesh@Gu@physx@@PEAV123@U?$Hash@PEAVConvexMesh@Gu@physx@@@shdfnd@3@UGetKey@?$HashSetBase@PEAVConvexMesh@Gu@physx@@U?$Hash@PEAVConvexMesh@Gu@physx@@@shdfnd@3@VNonTrackingAllocator@53@$00@internal@53@VNonTrackingAllocator@53@$00@internal@shdfnd@physx@@QEAA_NAEBQEAVConvexMesh@Gu@4@@Z 00000001800133a0 f i GuMeshFactory.obj
 0001:000123a0       ?erase@?$HashBase@PEAVTriangleMesh@Gu@physx@@PEAV123@U?$Hash@PEAVTriangleMesh@Gu@physx@@@shdfnd@3@UGetKey@?$HashSetBase@PEAVTriangleMesh@Gu@physx@@U?$Hash@PEAVTriangleMesh@Gu@physx@@@shdfnd@3@VNonTrackingAllocator@53@$00@internal@53@VNonTrackingAllocator@53@$00@internal@shdfnd@physx@@QEAA_NAEBQEAVTriangleMesh@Gu@4@@Z 00000001800133a0 f i GuMeshFactory.obj
 0001:000123a0       ?erase@?$HashBase@PEAVHeightField@Gu@physx@@PEAV123@U?$Hash@PEAVHeightField@Gu@physx@@@shdfnd@3@UGetKey@?$HashSetBase@PEAVHeightField@Gu@physx@@U?$Hash@PEAVHeightField@Gu@physx@@@shdfnd@3@VNonTrackingAllocator@53@$00@internal@53@VNonTrackingAllocator@53@$00@internal@shdfnd@physx@@QEAA_NAEBQEAVHeightField@Gu@4@@Z 00000001800133a0 f i GuMeshFactory.obj
 0001:000123a0       ?erase@?$HashBase@PEAVBVHStructure@Gu@physx@@PEAV123@U?$Hash@PEAVBVHStructure@Gu@physx@@@shdfnd@3@UGetKey@?$HashSetBase@PEAVBVHStructure@Gu@physx@@U?$Hash@PEAVBVHStructure@Gu@physx@@@shdfnd@3@VNonTrackingAllocator@53@$00@internal@53@VNonTrackingAllocator@53@$00@internal@shdfnd@physx@@QEAA_NAEBQEAVBVHStructure@Gu@4@@Z 00000001800133a0 f i GuMeshFactory.obj
 0001:00012510       ?getBVHStructures@GuMeshFactory@physx@@QEBAIPEAPEAVPxBVHStructure@2@II@Z 0000000180013510 f   GuMeshFactory.obj
 0001:000125b0       ?getConvexMeshes@GuMeshFactory@physx@@QEBAIPEAPEAVPxConvexMesh@2@II@Z 00000001800135b0 f   GuMeshFactory.obj
 0001:00012640       ?getHeightFields@GuMeshFactory@physx@@QEBAIPEAPEAVPxHeightField@2@II@Z 0000000180013640 f   GuMeshFactory.obj
 0001:000126e0       ?getNbBVHStructures@GuMeshFactory@physx@@QEBAIXZ 00000001800136e0 f   GuMeshFactory.obj
 0001:00012720       ?getNbConvexMeshes@GuMeshFactory@physx@@QEBAIXZ 0000000180013720 f   GuMeshFactory.obj
 0001:00012760       ?getNbHeightFields@GuMeshFactory@physx@@QEBAIXZ 0000000180013760 f   GuMeshFactory.obj
 0001:000127a0       ?getNbTriangleMeshes@GuMeshFactory@physx@@QEBAIXZ 00000001800137a0 f   GuMeshFactory.obj
 0001:000127e0       ?getTriangleMeshes@GuMeshFactory@physx@@QEBAIPEAPEAVPxTriangleMesh@2@II@Z 00000001800137e0 f   GuMeshFactory.obj
 0001:00012870       ?growAndPushBack@?$Array@PEAVGuMeshFactoryListener@physx@@V?$ReflectionAllocator@PEAVGuMeshFactoryListener@physx@@@shdfnd@2@@shdfnd@physx@@IEAAAEAPEAVGuMeshFactoryListener@3@AEBQEAV43@@Z 0000000180013870 f i GuMeshFactory.obj
 0001:00013820       ?notifyFactoryListener@GuMeshFactory@physx@@QEAAXPEBVPxBase@2@G@Z 0000000180014820 f   GuMeshFactory.obj
 0001:00013890       ?release@GuMeshFactory@physx@@QEAAXXZ 0000000180014890 f   GuMeshFactory.obj
 0001:00013930       ?removeBVHStructure@GuMeshFactory@physx@@QEAA_NAEAVPxBVHStructure@2@@Z 0000000180014930 f   GuMeshFactory.obj
 0001:00013980       ?removeConvexMesh@GuMeshFactory@physx@@QEAA_NAEAVPxConvexMesh@2@@Z 0000000180014980 f   GuMeshFactory.obj
 0001:000139d0       ?removeFactoryListener@GuMeshFactory@physx@@QEAAXAEAVGuMeshFactoryListener@2@@Z 00000001800149d0 f   GuMeshFactory.obj
 0001:00013a60       ?removeHeightField@GuMeshFactory@physx@@QEAA_NAEAVPxHeightField@2@@Z 0000000180014a60 f   GuMeshFactory.obj
 0001:00013ab0       ?removeTriangleMesh@GuMeshFactory@physx@@QEAA_NAEAVPxTriangleMesh@2@@Z 0000000180014ab0 f   GuMeshFactory.obj
 0001:00013b00       ?reserveInternal@?$HashBase@PEAVHeightField@Gu@physx@@PEAV123@U?$Hash@PEAVHeightField@Gu@physx@@@shdfnd@3@UGetKey@?$HashSetBase@PEAVHeightField@Gu@physx@@U?$Hash@PEAVHeightField@Gu@physx@@@shdfnd@3@VNonTrackingAllocator@53@$00@internal@53@VNonTrackingAllocator@53@$00@internal@shdfnd@physx@@AEAAXI@Z 0000000180014b00 f i GuMeshFactory.obj
 0001:00013b00       ?reserveInternal@?$HashBase@PEAVConvexMesh@Gu@physx@@PEAV123@U?$Hash@PEAVConvexMesh@Gu@physx@@@shdfnd@3@UGetKey@?$HashSetBase@PEAVConvexMesh@Gu@physx@@U?$Hash@PEAVConvexMesh@Gu@physx@@@shdfnd@3@VNonTrackingAllocator@53@$00@internal@53@VNonTrackingAllocator@53@$00@internal@shdfnd@physx@@AEAAXI@Z 0000000180014b00 f i GuMeshFactory.obj
 0001:00013b00       ?reserveInternal@?$HashBase@PEAVTriangleMesh@Gu@physx@@PEAV123@U?$Hash@PEAVTriangleMesh@Gu@physx@@@shdfnd@3@UGetKey@?$HashSetBase@PEAVTriangleMesh@Gu@physx@@U?$Hash@PEAVTriangleMesh@Gu@physx@@@shdfnd@3@VNonTrackingAllocator@53@$00@internal@53@VNonTrackingAllocator@53@$00@internal@shdfnd@physx@@AEAAXI@Z 0000000180014b00 f i GuMeshFactory.obj
 0001:00013b00       ?reserveInternal@?$HashBase@PEAVBVHStructure@Gu@physx@@PEAV123@U?$Hash@PEAVBVHStructure@Gu@physx@@@shdfnd@3@UGetKey@?$HashSetBase@PEAVBVHStructure@Gu@physx@@U?$Hash@PEAVBVHStructure@Gu@physx@@@shdfnd@3@VNonTrackingAllocator@53@$00@internal@53@VNonTrackingAllocator@53@$00@internal@shdfnd@physx@@AEAAXI@Z 0000000180014b00 f i GuMeshFactory.obj
 0001:00013cd0       ??4BigConvexData@physx@@QEAAAEAV01@AEBV01@@Z 0000000180014cd0 f i GuMetaData.obj
 0001:00013cf0       ?GetAdjacentVerts@BigConvexData@physx@@QEBAPEBEXZ 0000000180014cf0 f i GuMetaData.obj
 0001:00013d00       ?GetNbNeighbors@BigConvexData@physx@@QEBAGI@Z 0000000180014d00 f i GuMetaData.obj
 0001:00013d00       ?GetValency@BigConvexData@physx@@QEBAGI@Z 0000000180014d00 f i GuMetaData.obj
 0001:00013d10       ?GetNbSamples@BigConvexData@physx@@QEBAIXZ 0000000180014d10 f i GuMetaData.obj
 0001:00013d20       ?GetNbVerts@BigConvexData@physx@@QEBAIXZ 0000000180014d20 f i GuMetaData.obj
 0001:00013d30       ?GetNeighbors@BigConvexData@physx@@QEBAPEBEI@Z 0000000180014d30 f i GuMetaData.obj
 0001:00013d40       ?GetOffset@BigConvexData@physx@@QEBAGI@Z 0000000180014d40 f i GuMetaData.obj
 0001:00013d50       ?GetSubdiv@BigConvexData@physx@@QEBAIXZ 0000000180014d50 f i GuMetaData.obj
 0001:00013d60       ?getBinaryMetaData@BV4Tree@Gu@physx@@SAXAEAVPxOutputStream@3@@Z 0000000180014d60 f   GuMetaData.obj
 0001:000140f0       ?getBinaryMetaData@BV4TriangleMesh@Gu@physx@@SAXAEAVPxOutputStream@3@@Z 00000001800150f0 f   GuMetaData.obj
 0001:000143d0       ?getBinaryMetaData@BigConvexData@physx@@SAXAEAVPxOutputStream@2@@Z 00000001800153d0 f   GuMetaData.obj
 0001:00014690       ?getBinaryMetaData@ConvexMesh@Gu@physx@@SAXAEAVPxOutputStream@3@@Z 0000000180015690 f   GuMetaData.obj
 0001:00014d20       ?getBinaryMetaData@GeometryUnion@Gu@physx@@SAXAEAVPxOutputStream@3@@Z 0000000180015d20 f   GuMetaData.obj
 0001:00015370       ?getBinaryMetaData@HeightField@Gu@physx@@SAXAEAVPxOutputStream@3@@Z 0000000180016370 f   GuMetaData.obj
 0001:000157a0       ?getBinaryMetaData@MaterialIndicesStruct@physx@@SAXAEAVPxOutputStream@2@@Z 00000001800167a0 f   GuMetaData.obj
 0001:00015940       ?getBinaryMetaData@RTree@Gu@physx@@SAXAEAVPxOutputStream@3@@Z 0000000180016940 f   GuMetaData.obj
 0001:00015c70       ?getBinaryMetaData@RTreeTriangleMesh@Gu@physx@@SAXAEAVPxOutputStream@3@@Z 0000000180016c70 f   GuMetaData.obj
 0001:00016510       ?getBinaryMetaData@TriangleMesh@Gu@physx@@SAXAEAVPxOutputStream@3@@Z 0000000180017510 f   GuMetaData.obj
 0001:00017980       ?doSupport@?$SupportLocalImpl@VConvexHullV@Gu@physx@@@Gu@physx@@UEBA?AT__m128@@AEBT4@@Z 0000000180018980 f i GuMTD.obj
 0001:00017a60       ?doSupport@?$SupportLocalImpl@VConvexHullV@Gu@physx@@@Gu@physx@@UEBAXAEBT__m128@@AEAT4@1@Z 0000000180018a60 f i GuMTD.obj
 0001:00017dc0       ?populateVerts@?$SupportLocalImpl@VConvexHullV@Gu@physx@@@Gu@physx@@UEBAXPEBEIPEBVPxVec3@3@PEAT__m128@@@Z 0000000180018dc0 f i GuMTD.obj
 0001:00017e20       ??_G?$SupportLocalImpl@VBoxV@Gu@physx@@@Gu@physx@@UEAAPEAXI@Z 0000000180018e20 f i GuMTD.obj
 0001:00017e20       ??_E?$SupportLocalImpl@VBoxV@Gu@physx@@@Gu@physx@@UEAAPEAXI@Z 0000000180018e20 f i GuMTD.obj
 0001:00017e20       ??_G?$SupportLocalImpl@VConvexHullV@Gu@physx@@@Gu@physx@@UEAAPEAXI@Z 0000000180018e20 f i GuMTD.obj
 0001:00017e20       ??_E?$SupportLocalImpl@VConvexHullV@Gu@physx@@@Gu@physx@@UEAAPEAXI@Z 0000000180018e20 f i GuMTD.obj
 0001:00017e20       ??_G?$SupportLocalImpl@VTriangleV@Gu@physx@@@Gu@physx@@UEAAPEAXI@Z 0000000180018e20 f i GuPCMContactConvexCommon.obj
 0001:00017e20       ??_E?$SupportLocalImpl@VConvexHullNoScaleV@Gu@physx@@@Gu@physx@@UEAAPEAXI@Z 0000000180018e20 f i GuMTD.obj
 0001:00017e20       ??_E?$SupportLocalImpl@VTriangleV@Gu@physx@@@Gu@physx@@UEAAPEAXI@Z 0000000180018e20 f i GuPCMContactConvexCommon.obj
 0001:00017e20       ??_G?$SupportLocalImpl@VConvexHullNoScaleV@Gu@physx@@@Gu@physx@@UEAAPEAXI@Z 0000000180018e20 f i GuMTD.obj
 0001:00017e50       ?doSupport@?$SupportLocalImpl@VConvexHullNoScaleV@Gu@physx@@@Gu@physx@@UEBA?AT__m128@@AEBT4@@Z 0000000180018e50 f i GuMTD.obj
 0001:00017ea0       ?doSupport@?$SupportLocalImpl@VConvexHullNoScaleV@Gu@physx@@@Gu@physx@@UEBAXAEBT__m128@@AEAT4@1@Z 0000000180018ea0 f i GuMTD.obj
 0001:00018020       ?populateVerts@?$SupportLocalImpl@VConvexHullNoScaleV@Gu@physx@@@Gu@physx@@UEBAXPEBEIPEBVPxVec3@3@PEAT__m128@@@Z 0000000180019020 f i GuMTD.obj
 0001:00018020       ?populateVerts@?$SupportLocalImpl@VBoxV@Gu@physx@@@Gu@physx@@UEBAXPEBEIPEBVPxVec3@3@PEAT__m128@@@Z 0000000180019020 f i GuMTD.obj
 0001:00018060       ?doSupport@?$SupportLocalImpl@VBoxV@Gu@physx@@@Gu@physx@@UEBA?AT__m128@@AEBT4@@Z 0000000180019060 f i GuMTD.obj
 0001:00018090       ?doSupport@?$SupportLocalImpl@VBoxV@Gu@physx@@@Gu@physx@@UEBAXAEBT__m128@@AEAT4@1@Z 0000000180019090 f i GuMTD.obj
 0001:000180e0       ??_GSupportLocal@Gu@physx@@UEAAPEAXI@Z 00000001800190e0 f i GuMTD.obj
 0001:000180e0       ??_ESupportLocal@Gu@physx@@UEAAPEAXI@Z 00000001800190e0 f i GuMTD.obj
 0001:00019eb0       ??$gjk@U?$LocalConvex@VCapsuleV@Gu@physx@@@Gu@physx@@U?$LocalConvex@VConvexHullV@Gu@physx@@@23@@Gu@physx@@YA?AW4GjkStatus@01@AEBU?$LocalConvex@VCapsuleV@Gu@physx@@@01@AEBU?$LocalConvex@VConvexHullV@Gu@physx@@@01@AEBT__m128@@2AEAT5@333@Z 000000018001aeb0 f i GuMTD.obj
 0001:0001ac20       ??0MultiplePersistentContactManifold@Gu@physx@@QEAA@XZ 000000018001bc20 f i GuMTD.obj
 0001:0001ac70       ??0PolygonalBox@Gu@physx@@QEAA@AEBV012@@Z 000000018001bc70 f i GuMTD.obj
 0001:0001aef0       ??0SeparatingAxes@Gu@physx@@QEAA@AEBV012@@Z 000000018001bef0 f i GuMTD.obj
 0001:0001aef0       ??0SeparatingAxes@Gu@physx@@QEAA@$$QEAV012@@Z 000000018001bef0 f i GuMTD.obj
 0001:0001b000       ??0SeparatingAxes@Gu@physx@@QEAA@XZ 000000018001c000 f i GuMTD.obj
 0001:0001b010       ??4MultiplePersistentContactManifold@Gu@physx@@QEAAAEAV012@$$QEAV012@@Z 000000018001c010 f i GuMTD.obj
 0001:0001b320       ??4MultiplePersistentContactManifold@Gu@physx@@QEAAAEAV012@AEBV012@@Z 000000018001c320 f i GuMTD.obj
 0001:0001b340       ??4SeparatingAxes@Gu@physx@@QEAAAEAV012@$$QEAV012@@Z 000000018001c340 f i GuMTD.obj
 0001:0001b340       ??4SeparatingAxes@Gu@physx@@QEAAAEAV012@AEBV012@@Z 000000018001c340 f i GuMTD.obj
 0001:0001b450       ??_G?$LocalConvex@VConvexHullNoScaleV@Gu@physx@@@Gu@physx@@UEAAPEAXI@Z 000000018001c450 f i GuPCMContactBoxConvex.obj
 0001:0001b450       ??_EGjkConvexBase@Gu@physx@@UEAAPEAXI@Z 000000018001c450 f i GuMTD.obj
 0001:0001b450       ??_E?$LocalConvex@VCapsuleV@Gu@physx@@@Gu@physx@@UEAAPEAXI@Z 000000018001c450 f i GuMTD.obj
 0001:0001b450       ??_E?$LocalConvex@VConvexHullV@Gu@physx@@@Gu@physx@@UEAAPEAXI@Z 000000018001c450 f i GuMTD.obj
 0001:0001b450       ??_G?$LocalConvex@VConvexHullV@Gu@physx@@@Gu@physx@@UEAAPEAXI@Z 000000018001c450 f i GuMTD.obj
 0001:0001b450       ??_E?$LocalConvex@VConvexHullNoScaleV@Gu@physx@@@Gu@physx@@UEAAPEAXI@Z 000000018001c450 f i GuPCMContactBoxConvex.obj
 0001:0001b450       ??_E?$LocalConvex@VBoxV@Gu@physx@@@Gu@physx@@UEAAPEAXI@Z 000000018001c450 f i GuSweepTests.obj
 0001:0001b450       ??_E?$LocalConvex@VTriangleV@Gu@physx@@@Gu@physx@@UEAAPEAXI@Z 000000018001c450 f i GuSweepTests.obj
 0001:0001b450       ??_GGjkConvexBase@Gu@physx@@UEAAPEAXI@Z 000000018001c450 f i GuMTD.obj
 0001:0001b450       ??_G?$LocalConvex@VBoxV@Gu@physx@@@Gu@physx@@UEAAPEAXI@Z 000000018001c450 f i GuSweepTests.obj
 0001:0001b450       ??_G?$LocalConvex@VCapsuleV@Gu@physx@@@Gu@physx@@UEAAPEAXI@Z 000000018001c450 f i GuMTD.obj
 0001:0001b450       ??_G?$LocalConvex@VTriangleV@Gu@physx@@@Gu@physx@@UEAAPEAXI@Z 000000018001c450 f i GuSweepTests.obj
 0001:0001bbe0       ?clearManifold@MultiplePersistentContactManifold@Gu@physx@@QEAAXXZ 000000018001cbe0 f i GuMTD.obj
 0001:0001f7e0       ?getAxes@SeparatingAxes@Gu@physx@@QEBAPEBVPxVec3@3@XZ 00000001800207e0 f i GuMTD.obj
 0001:0001f7f0       ?getCenter@?$LocalConvex@VConvexHullNoScaleV@Gu@physx@@@Gu@physx@@UEBA?AT__m128@@XZ 00000001800207f0 f i GuPCMContactBoxConvex.obj
 0001:0001f7f0       ?getCenter@?$LocalConvex@VConvexHullV@Gu@physx@@@Gu@physx@@UEBA?AT__m128@@XZ 00000001800207f0 f i GuMTD.obj
 0001:0001f7f0       ?getCenter@?$LocalConvex@VTriangleV@Gu@physx@@@Gu@physx@@UEBA?AT__m128@@XZ 00000001800207f0 f i GuSweepTests.obj
 0001:0001f7f0       ?getCenter@?$LocalConvex@VBoxV@Gu@physx@@@Gu@physx@@UEBA?AT__m128@@XZ 00000001800207f0 f i GuSweepTests.obj
 0001:0001f7f0       ?getCenter@?$LocalConvex@VCapsuleV@Gu@physx@@@Gu@physx@@UEBA?AT__m128@@XZ 00000001800207f0 f i GuMTD.obj
 0001:0001f800       ?getEmptyManifold@MultiplePersistentContactManifold@Gu@physx@@QEAAPEAVSinglePersistentContactManifold@23@XZ 0000000180020800 f i GuMTD.obj
 0001:0001f820       ?getManifold@MultiplePersistentContactManifold@Gu@physx@@QEAAPEAVSinglePersistentContactManifold@23@I@Z 0000000180020820 f i GuMTD.obj
 0001:0001f840       ?getSweepMargin@?$LocalConvex@VCapsuleV@Gu@physx@@@Gu@physx@@UEBA?AT__m128@@XZ 0000000180020840 f i GuMTD.obj
 0001:0001f840       ?getSweepMargin@?$RelativeConvex@VCapsuleV@Gu@physx@@@Gu@physx@@UEBA?AT__m128@@XZ 0000000180020840 f i GuCCDSweepPrimitives.obj
 0001:0001f850       ?getSweepMargin@?$RelativeConvex@VBoxV@Gu@physx@@@Gu@physx@@UEBA?AT__m128@@XZ 0000000180020850 f i GuOverlapTests.obj
 0001:0001f850       ?getSweepMargin@?$LocalConvex@VBoxV@Gu@physx@@@Gu@physx@@UEBA?AT__m128@@XZ 0000000180020850 f i GuSweepTests.obj
 0001:0001f850       ?getSweepMargin@?$RelativeConvex@VConvexHullNoScaleV@Gu@physx@@@Gu@physx@@UEBA?AT__m128@@XZ 0000000180020850 f i GuPCMContactConvexConvex.obj
 0001:0001f850       ?getSweepMargin@?$LocalConvex@VConvexHullV@Gu@physx@@@Gu@physx@@UEBA?AT__m128@@XZ 0000000180020850 f i GuMTD.obj
 0001:0001f850       ?getSweepMargin@?$RelativeConvex@VConvexHullV@Gu@physx@@@Gu@physx@@UEBA?AT__m128@@XZ 0000000180020850 f i GuOverlapTests.obj
 0001:0001f850       ?getSweepMargin@?$LocalConvex@VConvexHullNoScaleV@Gu@physx@@@Gu@physx@@UEBA?AT__m128@@XZ 0000000180020850 f i GuPCMContactBoxConvex.obj
 0001:0001f870       ?hillClimbing@ConvexHullV@Gu@physx@@QEBAIAEBT__m128@@@Z 0000000180020870 f i GuMTD.obj
 0001:0001faa0       ?initialize@MultiplePersistentContactManifold@Gu@physx@@QEAAXXZ 0000000180020aa0 f i GuMTD.obj
 0001:0001fb00       ?invalidate@MultiplePersistentContactManifold@Gu@physx@@QEAAIAEBVPsTransformV@aos@shdfnd@3@AEBT__m128@@1@Z 0000000180020b00 f i GuMTD.obj
 0001:0001fb80       ?invalidate@MultiplePersistentContactManifold@Gu@physx@@QEAAIAEBVPsTransformV@aos@shdfnd@3@AEBT__m128@@@Z 0000000180020b80 f i GuMTD.obj
 0001:0001fc00       ?maxTransformPositionDelta@MultiplePersistentContactManifold@Gu@physx@@QEAA?AT__m128@@AEBT4@@Z 0000000180020c00 f i GuMTD.obj
 0001:0001fc40       ?maxTransformQuatDelta@MultiplePersistentContactManifold@Gu@physx@@QEAA?AT__m128@@AEBT4@@Z 0000000180020c40 f i GuMTD.obj
 0001:0001fc80       ?pointConvexDistance@@YA_NAEAVPxVec3@physx@@0AEAMAEBV12@PEBVConvexMesh@Gu@2@AEBVPxMeshScale@2@AEBVPxTransform@2@@Z 0000000180020c80 f   GuMTD.obj
 0001:00020a40       ?reduceManifoldContactsInDifferentPatches@MultiplePersistentContactManifold@Gu@physx@@QEAAIPEAPEAUPCMContactPatch@23@IPEAVMeshPersistentContact@23@IAEBT__m128@@@Z 0000000180021a40 f i GuMTD.obj
 0001:00020ba0       ?refineContactPatchConnective@MultiplePersistentContactManifold@Gu@physx@@QEAAXPEAPEAUPCMContactPatch@23@IPEAVMeshPersistentContact@23@AEBT__m128@@@Z 0000000180021ba0 f i GuMTD.obj
 0001:00020c90       ?refreshManifold@MultiplePersistentContactManifold@Gu@physx@@QEAAXAEBVPsMatTransformV@aos@shdfnd@3@AEBT__m128@@1@Z 0000000180021c90 f i GuMTD.obj
 0001:00020d90       ?reset@SeparatingAxes@Gu@physx@@QEAAXXZ 0000000180021d90 f i GuMTD.obj
 0001:00020da0       ?setRelativeTransform@MultiplePersistentContactManifold@Gu@physx@@QEAAXAEBVPsTransformV@aos@shdfnd@3@@Z 0000000180021da0 f i GuMTD.obj
 0001:00020db0       ?support@?$LocalConvex@VCapsuleV@Gu@physx@@@Gu@physx@@UEBA?AT__m128@@AEBT4@@Z 0000000180021db0 f i GuMTD.obj
 0001:00020e10       ?support@?$LocalConvex@VCapsuleV@Gu@physx@@@Gu@physx@@UEBA?AT__m128@@AEBT4@AEAH@Z 0000000180021e10 f i GuMTD.obj
 0001:00020e80       ?support@?$LocalConvex@VConvexHullV@Gu@physx@@@Gu@physx@@UEBA?AT__m128@@AEBT4@@Z 0000000180021e80 f i GuMTD.obj
 0001:00020f60       ?support@?$LocalConvex@VConvexHullV@Gu@physx@@@Gu@physx@@UEBA?AT__m128@@AEBT4@AEAH@Z 0000000180021f60 f i GuMTD.obj
 0001:00021030       ?supportPoint@?$LocalConvex@VCapsuleV@Gu@physx@@@Gu@physx@@UEBA?AT__m128@@H@Z 0000000180022030 f i GuMTD.obj
 0001:00021060       ?supportPoint@?$LocalConvex@VConvexHullV@Gu@physx@@@Gu@physx@@UEBA?AT__m128@@H@Z 0000000180022060 f i GuMTD.obj
 0001:000210b0       ?supportVertexIndex@ConvexHullV@Gu@physx@@QEBAIAEBT__m128@@@Z 00000001800220b0 f i GuMTD.obj
 0001:00021330       ?toBuffer@MultiplePersistentContactManifold@Gu@physx@@QEAAXPEIAE@Z 0000000180022330 f i GuMTD.obj
 0001:00021410       ?supportPoint@?$RelativeConvex@VBoxV@Gu@physx@@@Gu@physx@@UEBA?AT__m128@@H@Z 0000000180022410 f i GuOverlapTests.obj
 0001:00021480       ?support@?$RelativeConvex@VBoxV@Gu@physx@@@Gu@physx@@UEBA?AT__m128@@AEBT4@@Z 0000000180022480 f i GuOverlapTests.obj
 0001:00021500       ?support@?$RelativeConvex@VBoxV@Gu@physx@@@Gu@physx@@UEBA?AT__m128@@AEBT4@AEAH@Z 0000000180022500 f i GuOverlapTests.obj
 0001:00021590       ?getCenter@?$RelativeConvex@VCapsuleV@Gu@physx@@@Gu@physx@@UEBA?AT__m128@@XZ 0000000180022590 f i GuCCDSweepPrimitives.obj
 0001:00021590       ?getCenter@?$RelativeConvex@VConvexHullV@Gu@physx@@@Gu@physx@@UEBA?AT__m128@@XZ 0000000180022590 f i GuOverlapTests.obj
 0001:00021590       ?getCenter@?$RelativeConvex@VBoxV@Gu@physx@@@Gu@physx@@UEBA?AT__m128@@XZ 0000000180022590 f i GuOverlapTests.obj
 0001:00021590       ?getCenter@?$RelativeConvex@VTriangleV@Gu@physx@@@Gu@physx@@UEBA?AT__m128@@XZ 0000000180022590 f i GuCCDSweepPrimitives.obj
 0001:00021590       ?getCenter@?$RelativeConvex@VConvexHullNoScaleV@Gu@physx@@@Gu@physx@@UEBA?AT__m128@@XZ 0000000180022590 f i GuPCMContactConvexConvex.obj
 0001:000215d0       ??_E?$RelativeConvex@VConvexHullV@Gu@physx@@@Gu@physx@@UEAAPEAXI@Z 00000001800225d0 f i GuOverlapTests.obj
 0001:000215d0       ??_E?$RelativeConvex@VCapsuleV@Gu@physx@@@Gu@physx@@UEAAPEAXI@Z 00000001800225d0 f i GuCCDSweepPrimitives.obj
 0001:000215d0       ??_G?$RelativeConvex@VBoxV@Gu@physx@@@Gu@physx@@UEAAPEAXI@Z 00000001800225d0 f i GuOverlapTests.obj
 0001:000215d0       ??_E?$RelativeConvex@VTriangleV@Gu@physx@@@Gu@physx@@UEAAPEAXI@Z 00000001800225d0 f i GuCCDSweepPrimitives.obj
 0001:000215d0       ??_E?$RelativeConvex@VBoxV@Gu@physx@@@Gu@physx@@UEAAPEAXI@Z 00000001800225d0 f i GuOverlapTests.obj
 0001:000215d0       ??_E?$RelativeConvex@VConvexHullNoScaleV@Gu@physx@@@Gu@physx@@UEAAPEAXI@Z 00000001800225d0 f i GuPCMContactConvexConvex.obj
 0001:000215d0       ??_G?$RelativeConvex@VConvexHullV@Gu@physx@@@Gu@physx@@UEAAPEAXI@Z 00000001800225d0 f i GuOverlapTests.obj
 0001:000215d0       ??_G?$RelativeConvex@VCapsuleV@Gu@physx@@@Gu@physx@@UEAAPEAXI@Z 00000001800225d0 f i GuCCDSweepPrimitives.obj
 0001:000215d0       ??_G?$RelativeConvex@VConvexHullNoScaleV@Gu@physx@@@Gu@physx@@UEAAPEAXI@Z 00000001800225d0 f i GuPCMContactConvexConvex.obj
 0001:000215d0       ??_G?$RelativeConvex@VTriangleV@Gu@physx@@@Gu@physx@@UEAAPEAXI@Z 00000001800225d0 f i GuCCDSweepPrimitives.obj
 0001:00023790       ?supportPoint@?$RelativeConvex@VConvexHullV@Gu@physx@@@Gu@physx@@UEBA?AT__m128@@H@Z 0000000180024790 f i GuOverlapTests.obj
 0001:00023810       ?support@?$RelativeConvex@VConvexHullV@Gu@physx@@@Gu@physx@@UEBA?AT__m128@@AEBT4@@Z 0000000180024810 f i GuOverlapTests.obj
 0001:00023940       ?support@?$RelativeConvex@VConvexHullV@Gu@physx@@@Gu@physx@@UEBA?AT__m128@@AEBT4@AEAH@Z 0000000180024940 f i GuOverlapTests.obj
 0001:00023aa0       ??$gjk@U?$RelativeConvex@VBoxV@Gu@physx@@@Gu@physx@@U?$LocalConvex@VConvexHullV@Gu@physx@@@23@@Gu@physx@@YA?AW4GjkStatus@01@AEBU?$RelativeConvex@VBoxV@Gu@physx@@@01@AEBU?$LocalConvex@VConvexHullV@Gu@physx@@@01@AEBT__m128@@2AEAT5@333@Z 0000000180024aa0 f i GuOverlapTests.obj
 0001:00024860       ??$gjk@U?$RelativeConvex@VConvexHullV@Gu@physx@@@Gu@physx@@U?$LocalConvex@VConvexHullV@Gu@physx@@@23@@Gu@physx@@YA?AW4GjkStatus@01@AEBU?$RelativeConvex@VConvexHullV@Gu@physx@@@01@AEBU?$LocalConvex@VConvexHullV@Gu@physx@@@01@AEBT__m128@@2AEAT5@333@Z 0000000180025860 f i GuOverlapTests.obj
 0001:000256f0       ?ComputeCubemapNearestOffset@physx@@YAIAEBVPxVec3@1@I@Z 00000001800266f0 f i GuOverlapTests.obj
 0001:000257f0       ?getOverlapFuncTable@Gu@physx@@YAPEAY06Q6A_NAEBVPxGeometry@2@AEBVPxTransform@2@01PEAUTriggerCache@12@@ZXZ 00000001800267f0 f   GuOverlapTests.obj
 0001:00027280       ?registerHeightFields@Gu@physx@@YAXXZ 0000000180028280 f   GuOverlapTests.obj
 0001:000272d0       ?raycast_box@@YAIAEBVPxGeometry@physx@@AEBVPxTransform@2@AEBVPxVec3@2@2MV?$PxFlags@W4Enum@PxHitFlag@physx@@G@2@IPEIAUPxRaycastHit@2@@Z 00000001800282d0 f   GuRaycastTests.obj
 0001:00027900       ?raycast_sphere@@YAIAEBVPxGeometry@physx@@AEBVPxTransform@2@AEBVPxVec3@2@2MV?$PxFlags@W4Enum@PxHitFlag@physx@@G@2@IPEIAUPxRaycastHit@2@@Z 0000000180028900 f   GuRaycastTests.obj
 0001:00027a90       ?raycast_capsule@@YAIAEBVPxGeometry@physx@@AEBVPxTransform@2@AEBVPxVec3@2@2MV?$PxFlags@W4Enum@PxHitFlag@physx@@G@2@IPEIAUPxRaycastHit@2@@Z 0000000180028a90 f   GuRaycastTests.obj
 0001:00027ff0       ?raycast_plane@@YAIAEBVPxGeometry@physx@@AEBVPxTransform@2@AEBVPxVec3@2@2MV?$PxFlags@W4Enum@PxHitFlag@physx@@G@2@IPEIAUPxRaycastHit@2@@Z 0000000180028ff0 f   GuRaycastTests.obj
 0001:00028160       ?raycast_convexMesh@@YAIAEBVPxGeometry@physx@@AEBVPxTransform@2@AEBVPxVec3@2@2MV?$PxFlags@W4Enum@PxHitFlag@physx@@G@2@IPEIAUPxRaycastHit@2@@Z 0000000180029160 f   GuRaycastTests.obj
 0001:00028c90       ?raycast_triangleMesh@@YAIAEBVPxGeometry@physx@@AEBVPxTransform@2@AEBVPxVec3@2@2MV?$PxFlags@W4Enum@PxHitFlag@physx@@G@2@IPEIAUPxRaycastHit@2@@Z 0000000180029c90 f   GuRaycastTests.obj
 0001:00029fb0       ??Dphysx@@YA?AVMatrix34@Cm@0@AEBVPxMeshScale@0@AEBVPxTransform@0@@Z 000000018002afb0 f i GuRaycastTests.obj
 0001:0002abf0       ?getRaycastFuncTable@Gu@physx@@YAAEAY06Q6AIAEBVPxGeometry@2@AEBVPxTransform@2@AEBVPxVec3@2@2MV?$PxFlags@W4Enum@PxHitFlag@physx@@G@2@IPEIAUPxRaycastHit@2@@ZXZ 000000018002bbf0 f   GuRaycastTests.obj
 0001:0002ac00       ?raycast_heightField@@YAIAEBVPxGeometry@physx@@AEBVPxTransform@2@AEBVPxVec3@2@2MV?$PxFlags@W4Enum@PxHitFlag@physx@@G@2@IPEIAUPxRaycastHit@2@@Z 000000018002bc00 f   GuRaycastTests.obj
 0001:0002b340       ?registerHeightFields_Raycasts@@YAXXZ 000000018002c340 f   GuRaycastTests.obj
 0001:0002b350       ?ReadHeader@Gu@physx@@YA_NEEEEAEAIAEA_NAEAVPxInputStream@2@@Z 000000018002c350 f   GuSerialize.obj
 0001:0002b4b0       ?ReadIndices@Gu@physx@@YAXGIPEAGAEAVPxInputStream@2@_N@Z 000000018002c4b0 f   GuSerialize.obj
 0001:0002b600       ?StoreIndices@Gu@physx@@YAXGIPEBGAEAVPxOutputStream@2@_N@Z 000000018002c600 f   GuSerialize.obj
 0001:0002b6c0       ?StoreIndices@Gu@physx@@YAXIIPEBIAEAVPxOutputStream@2@_N@Z 000000018002c6c0 f   GuSerialize.obj
 0001:0002b7e0       ?WriteHeader@Gu@physx@@YA_NEEEEI_NAEAVPxOutputStream@2@@Z 000000018002c7e0 f   GuSerialize.obj
 0001:0002b910       ?computeMaxIndex@physx@@YAGPEBGI@Z 000000018002c910 f   GuSerialize.obj
 0001:0002b940       ?computeMaxIndex@physx@@YAIPEBII@Z 000000018002c940 f   GuSerialize.obj
 0001:0002b970       ?readChunk@physx@@YAXAEAC000AEAVPxInputStream@1@@Z 000000018002c970 f   GuSerialize.obj
 0001:0002b9f0       ?readDword@physx@@YAI_NAEAVPxInputStream@1@@Z 000000018002c9f0 f   GuSerialize.obj
 0001:0002ba50       ?readFloat@physx@@YAM_NAEAVPxInputStream@1@@Z 000000018002ca50 f   GuSerialize.obj
 0001:0002bab0       ?readFloatBuffer@physx@@YA_NPEAMI_NAEAVPxInputStream@1@@Z 000000018002cab0 f   GuSerialize.obj
 0001:0002bb30       ?readHeader@physx@@YA_NCCCCAEAIAEA_NAEAVPxInputStream@1@@Z 000000018002cb30 f   GuSerialize.obj
 0001:0002bc80       ?readIndices@physx@@YAXIIPEAIAEAVPxInputStream@1@_N@Z 000000018002cc80 f   GuSerialize.obj
 0001:0002bd70       ?readWord@physx@@YAG_NAEAVPxInputStream@1@@Z 000000018002cd70 f   GuSerialize.obj
 0001:0002bdb0       ?readWordBuffer@physx@@YAXPEAGI_NAEAVPxInputStream@1@@Z 000000018002cdb0 f   GuSerialize.obj
 0001:0002be20       ?storeIndices@physx@@YAXIIPEBIAEAVPxOutputStream@1@_N@Z 000000018002ce20 f   GuSerialize.obj
 0001:0002bf10       ?writeDword@physx@@YAXI_NAEAVPxOutputStream@1@@Z 000000018002cf10 f   GuSerialize.obj
 0001:0002bf60       ?writeFloat@physx@@YAXM_NAEAVPxOutputStream@1@@Z 000000018002cf60 f   GuSerialize.obj
 0001:0002bfb0       ?writeFloatBuffer@physx@@YAXPEBMI_NAEAVPxOutputStream@1@@Z 000000018002cfb0 f   GuSerialize.obj
 0001:0002c050       ?writeHeader@physx@@YA_NCCCCI_NAEAVPxOutputStream@1@@Z 000000018002d050 f   GuSerialize.obj
 0001:0002c180       ?writeWord@physx@@YAXG_NAEAVPxOutputStream@1@@Z 000000018002d180 f   GuSerialize.obj
 0001:0002c1c0       ?writeWordBuffer@physx@@YAXPEBGI_NAEAVPxOutputStream@1@@Z 000000018002d1c0 f   GuSerialize.obj
 0001:0002c240       ??Dphysx@@YA?AVMatrix34@Cm@0@AEBVPxTransform@0@AEBVPxMeshScale@0@@Z 000000018002d240 f i GuSweepMTD.obj
 0001:0002c890       ??_E?$MeshHitCallback@UPxRaycastHit@physx@@@Gu@physx@@UEAAPEAXI@Z 000000018002d890 f i GuSweepMTD.obj
 0001:0002c890       ??_G?$MeshHitCallback@UPxRaycastHit@physx@@@Gu@physx@@UEAAPEAXI@Z 000000018002d890 f i GuSweepMTD.obj
 0001:0002c8c0       ??_GMeshMTDGenerationCallback@@UEAAPEAXI@Z 000000018002d8c0 f i GuSweepMTD.obj
 0001:0002c8c0       ??_EMeshMTDGenerationCallback@@UEAAPEAXI@Z 000000018002d8c0 f i GuSweepMTD.obj
 0001:0002c8f0       ??_GMidPhaseQueryLocalReport@@UEAAPEAXI@Z 000000018002d8f0 f i GuSweepMTD.obj
 0001:0002c8f0       ??_EMidPhaseQueryLocalReport@@UEAAPEAXI@Z 000000018002d8f0 f i GuSweepMTD.obj
 0001:0002c920       ?allocate@?$ReflectionAllocator@I@shdfnd@physx@@QEAAPEAX_KPEBDH@Z 000000018002d920 f i GuSweepMTD.obj
 0001:0002c9c0       ?computeBox_HeightFieldMTD@Gu@physx@@YA_NAEBVPxHeightFieldGeometry@2@AEBVPxTransform@2@AEBVBox@12@1M_NIAEAUPxSweepHit@2@@Z 000000018002d9c0 f   GuSweepMTD.obj
 0001:0002d840       ?computeBox_TriangleMeshMTD@Gu@physx@@YA_NAEBVPxTriangleMeshGeometry@2@AEBVPxTransform@2@AEBVBox@12@1M_NAEAUPxSweepHit@2@@Z 000000018002e840 f   GuSweepMTD.obj
 0001:0002e480       ?computeCapsule_CapsuleMTD@Gu@physx@@YA_NAEBVCapsule@12@0AEAUPxSweepHit@2@@Z 000000018002f480 f   GuSweepMTD.obj
 0001:0002e6c0       ?computeCapsule_HeightFieldMTD@Gu@physx@@YA_NAEBVPxHeightFieldGeometry@2@AEBVPxTransform@2@AEAVCapsuleV@12@M_NIAEAUPxSweepHit@2@@Z 000000018002f6c0 f   GuSweepMTD.obj
 0001:0002eed0       ?computeCapsule_TriangleMeshMTD@Gu@physx@@YA_NAEBVPxTriangleMeshGeometry@2@AEBVPxTransform@2@AEAVCapsuleV@12@M_NAEAUPxSweepHit@2@@Z 000000018002fed0 f   GuSweepMTD.obj
 0001:0002f770       ?computeConvex_HeightFieldMTD@Gu@physx@@YA_NAEBVPxHeightFieldGeometry@2@AEBVPxTransform@2@AEBVPxConvexMeshGeometry@2@1M_NIAEAUPxSweepHit@2@@Z 0000000180030770 f   GuSweepMTD.obj
 0001:00030ae0       ?computeConvex_TriangleMeshMTD@Gu@physx@@YA_NAEBVPxTriangleMeshGeometry@2@AEBVPxTransform@2@AEBVPxConvexMeshGeometry@2@1M_NAEAUPxSweepHit@2@@Z 0000000180031ae0 f   GuSweepMTD.obj
 0001:00031d10       ?computePlane_BoxMTD@Gu@physx@@YA_NAEBVPxPlane@2@AEBVBox@12@AEAUPxSweepHit@2@@Z 0000000180032d10 f   GuSweepMTD.obj
 0001:00032040       ?computePlane_CapsuleMTD@Gu@physx@@YA_NAEBVPxPlane@2@AEBVCapsule@12@AEAUPxSweepHit@2@@Z 0000000180033040 f   GuSweepMTD.obj
 0001:00032160       ?computePlane_ConvexMTD@Gu@physx@@YA_NAEBVPxPlane@2@AEBVPxConvexMeshGeometry@2@AEBVPxTransform@2@AEAUPxSweepHit@2@@Z 0000000180033160 f   GuSweepMTD.obj
 0001:00032cd0       ?computeSphere_CapsuleMTD@Gu@physx@@YA_NAEBVSphere@12@AEBVCapsule@12@AEAUPxSweepHit@2@@Z 0000000180033cd0 f   GuSweepMTD.obj
 0001:00032e80       ?computeSphere_SphereMTD@Gu@physx@@YA_NAEBVSphere@12@0AEAUPxSweepHit@2@@Z 0000000180033e80 f   GuSweepMTD.obj
 0001:00032f70       ?getInverse@PxMat33@physx@@QEBA?BV12@XZ 0000000180033f70 f i GuSweepMTD.obj
 0001:000331c0       ?growAndPushBack@?$Array@IV?$ReflectionAllocator@I@shdfnd@physx@@@shdfnd@physx@@IEAAAEAIAEBI@Z 00000001800341c0 f i GuSweepMTD.obj
 0001:00033290       ?init@FastVertex2ShapeScaling@Cm@physx@@QEAAXAEBVPxVec3@3@AEBVPxQuat@3@@Z 0000000180034290 f i GuSweepMTD.obj
 0001:00033670       ?onEvent@MidPhaseQueryLocalReport@@UEAA_NIPEAI@Z 0000000180034670 f i GuSweepMTD.obj
 0001:000336e0       ?processHit@MeshMTDGenerationCallback@@UEAA_NAEBUPxRaycastHit@physx@@AEBVPxVec3@3@11AEAMPEBI@Z 00000001800346e0 f i GuSweepMTD.obj
 0001:00033730       ?recreate@?$Array@IV?$ReflectionAllocator@I@shdfnd@physx@@@shdfnd@physx@@IEAAXI@Z 0000000180034730 f i GuSweepMTD.obj
 0001:000337f0       ??$gjkPenetration@U?$LocalConvex@VCapsuleV@Gu@physx@@@Gu@physx@@U?$LocalConvex@VConvexHullV@Gu@physx@@@23@@Gu@physx@@YA?AW4GjkStatus@01@AEBU?$LocalConvex@VCapsuleV@Gu@physx@@@01@AEBU?$LocalConvex@VConvexHullV@Gu@physx@@@01@AEBT__m128@@2_NPEIAE4AEAEAEAUGjkOutput@01@@Z 00000001800347f0 f i GuSweepSharedTests.obj
 0001:00034dc0       ??$gjkPenetration@U?$RelativeConvex@VBoxV@Gu@physx@@@Gu@physx@@U?$LocalConvex@VConvexHullV@Gu@physx@@@23@@Gu@physx@@YA?AW4GjkStatus@01@AEBU?$RelativeConvex@VBoxV@Gu@physx@@@01@AEBU?$LocalConvex@VConvexHullV@Gu@physx@@@01@AEBT__m128@@2_NPEIAE4AEAEAEAUGjkOutput@01@@Z 0000000180035dc0 f i GuSweepSharedTests.obj
 0001:000363b0       ??$gjkPenetration@U?$RelativeConvex@VConvexHullV@Gu@physx@@@Gu@physx@@U?$LocalConvex@VConvexHullV@Gu@physx@@@23@@Gu@physx@@YA?AW4GjkStatus@01@AEBU?$RelativeConvex@VConvexHullV@Gu@physx@@@01@AEBU?$LocalConvex@VConvexHullV@Gu@physx@@@01@AEBT__m128@@2_NPEIAE4AEAEAEAUGjkOutput@01@@Z 00000001800373b0 f i GuSweepSharedTests.obj
 0001:00037a10       ??$gjkRaycast@U?$LocalConvex@VCapsuleV@Gu@physx@@@Gu@physx@@U?$LocalConvex@VConvexHullV@Gu@physx@@@23@@Gu@physx@@YA_NAEBU?$LocalConvex@VCapsuleV@Gu@physx@@@01@AEBU?$LocalConvex@VConvexHullV@Gu@physx@@@01@AEBT__m128@@222AEAT4@33M@Z 0000000180038a10 f i GuSweepSharedTests.obj
 0001:00038760       ??$gjkRaycast@U?$RelativeConvex@VBoxV@Gu@physx@@@Gu@physx@@U?$LocalConvex@VConvexHullV@Gu@physx@@@23@@Gu@physx@@YA_NAEBU?$RelativeConvex@VBoxV@Gu@physx@@@01@AEBU?$LocalConvex@VConvexHullV@Gu@physx@@@01@AEBT__m128@@222AEAT4@33M@Z 0000000180039760 f i GuSweepSharedTests.obj
 0001:00039520       ??$gjkRaycast@U?$RelativeConvex@VConvexHullV@Gu@physx@@@Gu@physx@@U?$LocalConvex@VConvexHullV@Gu@physx@@@23@@Gu@physx@@YA_NAEBU?$RelativeConvex@VConvexHullV@Gu@physx@@@01@AEBU?$LocalConvex@VConvexHullV@Gu@physx@@@01@AEBT__m128@@222AEAT4@33M@Z 000000018003a520 f i GuSweepSharedTests.obj
 0001:0003a3b0       ??$gjkRaycastPenetration@U?$RelativeConvex@VConvexHullV@Gu@physx@@@Gu@physx@@U?$LocalConvex@VConvexHullV@Gu@physx@@@23@@Gu@physx@@YA_NAEBU?$RelativeConvex@VConvexHullV@Gu@physx@@@01@AEBU?$LocalConvex@VConvexHullV@Gu@physx@@@01@AEBT__m128@@222AEAT4@33M_N@Z 000000018003b3b0 f i GuSweepSharedTests.obj
 0001:0003afe0       ?sweepBox_ConvexGeom@@YA_NAEBVPxGeometry@physx@@AEBVPxTransform@2@AEBVPxBoxGeometry@2@1AEBVBox@Gu@2@AEBVPxVec3@2@MAEAUPxSweepHit@2@V?$PxFlags@W4Enum@PxHitFlag@physx@@G@2@M@Z 000000018003bfe0 f   GuSweepSharedTests.obj
 0001:0003be00       ?sweepBox_PlaneGeom@@YA_NAEBVPxGeometry@physx@@AEBVPxTransform@2@AEBVPxBoxGeometry@2@1AEBVBox@Gu@2@AEBVPxVec3@2@MAEAUPxSweepHit@2@V?$PxFlags@W4Enum@PxHitFlag@physx@@G@2@M@Z 000000018003ce00 f   GuSweepSharedTests.obj
 0001:0003c2a0       ?sweepCapsuleTriangles@Gu@physx@@YA_NIPEBVPxTriangle@2@_NAEBVPxCapsuleGeometry@2@AEBVPxTransform@2@AEBVPxVec3@2@MAEAUPxSweepHit@2@PEBIMV?$PxFlags@W4Enum@PxHitFlag@physx@@G@2@@Z 000000018003d2a0 f   GuSweepSharedTests.obj
 0001:0003c490       ?sweepCapsule_CapsuleGeom@@YA_NAEBVPxGeometry@physx@@AEBVPxTransform@2@AEBVPxCapsuleGeometry@2@1AEBVCapsule@Gu@2@AEBVPxVec3@2@MAEAUPxSweepHit@2@V?$PxFlags@W4Enum@PxHitFlag@physx@@G@2@M@Z 000000018003d490 f   GuSweepSharedTests.obj
 0001:0003c670       ?sweepCapsule_ConvexGeom@@YA_NAEBVPxGeometry@physx@@AEBVPxTransform@2@AEBVPxCapsuleGeometry@2@1AEBVCapsule@Gu@2@AEBVPxVec3@2@MAEAUPxSweepHit@2@V?$PxFlags@W4Enum@PxHitFlag@physx@@G@2@M@Z 000000018003d670 f   GuSweepSharedTests.obj
 0001:0003d400       ?sweepCapsule_PlaneGeom@@YA_NAEBVPxGeometry@physx@@AEBVPxTransform@2@AEBVPxCapsuleGeometry@2@1AEBVCapsule@Gu@2@AEBVPxVec3@2@MAEAUPxSweepHit@2@V?$PxFlags@W4Enum@PxHitFlag@physx@@G@2@M@Z 000000018003e400 f   GuSweepSharedTests.obj
 0001:0003d6f0       ?sweepCapsule_SphereGeom@@YA_NAEBVPxGeometry@physx@@AEBVPxTransform@2@AEBVPxCapsuleGeometry@2@1AEBVCapsule@Gu@2@AEBVPxVec3@2@MAEAUPxSweepHit@2@V?$PxFlags@W4Enum@PxHitFlag@physx@@G@2@M@Z 000000018003e6f0 f   GuSweepSharedTests.obj
 0001:0003d880       ?sweepConvex_BoxGeom@@YA_NAEBVPxGeometry@physx@@AEBVPxTransform@2@AEBVPxConvexMeshGeometry@2@1AEBVPxVec3@2@MAEAUPxSweepHit@2@V?$PxFlags@W4Enum@PxHitFlag@physx@@G@2@M@Z 000000018003e880 f   GuSweepSharedTests.obj
 0001:0003da90       ?sweepConvex_CapsuleGeom@@YA_NAEBVPxGeometry@physx@@AEBVPxTransform@2@AEBVPxConvexMeshGeometry@2@1AEBVPxVec3@2@MAEAUPxSweepHit@2@V?$PxFlags@W4Enum@PxHitFlag@physx@@G@2@M@Z 000000018003ea90 f   GuSweepSharedTests.obj
 0001:0003dcb0       ?sweepConvex_ConvexGeom@@YA_NAEBVPxGeometry@physx@@AEBVPxTransform@2@AEBVPxConvexMeshGeometry@2@1AEBVPxVec3@2@MAEAUPxSweepHit@2@V?$PxFlags@W4Enum@PxHitFlag@physx@@G@2@M@Z 000000018003ecb0 f   GuSweepSharedTests.obj
 0001:0003ec50       ?sweepConvex_PlaneGeom@@YA_NAEBVPxGeometry@physx@@AEBVPxTransform@2@AEBVPxConvexMeshGeometry@2@1AEBVPxVec3@2@MAEAUPxSweepHit@2@V?$PxFlags@W4Enum@PxHitFlag@physx@@G@2@M@Z 000000018003fc50 f   GuSweepSharedTests.obj
 0001:0003f0a0       ?sweepConvex_SphereGeom@@YA_NAEBVPxGeometry@physx@@AEBVPxTransform@2@AEBVPxConvexMeshGeometry@2@1AEBVPxVec3@2@MAEAUPxSweepHit@2@V?$PxFlags@W4Enum@PxHitFlag@physx@@G@2@M@Z 00000001800400a0 f   GuSweepSharedTests.obj
 0001:0003fcc0       ?sweepCapsule_BoxGeom@@YA_NAEBVPxGeometry@physx@@AEBVPxTransform@2@AEBVPxCapsuleGeometry@2@1AEBVCapsule@Gu@2@AEBVPxVec3@2@MAEAUPxSweepHit@2@V?$PxFlags@W4Enum@PxHitFlag@physx@@G@2@M@Z 0000000180040cc0 f   GuSweepTests.obj
 0001:000405b0       ?sweepBox_SphereGeom@@YA_NAEBVPxGeometry@physx@@AEBVPxTransform@2@AEBVPxBoxGeometry@2@1AEBVBox@Gu@2@AEBVPxVec3@2@MAEAUPxSweepHit@2@V?$PxFlags@W4Enum@PxHitFlag@physx@@G@2@M@Z 00000001800415b0 f   GuSweepTests.obj
 0001:00040c80       ?sweepBox_CapsuleGeom@@YA_NAEBVPxGeometry@physx@@AEBVPxTransform@2@AEBVPxBoxGeometry@2@1AEBVBox@Gu@2@AEBVPxVec3@2@MAEAUPxSweepHit@2@V?$PxFlags@W4Enum@PxHitFlag@physx@@G@2@M@Z 0000000180041c80 f   GuSweepTests.obj
 0001:00041580       ?sweepBox_BoxGeom@@YA_NAEBVPxGeometry@physx@@AEBVPxTransform@2@AEBVPxBoxGeometry@2@1AEBVBox@Gu@2@AEBVPxVec3@2@MAEAUPxSweepHit@2@V?$PxFlags@W4Enum@PxHitFlag@physx@@G@2@M@Z 0000000180042580 f   GuSweepTests.obj
 0001:00041f20       ??$gjkPenetration@U?$LocalConvex@VCapsuleV@Gu@physx@@@Gu@physx@@U?$LocalConvex@VBoxV@Gu@physx@@@23@@Gu@physx@@YA?AW4GjkStatus@01@AEBU?$LocalConvex@VCapsuleV@Gu@physx@@@01@AEBU?$LocalConvex@VBoxV@Gu@physx@@@01@AEBT__m128@@2_NPEIAE4AEAEAEAUGjkOutput@01@@Z 0000000180042f20 f i GuSweepTests.obj
 0001:00043440       ??$gjkPenetration@U?$RelativeConvex@VBoxV@Gu@physx@@@Gu@physx@@U?$LocalConvex@VBoxV@Gu@physx@@@23@@Gu@physx@@YA?AW4GjkStatus@01@AEBU?$RelativeConvex@VBoxV@Gu@physx@@@01@AEBU?$LocalConvex@VBoxV@Gu@physx@@@01@AEBT__m128@@2_NPEIAE4AEAEAEAUGjkOutput@01@@Z 0000000180044440 f i GuSweepTests.obj
 0001:00044980       ??$gjkRaycast@U?$LocalConvex@VCapsuleV@Gu@physx@@@Gu@physx@@U?$LocalConvex@VBoxV@Gu@physx@@@23@@Gu@physx@@YA_NAEBU?$LocalConvex@VCapsuleV@Gu@physx@@@01@AEBU?$LocalConvex@VBoxV@Gu@physx@@@01@AEBT__m128@@222AEAT4@33M@Z 0000000180045980 f i GuSweepTests.obj
 0001:00045560       ??$gjkRaycast@U?$LocalConvex@VTriangleV@Gu@physx@@@Gu@physx@@U?$LocalConvex@VBoxV@Gu@physx@@@23@@Gu@physx@@YA_NAEBU?$LocalConvex@VTriangleV@Gu@physx@@@01@AEBU?$LocalConvex@VBoxV@Gu@physx@@@01@AEBT__m128@@222AEAT4@33M@Z 0000000180046560 f i GuSweepTests.obj
 0001:000461b0       ??$gjkRaycast@U?$RelativeConvex@VBoxV@Gu@physx@@@Gu@physx@@U?$LocalConvex@VBoxV@Gu@physx@@@23@@Gu@physx@@YA_NAEBU?$RelativeConvex@VBoxV@Gu@physx@@@01@AEBU?$LocalConvex@VBoxV@Gu@physx@@@01@AEBT__m128@@222AEAT4@33M@Z 00000001800471b0 f i GuSweepTests.obj
 0001:00046df0       ?getSweepFuncTable@Gu@physx@@YAAEBUGeomSweepFuncs@12@XZ 0000000180047df0 f   GuSweepTests.obj
 0001:00046e00       ?getSweepMargin@?$LocalConvex@VTriangleV@Gu@physx@@@Gu@physx@@UEBA?AT__m128@@XZ 0000000180047e00 f i GuSweepTests.obj
 0001:00046e00       ?getSweepMargin@?$RelativeConvex@VTriangleV@Gu@physx@@@Gu@physx@@UEBA?AT__m128@@XZ 0000000180047e00 f i GuCCDSweepPrimitives.obj
 0001:00046e10       ?registerHeightFields_Sweeps@@YAXXZ 0000000180047e10 f   GuSweepTests.obj
 0001:00046e50       ?support@?$LocalConvex@VBoxV@Gu@physx@@@Gu@physx@@UEBA?AT__m128@@AEBT4@@Z 0000000180047e50 f i GuSweepTests.obj
 0001:00046e80       ?support@?$LocalConvex@VBoxV@Gu@physx@@@Gu@physx@@UEBA?AT__m128@@AEBT4@AEAH@Z 0000000180047e80 f i GuSweepTests.obj
 0001:00046ec0       ?support@?$LocalConvex@VTriangleV@Gu@physx@@@Gu@physx@@UEBA?AT__m128@@AEBT4@@Z 0000000180047ec0 f i GuSweepTests.obj
 0001:00046f50       ?support@?$LocalConvex@VTriangleV@Gu@physx@@@Gu@physx@@UEBA?AT__m128@@AEBT4@AEAH@Z 0000000180047f50 f i GuSweepTests.obj
 0001:00047030       ?supportPoint@?$LocalConvex@VBoxV@Gu@physx@@@Gu@physx@@UEBA?AT__m128@@H@Z 0000000180048030 f i GuSweepTests.obj
 0001:00047070       ?supportPoint@?$LocalConvex@VTriangleV@Gu@physx@@@Gu@physx@@UEBA?AT__m128@@H@Z 0000000180048070 f i GuSweepTests.obj
 0001:00047090       ?sweepBoxTriangles@Gu@physx@@YA_NIPEBVPxTriangle@2@_NAEBVPxBoxGeometry@2@AEBVPxTransform@2@AEBVPxVec3@2@MAEAUPxSweepHit@2@PEBIMV?$PxFlags@W4Enum@PxHitFlag@physx@@G@2@@Z 0000000180048090 f   GuSweepTests.obj
 0001:00047b10       ??$?_UV?$ReflectionAllocator@VAABBTreeBuildNode@Gu@physx@@@shdfnd@physx@@@UserAllocated@shdfnd@physx@@SAPEAX_KV?$ReflectionAllocator@VAABBTreeBuildNode@Gu@physx@@@12@PEBDH@Z 0000000180048b10 f i GuAABBTreeBuild.obj
 0001:00047bb0       ??$copy@V?$ReflectionAllocator@USlab@NodeAllocator@Gu@physx@@@shdfnd@physx@@@?$Array@USlab@NodeAllocator@Gu@physx@@V?$ReflectionAllocator@USlab@NodeAllocator@Gu@physx@@@shdfnd@4@@shdfnd@physx@@IEAAXAEBV012@@Z 0000000180048bb0 f i GuAABBTreeBuild.obj
 0001:00047c30       ??4AABBTreeBuildNode@Gu@physx@@QEAAAEAV012@AEBV012@@Z 0000000180048c30 f i GuAABBTreeBuild.obj
 0001:00047c30       ??0AABBTreeBuildNode@Gu@physx@@QEAA@AEBV012@@Z 0000000180048c30 f i GuAABBTreeBuild.obj
 0001:00047c70       ??0AABBTreeBuildParams@Gu@physx@@QEAA@IIPEBVPxBounds3@2@@Z 0000000180048c70 f i GuAABBTreeBuild.obj
 0001:00047c90       ??0BuildStats@Gu@physx@@QEAA@XZ 0000000180048c90 f i GuAABBTreeBuild.obj
 0001:00047ca0       ??0NodeAllocator@Gu@physx@@QEAA@AEBV012@@Z 0000000180048ca0 f i GuAABBTreeBuild.obj
 0001:00047ce0       ??0NodeAllocator@Gu@physx@@QEAA@XZ 0000000180048ce0 f   GuAABBTreeBuild.obj
 0001:00047d00       ?reset@AABBTreeBuildParams@Gu@physx@@QEAAXXZ 0000000180048d00 f i GuAABBTreeBuild.obj
 0001:00047d00       ??1AABBTreeBuildParams@Gu@physx@@QEAA@XZ 0000000180048d00 f i GuAABBTreeBuild.obj
 0001:00047d60       ??1NodeAllocator@Gu@physx@@QEAA@XZ 0000000180048d60 f   GuAABBTreeBuild.obj
 0001:00047db0       ??4AABBTreeBuildParams@Gu@physx@@QEAAAEAV012@AEBV012@@Z 0000000180048db0 f i GuAABBTreeBuild.obj
 0001:00047dd0       ??4BuildStats@Gu@physx@@QEAAAEAU012@$$QEAU012@@Z 0000000180048dd0 f i GuAABBTreeBuild.obj
 0001:00047de0       ??4BuildStats@Gu@physx@@QEAAAEAU012@AEBU012@@Z 0000000180048de0 f i GuAABBTreeBuild.obj
 0001:00047df0       ??4NodeAllocator@Gu@physx@@QEAAAEAV012@AEBV012@@Z 0000000180048df0 f i GuAABBTreeBuild.obj
 0001:00047ea0       ??_FAABBTreeBuildParams@Gu@physx@@QEAAXXZ 0000000180048ea0 f i GuAABBTreeBuild.obj
 0001:00047ec0       ?_buildHierarchy@AABBTreeBuildNode@Gu@physx@@QEAAXAEAVAABBTreeBuildParams@23@AEAUBuildStats@23@AEAVNodeAllocator@23@QEAI@Z 0000000180048ec0 f   GuAABBTreeBuild.obj
 0001:00047f50       ?allocate@?$Array@USlab@NodeAllocator@Gu@physx@@V?$ReflectionAllocator@USlab@NodeAllocator@Gu@physx@@@shdfnd@4@@shdfnd@physx@@IEAAPEAUSlab@NodeAllocator@Gu@3@I@Z 0000000180048f50 f i GuAABBTreeBuild.obj
 0001:00047ff0       ?buildAABBTree@Gu@physx@@YA_NAEAVAABBTreeBuildParams@12@AEAVNodeAllocator@12@AEAUBuildStats@12@AEAPEAI@Z 0000000180048ff0 f   GuAABBTreeBuild.obj
 0001:00048050       ?getBiNode@NodeAllocator@Gu@physx@@QEAAPEAVAABBTreeBuildNode@23@XZ 0000000180049050 f   GuAABBTreeBuild.obj
 0001:00048180       ?getNbPrimitives@AABBTreeBuildNode@Gu@physx@@QEBAIXZ 0000000180049180 f i GuAABBTreeBuild.obj
 0001:00048180       ?getNbTriangles@TriangleMesh@Gu@physx@@UEBAIXZ 0000000180049180 f i GuTriangleMesh.obj
 0001:00048180       ?getNbRuntimePrimitives@AABBTreeBuildNode@Gu@physx@@QEBAIXZ 0000000180049180 f i GuAABBTreeBuild.obj
 0001:00048190       ?getNeg@AABBTreeBuildNode@Gu@physx@@QEBAPEBV123@XZ 0000000180049190 f i GuAABBTreeBuild.obj
 0001:000481b0       ?getPrimitives@AABBTreeBuildNode@Gu@physx@@QEBAPEBIPEBI@Z 00000001800491b0 f i GuAABBTreeBuild.obj
 0001:000481b0       ?getPrimitives@AABBTreeBuildNode@Gu@physx@@QEAAPEAIPEAI@Z 00000001800491b0 f i GuAABBTreeBuild.obj
 0001:000481c0       ?growAndPushBack@?$Array@USlab@NodeAllocator@Gu@physx@@V?$ReflectionAllocator@USlab@NodeAllocator@Gu@physx@@@shdfnd@4@@shdfnd@physx@@IEAAAEAUSlab@NodeAllocator@Gu@3@AEBU4563@@Z 00000001800491c0 f i GuAABBTreeBuild.obj
 0001:00048280       ?increaseCount@BuildStats@Gu@physx@@QEAAXI@Z 0000000180049280 f i GuAABBTreeBuild.obj
 0001:00048290       ?init@NodeAllocator@Gu@physx@@QEAAXII@Z 0000000180049290 f   GuAABBTreeBuild.obj
 0001:000483a0       ?initAABBTreeBuild@Gu@physx@@YA_NAEAVAABBTreeBuildParams@12@AEAVNodeAllocator@12@AEAUBuildStats@12@AEAPEAI@Z 00000001800493a0 f   GuAABBTreeBuild.obj
 0001:000485b0       ?isLeaf@AABBTreeBuildNode@Gu@physx@@QEBA_NXZ 00000001800495b0 f i GuAABBTreeBuild.obj
 0001:000485c0       ?recreate@?$Array@USlab@NodeAllocator@Gu@physx@@V?$ReflectionAllocator@USlab@NodeAllocator@Gu@physx@@@shdfnd@4@@shdfnd@physx@@IEAAXI@Z 00000001800495c0 f i GuAABBTreeBuild.obj
 0001:00048670       ?release@NodeAllocator@Gu@physx@@QEAAXXZ 0000000180049670 f   GuAABBTreeBuild.obj
 0001:00048720       ?reset@BuildStats@Gu@physx@@QEAAXXZ 0000000180049720 f i GuAABBTreeBuild.obj
 0001:00048730       ?resize@?$Array@USlab@NodeAllocator@Gu@physx@@V?$ReflectionAllocator@USlab@NodeAllocator@Gu@physx@@@shdfnd@4@@shdfnd@physx@@QEAAXIAEBUSlab@NodeAllocator@Gu@3@@Z 0000000180049730 f i GuAABBTreeBuild.obj
 0001:000487b0       ?setCount@BuildStats@Gu@physx@@QEAAXI@Z 00000001800497b0 f i GuAABBTreeBuild.obj
 0001:000487c0       ?setNbRunTimePrimitives@AABBTreeBuildNode@Gu@physx@@QEAAXI@Z 00000001800497c0 f i GuAABBTreeBuild.obj
 0001:00048930       ?subdivide@AABBTreeBuildNode@Gu@physx@@QEAAXAEBVAABBTreeBuildParams@23@AEAUBuildStats@23@AEAVNodeAllocator@23@QEAI@Z 0000000180049930 f   GuAABBTreeBuild.obj
 0001:00048b10       ??0BVHStructure@Gu@physx@@QEAA@PEAVGuMeshFactory@2@@Z 0000000180049b10 f   GuBVHStructure.obj
 0001:00048b70       ??0BVHStructure@Gu@physx@@QEAA@PEAVGuMeshFactory@2@AEAUBVHStructureData@12@@Z 0000000180049b70 f   GuBVHStructure.obj
 0001:00048be0       ??R?$AABBTreeOverlap@UAABBAABBTest@Gu@physx@@UBVHTree@23@UBVHNode@23@IUBVHCallback@23@@Gu@physx@@QEAA_NPEBIPEBVPxBounds3@2@AEBUBVHTree@12@AEBUAABBAABBTest@12@AEAUBVHCallback@12@@Z 0000000180049be0 f i GuBVHStructure.obj
 0001:00048e60       ??R?$AABBTreeRaycast@$00UBVHTree@Gu@physx@@UBVHNode@23@IUBVHCallback@23@@Gu@physx@@QEAA_NPEBIPEBVPxBounds3@2@AEBUBVHTree@12@AEBVPxVec3@2@3AEAM3AEAUBVHCallback@12@@Z 0000000180049e60 f i GuBVHStructure.obj
 0001:000494f0       ??R?$AABBTreeRaycast@$0A@UBVHTree@Gu@physx@@UBVHNode@23@IUBVHCallback@23@@Gu@physx@@QEAA_NPEBIPEBVPxBounds3@2@AEBUBVHTree@12@AEBVPxVec3@2@3AEAM3AEAUBVHCallback@12@@Z 000000018004a4f0 f i GuBVHStructure.obj
 0001:00049b38       ??_EBVHStructure@Gu@physx@@WBA@EAAPEAXI@Z 000000018004ab38 f i GuBVHStructure.obj
 0001:00049b50       ??_EBVHStructure@Gu@physx@@UEAAPEAXI@Z 000000018004ab50 f i GuBVHStructure.obj
 0001:00049b50       ??_GBVHStructure@Gu@physx@@UEAAPEAXI@Z 000000018004ab50 f i GuBVHStructure.obj
 0001:00049bb0       ??_GRefCountable@Cm@physx@@UEAAPEAXI@Z 000000018004abb0 f i GuBVHStructure.obj
 0001:00049bb0       ??_ERefCountable@Cm@physx@@UEAAPEAXI@Z 000000018004abb0 f i GuBVHStructure.obj
 0001:00049be0       ?allocate@?$Array@PEBUBVHNode@Gu@physx@@V?$InlineAllocator@$0IAA@V?$ReflectionAllocator@PEBUBVHNode@Gu@physx@@@shdfnd@physx@@@shdfnd@3@@shdfnd@physx@@IEAAPEAPEBUBVHNode@Gu@3@I@Z 000000018004abe0 f i GuBVHStructure.obj
 0001:00049ca0       ?createVolumes@BVHStructure@Gu@physx@@AEBAXXZ 000000018004aca0 f   GuBVHStructure.obj
 0001:00049d30       ?getTriangles@TriangleMesh@Gu@physx@@UEBAPEBXXZ 000000018004ad30 f i GuTriangleMesh.obj
 0001:00049d30       ?getBounds@BVHStructure@Gu@physx@@UEBAPEBVPxBounds3@3@XZ 000000018004ad30 f i GuBVHStructure.obj
 0001:00049d40       ?getConcreteTypeName@PxBVHStructure@physx@@UEBAPEBDXZ 000000018004ad40 f i GuBVHStructure.obj
 0001:00049d50       ?getNbBounds@BVHStructure@Gu@physx@@UEBAIXZ 000000018004ad50 f i GuBVHStructure.obj
 0001:00049d60       ?isKindOf@PxBVHStructure@physx@@MEBA_NPEBD@Z 000000018004ad60 f i GuBVHStructure.obj
 0001:00049db0       ?load@BVHStructure@Gu@physx@@QEAA_NAEAVPxInputStream@3@@Z 000000018004adb0 f   GuBVHStructure.obj
 0001:00049f80       ?onRefCountZero@BVHStructure@Gu@physx@@UEAAXXZ 000000018004af80 f   GuBVHStructure.obj
 0001:0004a0b0       ?onRefCountZero@RefCountable@Cm@physx@@UEAAXXZ 000000018004b0b0 f i GuBVHStructure.obj
 0001:0004a0d0       ?overlap@BVHStructure@Gu@physx@@UEBAIAEBVPxBounds3@3@IPEIAI@Z 000000018004b0d0 f   GuBVHStructure.obj
 0001:0004a210       ?raycast@BVHStructure@Gu@physx@@UEBAIAEBVPxVec3@3@0MIPEIAI@Z 000000018004b210 f   GuBVHStructure.obj
 0001:0004a2e0       ?recreate@?$Array@PEBUBVHNode@Gu@physx@@V?$InlineAllocator@$0IAA@V?$ReflectionAllocator@PEBUBVHNode@Gu@physx@@@shdfnd@physx@@@shdfnd@3@@shdfnd@physx@@IEAAXI@Z 000000018004b2e0 f i GuBVHStructure.obj
 0001:0004a390       ?release@BVHStructure@Gu@physx@@UEAAXXZ 000000018004b390 f   GuBVHStructure.obj
 0001:0004a390       ?release@TriangleMesh@Gu@physx@@UEAAXXZ 000000018004b390 f   GuTriangleMesh.obj
 0001:0004a390       ?release@ConvexMesh@Gu@physx@@UEAAXXZ 000000018004b390 f   GuConvexMesh.obj
 0001:0004a390       ?release@HeightField@Gu@physx@@UEAAXXZ 000000018004b390 f   GuHeightField.obj
 0001:0004a3c0       ?resizeUninitialized@?$Array@PEBUBVHNode@Gu@physx@@V?$InlineAllocator@$0IAA@V?$ReflectionAllocator@PEBUBVHNode@Gu@physx@@@shdfnd@physx@@@shdfnd@3@@shdfnd@physx@@QEAAXI@Z 000000018004b3c0 f i GuBVHStructure.obj
 0001:0004a410       ?sweep@BVHStructure@Gu@physx@@UEBAIAEBVPxBounds3@3@AEBVPxVec3@3@MIPEIAI@Z 000000018004b410 f   GuBVHStructure.obj
 0001:0004a600       ?SweepAnyShapeHeightfield@Gu@physx@@YAMAEBUCCDShape@12@0AEBVPxTransform@2@111MAEAVPxVec3@2@2MAEAIM@Z 000000018004b600 f   GuCCDSweepConvexMesh.obj
 0001:0004b720       ?SweepAnyShapeMesh@Gu@physx@@YAMAEBUCCDShape@12@0AEBVPxTransform@2@111MAEAVPxVec3@2@2MAEAIM@Z 000000018004c720 f   GuCCDSweepConvexMesh.obj
 0001:0004cdf0       ?SweepEstimateAnyShapeHeightfield@Gu@physx@@YAMAEBUCCDShape@12@0AEBVPxTransform@2@111MM@Z 000000018004ddf0 f   GuCCDSweepConvexMesh.obj
 0001:0004d650       ?SweepEstimateAnyShapeMesh@Gu@physx@@YAMAEBUCCDShape@12@0AEBVPxTransform@2@111MM@Z 000000018004e650 f   GuCCDSweepConvexMesh.obj
 0001:0004e4a0       ?growAndPushBack@?$Array@IV?$InlineAllocator@$0BAA@V?$ReflectionAllocator@I@shdfnd@physx@@@shdfnd@physx@@@shdfnd@physx@@IEAAAEAIAEBI@Z 000000018004f4a0 f i GuCCDSweepConvexMesh.obj
 0001:0004ebd0       ?recreate@?$Array@IV?$InlineAllocator@$0BAA@V?$ReflectionAllocator@I@shdfnd@physx@@@shdfnd@physx@@@shdfnd@physx@@IEAAXI@Z 000000018004fbd0 f i GuCCDSweepConvexMesh.obj
 0001:0004ecb0       ?resize@?$Array@IV?$InlineAllocator@$0BAA@V?$ReflectionAllocator@I@shdfnd@physx@@@shdfnd@physx@@@shdfnd@physx@@QEAAXIAEBI@Z 000000018004fcb0 f i GuCCDSweepConvexMesh.obj
 0001:0004ed80       ?resize@?$Array@IV?$ReflectionAllocator@I@shdfnd@physx@@@shdfnd@physx@@QEAAXIAEBI@Z 000000018004fd80 f i GuCCDSweepConvexMesh.obj
 0001:0004ee40       ?transformBoxOrthonormal@physx@@YA?AVBox@Gu@1@AEBV231@AEBVPxTransform@1@@Z 000000018004fe40 f i GuCCDSweepConvexMesh.obj
 0001:0004f2d0       ?UnimplementedSweep@Gu@physx@@YAMAEBUCCDShape@12@0AEBVPxTransform@2@111MAEAVPxVec3@2@2MAEAIM@Z 00000001800502d0 f   GuCCDSweepPrimitives.obj
 0001:0004f2e0       ??$SweepGeomGeom@VCapsuleV@Gu@physx@@V123@@Gu@physx@@YAMAEBUCCDShape@01@0AEBVPxTransform@1@111MAEAVPxVec3@1@2MAEAIM@Z 00000001800502e0 f i GuCCDSweepPrimitives.obj
 0001:0004f410       ??$SweepGeomGeom@VCapsuleV@Gu@physx@@VBoxV@23@@Gu@physx@@YAMAEBUCCDShape@01@0AEBVPxTransform@1@111MAEAVPxVec3@1@2MAEAIM@Z 0000000180050410 f i GuCCDSweepPrimitives.obj
 0001:0004f570       ??$SweepGeomGeom@VCapsuleV@Gu@physx@@VConvexHullV@23@@Gu@physx@@YAMAEBUCCDShape@01@0AEBVPxTransform@1@111MAEAVPxVec3@1@2MAEAIM@Z 0000000180050570 f i GuCCDSweepPrimitives.obj
 0001:0004fad0       ??$SweepGeomGeom@VBoxV@Gu@physx@@V123@@Gu@physx@@YAMAEBUCCDShape@01@0AEBVPxTransform@1@111MAEAVPxVec3@1@2MAEAIM@Z 0000000180050ad0 f i GuCCDSweepPrimitives.obj
 0001:0004fc60       ??$SweepGeomGeom@VBoxV@Gu@physx@@VConvexHullV@23@@Gu@physx@@YAMAEBUCCDShape@01@0AEBVPxTransform@1@111MAEAVPxVec3@1@2MAEAIM@Z 0000000180050c60 f i GuCCDSweepPrimitives.obj
 0001:000501e0       ??$SweepGeomGeom@VConvexHullV@Gu@physx@@V123@@Gu@physx@@YAMAEBUCCDShape@01@0AEBVPxTransform@1@111MAEAVPxVec3@1@2MAEAIM@Z 00000001800511e0 f i GuCCDSweepPrimitives.obj
 0001:00050b00       ?UnimplementedTriangleSweep@Gu@physx@@YAMAEBVGeometryUnion@12@0AEBVPxTransform@2@111MAEAVPxVec3@2@2AEBVFastVertex2ShapeScaling@Cm@2@AEAVTriangleV@12@M@Z 0000000180051b00 f   GuCCDSweepPrimitives.obj
 0001:00050b10       ??$SweepGeomTriangles@VCapsuleV@Gu@physx@@@Gu@physx@@YAMAEBVGeometryUnion@01@0AEBVPxTransform@1@111MAEAVPxVec3@1@2AEBVFastVertex2ShapeScaling@Cm@1@AEAVTriangleV@01@M@Z 0000000180051b10 f i GuCCDSweepPrimitives.obj
 0001:00050be0       ??$SweepGeomTriangles@VBoxV@Gu@physx@@@Gu@physx@@YAMAEBVGeometryUnion@01@0AEBVPxTransform@1@111MAEAVPxVec3@1@2AEBVFastVertex2ShapeScaling@Cm@1@AEAVTriangleV@01@M@Z 0000000180051be0 f i GuCCDSweepPrimitives.obj
 0001:00050ce0       ??$SweepGeomTriangles@VConvexHullV@Gu@physx@@@Gu@physx@@YAMAEBVGeometryUnion@01@0AEBVPxTransform@1@111MAEAVPxVec3@1@2AEBVFastVertex2ShapeScaling@Cm@1@AEAVTriangleV@01@M@Z 0000000180051ce0 f i GuCCDSweepPrimitives.obj
 0001:000511f0       ?supportPoint@?$RelativeConvex@VCapsuleV@Gu@physx@@@Gu@physx@@UEBA?AT__m128@@H@Z 00000001800521f0 f i GuCCDSweepPrimitives.obj
 0001:00051250       ?support@?$RelativeConvex@VCapsuleV@Gu@physx@@@Gu@physx@@UEBA?AT__m128@@AEBT4@@Z 0000000180052250 f i GuCCDSweepPrimitives.obj
 0001:00051300       ?support@?$RelativeConvex@VCapsuleV@Gu@physx@@@Gu@physx@@UEBA?AT__m128@@AEBT4@AEAH@Z 0000000180052300 f i GuCCDSweepPrimitives.obj
 0001:000513c0       ?supportPoint@?$RelativeConvex@VTriangleV@Gu@physx@@@Gu@physx@@UEBA?AT__m128@@H@Z 00000001800523c0 f i GuCCDSweepPrimitives.obj
 0001:00051410       ?support@?$RelativeConvex@VTriangleV@Gu@physx@@@Gu@physx@@UEBA?AT__m128@@AEBT4@@Z 0000000180052410 f i GuCCDSweepPrimitives.obj
 0001:00051510       ?support@?$RelativeConvex@VTriangleV@Gu@physx@@@Gu@physx@@UEBA?AT__m128@@AEBT4@AEAH@Z 0000000180052510 f i GuCCDSweepPrimitives.obj
 0001:00055430       ??$gjkPenetration@U?$RelativeConvex@VCapsuleV@Gu@physx@@@Gu@physx@@U?$LocalConvex@VBoxV@Gu@physx@@@23@@Gu@physx@@YA?AW4GjkStatus@01@AEBU?$RelativeConvex@VCapsuleV@Gu@physx@@@01@AEBU?$LocalConvex@VBoxV@Gu@physx@@@01@AEBT__m128@@2_NPEIAE4AEAEAEAUGjkOutput@01@@Z 0000000180056430 f i GuCCDSweepPrimitives.obj
 0001:000569c0       ??$gjkPenetration@U?$RelativeConvex@VCapsuleV@Gu@physx@@@Gu@physx@@U?$LocalConvex@VCapsuleV@Gu@physx@@@23@@Gu@physx@@YA?AW4GjkStatus@01@AEBU?$RelativeConvex@VCapsuleV@Gu@physx@@@01@AEBU?$LocalConvex@VCapsuleV@Gu@physx@@@01@AEBT__m128@@2_NPEIAE4AEAEAEAUGjkOutput@01@@Z 00000001800579c0 f i GuCCDSweepPrimitives.obj
 0001:00057f50       ??$gjkPenetration@U?$RelativeConvex@VCapsuleV@Gu@physx@@@Gu@physx@@U?$LocalConvex@VConvexHullV@Gu@physx@@@23@@Gu@physx@@YA?AW4GjkStatus@01@AEBU?$RelativeConvex@VCapsuleV@Gu@physx@@@01@AEBU?$LocalConvex@VConvexHullV@Gu@physx@@@01@AEBT__m128@@2_NPEIAE4AEAEAEAUGjkOutput@01@@Z 0000000180058f50 f i GuCCDSweepPrimitives.obj
 0001:00059560       ??$gjkPenetration@U?$RelativeConvex@VTriangleV@Gu@physx@@@Gu@physx@@U?$LocalConvex@VBoxV@Gu@physx@@@23@@Gu@physx@@YA?AW4GjkStatus@01@AEBU?$RelativeConvex@VTriangleV@Gu@physx@@@01@AEBU?$LocalConvex@VBoxV@Gu@physx@@@01@AEBT__m128@@2_NPEIAE4AEAEAEAUGjkOutput@01@@Z 000000018005a560 f i GuCCDSweepPrimitives.obj
 0001:0005aaf0       ??$gjkPenetration@U?$RelativeConvex@VTriangleV@Gu@physx@@@Gu@physx@@U?$LocalConvex@VCapsuleV@Gu@physx@@@23@@Gu@physx@@YA?AW4GjkStatus@01@AEBU?$RelativeConvex@VTriangleV@Gu@physx@@@01@AEBU?$LocalConvex@VCapsuleV@Gu@physx@@@01@AEBT__m128@@2_NPEIAE4AEAEAEAUGjkOutput@01@@Z 000000018005baf0 f i GuCCDSweepPrimitives.obj
 0001:0005c0a0       ??$gjkPenetration@U?$RelativeConvex@VTriangleV@Gu@physx@@@Gu@physx@@U?$LocalConvex@VConvexHullV@Gu@physx@@@23@@Gu@physx@@YA?AW4GjkStatus@01@AEBU?$RelativeConvex@VTriangleV@Gu@physx@@@01@AEBU?$LocalConvex@VConvexHullV@Gu@physx@@@01@AEBT__m128@@2_NPEIAE4AEAEAEAUGjkOutput@01@@Z 000000018005d0a0 f i GuCCDSweepPrimitives.obj
 0001:0005d6d0       ??$gjkRaycast@U?$RelativeConvex@VCapsuleV@Gu@physx@@@Gu@physx@@U?$LocalConvex@VBoxV@Gu@physx@@@23@@Gu@physx@@YA_NAEBU?$RelativeConvex@VCapsuleV@Gu@physx@@@01@AEBU?$LocalConvex@VBoxV@Gu@physx@@@01@AEBT__m128@@222AEAT4@33M@Z 000000018005e6d0 f i GuCCDSweepPrimitives.obj
 0001:0005e360       ??$gjkRaycast@U?$RelativeConvex@VCapsuleV@Gu@physx@@@Gu@physx@@U?$LocalConvex@VCapsuleV@Gu@physx@@@23@@Gu@physx@@YA_NAEBU?$RelativeConvex@VCapsuleV@Gu@physx@@@01@AEBU?$LocalConvex@VCapsuleV@Gu@physx@@@01@AEBT__m128@@222AEAT4@33M@Z 000000018005f360 f i GuCCDSweepPrimitives.obj
 0001:0005f030       ??$gjkRaycast@U?$RelativeConvex@VCapsuleV@Gu@physx@@@Gu@physx@@U?$LocalConvex@VConvexHullV@Gu@physx@@@23@@Gu@physx@@YA_NAEBU?$RelativeConvex@VCapsuleV@Gu@physx@@@01@AEBU?$LocalConvex@VConvexHullV@Gu@physx@@@01@AEBT__m128@@222AEAT4@33M@Z 0000000180060030 f i GuCCDSweepPrimitives.obj
 0001:0005fe20       ??$gjkRaycast@U?$RelativeConvex@VTriangleV@Gu@physx@@@Gu@physx@@U?$LocalConvex@VBoxV@Gu@physx@@@23@@Gu@physx@@YA_NAEBU?$RelativeConvex@VTriangleV@Gu@physx@@@01@AEBU?$LocalConvex@VBoxV@Gu@physx@@@01@AEBT__m128@@222AEAT4@33M@Z 0000000180060e20 f i GuCCDSweepPrimitives.obj
 0001:00060b30       ??$gjkRaycast@U?$RelativeConvex@VTriangleV@Gu@physx@@@Gu@physx@@U?$LocalConvex@VCapsuleV@Gu@physx@@@23@@Gu@physx@@YA_NAEBU?$RelativeConvex@VTriangleV@Gu@physx@@@01@AEBU?$LocalConvex@VCapsuleV@Gu@physx@@@01@AEBT__m128@@222AEAT4@33M@Z 0000000180061b30 f i GuCCDSweepPrimitives.obj
 0001:00061890       ??$gjkRaycast@U?$RelativeConvex@VTriangleV@Gu@physx@@@Gu@physx@@U?$LocalConvex@VConvexHullV@Gu@physx@@@23@@Gu@physx@@YA_NAEBU?$RelativeConvex@VTriangleV@Gu@physx@@@01@AEBU?$LocalConvex@VConvexHullV@Gu@physx@@@01@AEBT__m128@@222AEAT4@33M@Z 0000000180062890 f i GuCCDSweepPrimitives.obj
 0001:00062730       ?SweepShapeShape@Gu@physx@@YAMAEBUCCDShape@12@0AEBVPxTransform@2@111MAEAVPxVec3@2@2MAEAIM@Z 0000000180063730 f   GuCCDSweepPrimitives.obj
 0001:00062750       ?SweepShapeTriangle@Gu@physx@@YAMAEBVGeometryUnion@12@0AEBVPxTransform@2@111MAEAVPxVec3@2@2AEBVFastVertex2ShapeScaling@Cm@2@AEAVTriangleV@12@M@Z 0000000180063750 f   GuCCDSweepPrimitives.obj
 0001:00062770       ?barycentricCoordinates@Gu@physx@@YAXAEBT__m128@@000AEAT3@1@Z 0000000180063770 f   GuBarycentricCoordinates.obj
 0001:000628c0       ?barycentricCoordinates@Gu@physx@@YAXAEBT__m128@@00AEAT3@@Z 00000001800638c0 f   GuBarycentricCoordinates.obj
 0001:00062930       ?addAxis@SeparatingAxes@Gu@physx@@QEAA_NAEBVPxVec3@3@@Z 0000000180063930 f   GuSeparatingAxes.obj
 0001:000629f0       ?contactBoxBox@Gu@physx@@YA_NAEBVGeometryUnion@12@0AEBVPxTransform@2@1AEBUNarrowPhaseParams@12@AEAUCache@12@AEAVContactBuffer@12@PEAVRenderOutput@Cm@2@@Z 00000001800639f0 f   GuContactBoxBox.obj
 0001:00066ed0       ?contactCapsuleBox@Gu@physx@@YA_NAEBVGeometryUnion@12@0AEBVPxTransform@2@1AEBUNarrowPhaseParams@12@AEAUCache@12@AEAVContactBuffer@12@PEAVRenderOutput@Cm@2@@Z 0000000180067ed0 f   GuContactCapsuleBox.obj
 0001:00067470       ?contactCapsuleCapsule@Gu@physx@@YA_NAEBVGeometryUnion@12@0AEBVPxTransform@2@1AEBUNarrowPhaseParams@12@AEAUCache@12@AEAVContactBuffer@12@PEAVRenderOutput@Cm@2@@Z 0000000180068470 f   GuContactCapsuleCapsule.obj
 0001:00069d90       ?contactCapsuleConvex@Gu@physx@@YA_NAEBVGeometryUnion@12@0AEBVPxTransform@2@1AEBUNarrowPhaseParams@12@AEAUCache@12@AEAVContactBuffer@12@PEAVRenderOutput@Cm@2@@Z 000000018006ad90 f   GuContactCapsuleConvex.obj
 0001:0006c280       ?contactCapsuleHeightfield@Gu@physx@@YA_NAEBVGeometryUnion@12@0AEBVPxTransform@2@1AEBUNarrowPhaseParams@12@AEAUCache@12@AEAVContactBuffer@12@PEAVRenderOutput@Cm@2@@Z 000000018006d280 f   GuContactCapsuleMesh.obj
 0001:0006c8b0       ?contactCapsuleMesh@Gu@physx@@YA_NAEBVGeometryUnion@12@0AEBVPxTransform@2@1AEBUNarrowPhaseParams@12@AEAUCache@12@AEAVContactBuffer@12@PEAVRenderOutput@Cm@2@@Z 000000018006d8b0 f   GuContactCapsuleMesh.obj
 0001:0006d9c0       ?transformFast@PxBounds3@physx@@SA?AV12@AEBVPxTransform@2@AEBV12@@Z 000000018006e9c0 f i GuContactCapsuleMesh.obj
 0001:0006dda0       ?transformQueryBounds@FastVertex2ShapeScaling@Cm@physx@@QEBAXAEAVPxVec3@3@0AEAVPxMat33@3@@Z 000000018006eda0 f i GuContactCapsuleMesh.obj
 0001:000720e0       ?contactBoxConvex@Gu@physx@@YA_NAEBVGeometryUnion@12@0AEBVPxTransform@2@1AEBUNarrowPhaseParams@12@AEAUCache@12@AEAVContactBuffer@12@PEAVRenderOutput@Cm@2@@Z 00000001800730e0 f   GuContactConvexConvex.obj
 0001:00072270       ?contactConvexConvex@Gu@physx@@YA_NAEBVGeometryUnion@12@0AEBVPxTransform@2@1AEBUNarrowPhaseParams@12@AEAUCache@12@AEAVContactBuffer@12@PEAVRenderOutput@Cm@2@@Z 0000000180073270 f   GuContactConvexConvex.obj
 0001:000726c0       ?transformPlaneToShapeSpace@FastVertex2ShapeScaling@Cm@physx@@QEBAXAEBVPxVec3@3@MAEAV43@AEAM@Z 00000001800736c0 f i GuContactConvexConvex.obj
 0001:000727b0       ??0?$CacheMap@UCachedEdge@Gu@physx@@$0IA@@Gu@physx@@QEAA@XZ 00000001800737b0 f i GuContactConvexMesh.obj
 0001:00072870       ??0?$CacheMap@UCachedVertex@Gu@physx@@$0IA@@Gu@physx@@QEAA@XZ 0000000180073870 f i GuContactConvexMesh.obj
 0001:00072e40       ??_EConvexMeshContactGenerationCallback@@UEAAPEAXI@Z 0000000180073e40 f i GuContactConvexMesh.obj
 0001:00072e40       ??_GConvexMeshContactGenerationCallback@@UEAAPEAXI@Z 0000000180073e40 f i GuContactConvexMesh.obj
 0001:00072ea0       ?addData@?$CacheMap@UCachedEdge@Gu@physx@@$0IA@@Gu@physx@@QEAA_NAEBUCachedEdge@23@@Z 0000000180073ea0 f i GuContactConvexMesh.obj
 0001:00072f80       ?addData@?$CacheMap@UCachedVertex@Gu@physx@@$0IA@@Gu@physx@@QEAA_NAEBUCachedVertex@23@@Z 0000000180073f80 f i GuContactConvexMesh.obj
 0001:00073350       ?contactBoxHeightfield@Gu@physx@@YA_NAEBVGeometryUnion@12@0AEBVPxTransform@2@1AEBUNarrowPhaseParams@12@AEAUCache@12@AEAVContactBuffer@12@PEAVRenderOutput@Cm@2@@Z 0000000180074350 f   GuContactConvexMesh.obj
 0001:000734b0       ?contactBoxMesh@Gu@physx@@YA_NAEBVGeometryUnion@12@0AEBVPxTransform@2@1AEBUNarrowPhaseParams@12@AEAUCache@12@AEAVContactBuffer@12@PEAVRenderOutput@Cm@2@@Z 00000001800744b0 f   GuContactConvexMesh.obj
 0001:00073660       ?contactConvexHeightfield@Gu@physx@@YA_NAEBVGeometryUnion@12@0AEBVPxTransform@2@1AEBUNarrowPhaseParams@12@AEAUCache@12@AEAVContactBuffer@12@PEAVRenderOutput@Cm@2@@Z 0000000180074660 f   GuContactConvexMesh.obj
 0001:00073790       ?contactConvexMesh@Gu@physx@@YA_NAEBVGeometryUnion@12@0AEBVPxTransform@2@1AEBUNarrowPhaseParams@12@AEAUCache@12@AEAVContactBuffer@12@PEAVRenderOutput@Cm@2@@Z 0000000180074790 f   GuContactConvexMesh.obj
 0001:00076ec0       ?processHit@ConvexMeshContactGenerationCallback@@UEAA_NAEBUPxRaycastHit@physx@@AEBVPxVec3@3@11AEAMPEBI@Z 0000000180077ec0 f i GuContactConvexMesh.obj
 0001:00077790       ?recreate@?$Array@IV?$InlineAllocator@$0BBAA@V?$ReflectionAllocator@I@shdfnd@physx@@@shdfnd@physx@@@shdfnd@physx@@IEAAXI@Z 0000000180078790 f i GuContactConvexMesh.obj
 0001:000787c0       ?contactPlaneBox@Gu@physx@@YA_NAEBVGeometryUnion@12@0AEBVPxTransform@2@1AEBUNarrowPhaseParams@12@AEAUCache@12@AEAVContactBuffer@12@PEAVRenderOutput@Cm@2@@Z 00000001800797c0 f   GuContactPlaneBox.obj
 0001:000793c0       ?contactPlaneCapsule@Gu@physx@@YA_NAEBVGeometryUnion@12@0AEBVPxTransform@2@1AEBUNarrowPhaseParams@12@AEAUCache@12@AEAVContactBuffer@12@PEAVRenderOutput@Cm@2@@Z 000000018007a3c0 f   GuContactPlaneCapsule.obj
 0001:000799d0       ?contactPlaneConvex@Gu@physx@@YA_NAEBVGeometryUnion@12@0AEBVPxTransform@2@1AEBUNarrowPhaseParams@12@AEAUCache@12@AEAVContactBuffer@12@PEAVRenderOutput@Cm@2@@Z 000000018007a9d0 f   GuContactPlaneConvex.obj
 0001:0007b7e0       ?contactPolygonPolygonExt@Gu@physx@@YA_NIPEBVPxVec3@2@PEBEAEBVMatrix34@Cm@2@AEBVPxPlane@2@AEBVPxMat33@2@I01234AEBV32@22IIAEAVContactBuffer@12@_N5M@Z 000000018007c7e0 f   GuContactPolygonPolygon.obj
 0001:0007cf20       ?findRotationMatrixFromZ@Gu@physx@@YA?AVPxMat33@2@AEBVPxVec3@2@@Z 000000018007df20 f   GuContactPolygonPolygon.obj
 0001:0007d950       ?contactSphereBox@Gu@physx@@YA_NAEBVGeometryUnion@12@0AEBVPxTransform@2@1AEBUNarrowPhaseParams@12@AEAUCache@12@AEAVContactBuffer@12@PEAVRenderOutput@Cm@2@@Z 000000018007e950 f   GuContactSphereBox.obj
 0001:0007df30       ?contactSphereCapsule@Gu@physx@@YA_NAEBVGeometryUnion@12@0AEBVPxTransform@2@1AEBUNarrowPhaseParams@12@AEAUCache@12@AEAVContactBuffer@12@PEAVRenderOutput@Cm@2@@Z 000000018007ef30 f   GuContactSphereCapsule.obj
 0001:0007ed00       ?contactSphereHeightfield@Gu@physx@@YA_NAEBVGeometryUnion@12@0AEBVPxTransform@2@1AEBUNarrowPhaseParams@12@AEAUCache@12@AEAVContactBuffer@12@PEAVRenderOutput@Cm@2@@Z 000000018007fd00 f   GuContactSphereMesh.obj
 0001:0007f6d0       ?contactSphereMesh@Gu@physx@@YA_NAEBVGeometryUnion@12@0AEBVPxTransform@2@1AEBUNarrowPhaseParams@12@AEAUCache@12@AEAVContactBuffer@12@PEAVRenderOutput@Cm@2@@Z 00000001800806d0 f   GuContactSphereMesh.obj
 0001:00081940       ?contactSpherePlane@Gu@physx@@YA_NAEBVGeometryUnion@12@0AEBVPxTransform@2@1AEBUNarrowPhaseParams@12@AEAUCache@12@AEAVContactBuffer@12@PEAVRenderOutput@Cm@2@@Z 0000000180082940 f   GuContactSpherePlane.obj
 0001:00081b40       ?contactSphereSphere@Gu@physx@@YA_NAEBVGeometryUnion@12@0AEBVPxTransform@2@1AEBUNarrowPhaseParams@12@AEAUCache@12@AEAVContactBuffer@12@PEAVRenderOutput@Cm@2@@Z 0000000180082b40 f   GuContactSphereSphere.obj
 0001:00081cb0       ?selectNormal@Gu@physx@@YA_NEMM@Z 0000000180082cb0 f   GuFeatureCode.obj
 0001:00081d30       ??0BigConvexData@physx@@QEAA@XZ 0000000180082d30 f   GuBigConvexData.obj
 0001:00081d50       ??1BigConvexData@physx@@QEAA@XZ 0000000180082d50 f   GuBigConvexData.obj
 0001:00081dd0       ?ComputeNearestOffset@BigConvexData@physx@@QEBAIAEBVPxVec3@2@@Z 0000000180082dd0 f   GuBigConvexData.obj
 0001:00081ed0       ?ComputeOffset@BigConvexData@physx@@QEBAIAEBVPxVec3@2@@Z 0000000180082ed0 f   GuBigConvexData.obj
 0001:00081fd0       ?CreateOffsets@BigConvexData@physx@@IEAAXXZ 0000000180082fd0 f   GuBigConvexData.obj
 0001:00082020       ?Load@BigConvexData@physx@@QEAA_NAEAVPxInputStream@2@@Z 0000000180083020 f   GuBigConvexData.obj
 0001:00082130       ?VLoad@BigConvexData@physx@@IEAA_NAEAVPxInputStream@2@@Z 0000000180083130 f   GuBigConvexData.obj
 0001:000822d0       ?exportExtraData@BigConvexData@physx@@QEAAXAEAVPxSerializationContext@2@@Z 00000001800832d0 f   GuBigConvexData.obj
 0001:00082350       ?importExtraData@BigConvexData@physx@@QEAAXAEAVPxDeserializationContext@2@@Z 0000000180083350 f   GuBigConvexData.obj
 0001:000823c0       ?findUniqueConvexEdges@Gu@physx@@YAIIPEIAUConvexEdge@12@IPEIBUHullPolygonData@12@PEIBE@Z 00000001800833c0 f   GuConvexHelper.obj
 0001:00082500       ?getConvexData@Gu@physx@@YA_NAEBVGeometryUnion@12@AEAVFastVertex2ShapeScaling@Cm@2@AEAVPxBounds3@2@AEAUPolygonalData@12@@Z 0000000180083500 f   GuConvexHelper.obj
 0001:00082780       ?getScaledConvex@Gu@physx@@YAXAEAPEAVPxVec3@2@AEAPEAEPEAV32@PEAE_NPEBV32@PEBEIAEBVFastVertex2ShapeScaling@Cm@2@@Z 0000000180083780 f   GuConvexHelper.obj
 0001:000828b0       ??0ConvexMesh@Gu@physx@@QEAA@AEAVGuMeshFactory@2@AEAUConvexHullInitData@12@@Z 00000001800838b0 f   GuConvexMesh.obj
 0001:000829e0       ??0ConvexMesh@Gu@physx@@QEAA@XZ 00000001800839e0 f   GuConvexMesh.obj
 0001:00082a80       ??1ConvexMesh@Gu@physx@@UEAA@XZ 0000000180083a80 f   GuConvexMesh.obj
 0001:00082b20       ??_EConvexMesh@Gu@physx@@UEAAPEAXI@Z 0000000180083b20 f i GuConvexMesh.obj
 0001:00082c30       ??_EConvexMesh@Gu@physx@@WBA@EAAPEAXI@Z 0000000180083c30 f i GuConvexMesh.obj
 0001:00082c40       ??_EPxHeightField@physx@@MEAAPEAXI@Z 0000000180083c40 f i GuHeightField.obj
 0001:00082c40       ??_EPxConvexMesh@physx@@MEAAPEAXI@Z 0000000180083c40 f i GuConvexMesh.obj
 0001:00082cd0       ?acquireReference@ConvexMesh@Gu@physx@@UEAAXXZ 0000000180083cd0 f   GuConvexMesh.obj
 0001:00082cd0       ?acquireReference@HeightField@Gu@physx@@UEAAXXZ 0000000180083cd0 f   GuHeightField.obj
 0001:00082cd0       ?acquireReference@TriangleMesh@Gu@physx@@UEAAXXZ 0000000180083cd0 f   GuTriangleMesh.obj
 0001:000831a0       ?createObject@ConvexMesh@Gu@physx@@SAPEAV123@AEAPEAEAEAVPxDeserializationContext@3@@Z 00000001800841a0 f   GuConvexMesh.obj
 0001:00083200       ?exportExtraData@ConvexMesh@Gu@physx@@UEAAXAEAVPxSerializationContext@3@@Z 0000000180084200 f   GuConvexMesh.obj
 0001:000832d0       ?getLocalBounds@ConvexMesh@Gu@physx@@UEBA?AVPxBounds3@3@XZ 00000001800842d0 f   GuConvexMesh.obj
 0001:00083360       ?getMassInformation@ConvexMesh@Gu@physx@@UEBAXAEAMAEAVPxMat33@3@AEAVPxVec3@3@@Z 0000000180084360 f   GuConvexMesh.obj
 0001:000833d0       ?getPolygonData@ConvexMesh@Gu@physx@@UEBA_NIAEAUPxHullPolygon@3@@Z 00000001800843d0 f   GuConvexMesh.obj
 0001:00083420       ?getReferenceCount@ConvexMesh@Gu@physx@@UEBAIXZ 0000000180084420 f   GuConvexMesh.obj
 0001:00083420       ?getReferenceCount@HeightField@Gu@physx@@UEBAIXZ 0000000180084420 f   GuHeightField.obj
 0001:00083420       ?getReferenceCount@TriangleMesh@Gu@physx@@UEBAIXZ 0000000180084420 f   GuTriangleMesh.obj
 0001:00083430       ?importExtraData@ConvexMesh@Gu@physx@@QEAAXAEAVPxDeserializationContext@3@@Z 0000000180084430 f   GuConvexMesh.obj
 0001:000834f0       ?isGpuCompatible@ConvexMesh@Gu@physx@@UEBA_NXZ 00000001800844f0 f   GuConvexMesh.obj
 0001:00083510       ?load@ConvexMesh@Gu@physx@@QEAA_NAEAVPxInputStream@3@@Z 0000000180084510 f   GuConvexMesh.obj
 0001:000837c0       ?onRefCountZero@ConvexMesh@Gu@physx@@UEAAXXZ 00000001800847c0 f   GuConvexMesh.obj
 0001:000838b0       ??Dphysx@@YA?AVMatrix34@Cm@0@AEBVPxMeshScale@0@AEBV120@@Z 00000001800848b0 f i GuConvexUtilsInternal.obj
 0001:00083e80       ?computeHullOBB@Gu@physx@@YAXAEAVBox@12@AEBVPxBounds3@2@MAEBVMatrix34@Cm@2@2AEBVFastVertex2ShapeScaling@62@_N@Z 0000000180084e80 f   GuConvexUtilsInternal.obj
 0001:00084330       ?computeOBBAroundConvex@Gu@physx@@YAXAEAVBox@12@AEBVPxConvexMeshGeometry@2@PEBVPxConvexMesh@2@AEBVPxTransform@2@@Z 0000000180085330 f   GuConvexUtilsInternal.obj
 0001:00084c40       ?computeVertexSpaceOBB@Gu@physx@@YAXAEAVBox@12@AEBV312@AEBVPxTransform@2@AEBVPxMeshScale@2@@Z 0000000180085c40 f   GuConvexUtilsInternal.obj
 0001:00084ff0       ?transform@physx@@YA?AVBox@Gu@1@AEBVMatrix34@Cm@1@AEBV231@@Z 0000000180085ff0 f i GuConvexUtilsInternal.obj
 0001:00085240       ?localSearch@physx@@YAXAEAIAEBVPxVec3@1@PEBV21@PEBUBigConvexRawData@Gu@1@@Z 0000000180086240 f   GuHillClimbing.obj
 0001:00085370       ??0PolygonalBox@Gu@physx@@QEAA@AEBVPxVec3@2@@Z 0000000180086370 f   GuShapeConvex.obj
 0001:00085370       ??0PCMPolygonalBox@Gu@physx@@QEAA@AEBVPxVec3@2@@Z 0000000180086370 f   GuPCMShapeConvex.obj
 0001:00086830       ?getPolygonalData@PolygonalBox@Gu@physx@@QEBAXPEIAUPolygonalData@23@@Z 0000000180087830 f   GuShapeConvex.obj
 0001:00086890       ?getPolygonalData_Convex@Gu@physx@@YAXPEIAUPolygonalData@12@PEIBUConvexHullData@12@AEBVFastVertex2ShapeScaling@Cm@2@@Z 0000000180087890 f   GuShapeConvex.obj
 0001:000869f0       ?distancePointBoxSquared@Gu@physx@@YAMAEBVPxVec3@2@00AEBVPxMat33@2@PEAV32@@Z 00000001800879f0 f   GuDistancePointBox.obj
 0001:00086b40       ?closestPtPointTriangle@Gu@physx@@YA?AVPxVec3@2@AEBV32@000AEAM1@Z 0000000180087b40 f   GuDistancePointTriangle.obj
 0001:00087060       ?distancePointTriangleSquared@Gu@physx@@YA?AT__m128@@AEBT3@000AEAT3@11@Z 0000000180088060 f   GuDistancePointTriangle.obj
 0001:00087db0       ?distanceSegmentBoxSquared@Gu@physx@@YAMAEBVPxVec3@2@000AEBVPxMat33@2@PEAMPEAV32@@Z 0000000180088db0 f   GuDistanceSegmentBox.obj
 0001:00088630       ?distanceSegmentSegmentSquared4@Gu@physx@@YA?AT__m128@@AEBT3@000000000AEAT3@1@Z 0000000180089630 f   GuDistanceSegmentSegment.obj
 0001:00088950       ?distanceSegmentSegmentSquared@Gu@physx@@YA?AT__m128@@AEBT3@000AEAT3@1@Z 0000000180089950 f   GuDistanceSegmentSegment.obj
 0001:00088b10       ?distanceSegmentSegmentSquared@Gu@physx@@YAMAEBVPxVec3@2@000PEAM1@Z 0000000180089b10 f   GuDistanceSegmentSegment.obj
 0001:00088da0       ?distanceSegmentSegmentSquared@Gu@physx@@YAMAEBVPxVec3@2@0M00MPEAM1@Z 0000000180089da0 f   GuDistanceSegmentSegment.obj
 0001:000894f0       ?distanceSegmentTriangleSquared@Gu@physx@@YA?AT__m128@@AEBT3@0000AEAT3@1@Z 000000018008a4f0 f   GuDistanceSegmentTriangle.obj
 0001:00089c30       ?distanceSegmentTriangleSquared@Gu@physx@@YAMAEBVPxVec3@2@0000PEAM11@Z 000000018008ac30 f   GuDistanceSegmentTriangle.obj
 0001:0008b2c0       ?PenetrationDepth@EPA@Gu@physx@@QEAA?AW4GjkStatus@23@AEBUGjkConvex@23@0PEIBT__m128@@1E_NT6@AEAUGjkOutput@23@@Z 000000018008c2c0 f   GuEPA.obj
 0001:0008bdd0       ?addFacet@EPA@Gu@physx@@QEAAPEAVFacet@23@IIIAEBT__m128@@@Z 000000018008cdd0 f   GuEPA.obj
 0001:0008c220       ?epaPenetration@Gu@physx@@YA?AW4GjkStatus@12@AEBUGjkConvex@12@0PEIBE1E_NT__m128@@AEAUGjkOutput@12@@Z 000000018008d220 f   GuEPA.obj
 0001:0008c390       ?silhouette@Facet@Gu@physx@@QEAAXAEBT__m128@@PEIBT4@1AEAVEdgeBuffer@23@AEAV?$InlineDeferredIDPool@$0EA@@Cm@3@@Z 000000018008d390 f   GuEPA.obj
 0001:0008c560       ?closestPtPointTetrahedron@Gu@physx@@YA?AT__m128@@PEIAT3@00AEAI@Z 000000018008d560 f   GuGJKSimplex.obj
 0001:0008cce0       ?closestPtPointTetrahedron@Gu@physx@@YA?AT__m128@@PEIAT3@00PEIAH1AEAI@Z 000000018008dce0 f   GuGJKSimplex.obj
 0001:0008e790       ??$gjk@UGjkConvex@Gu@physx@@U123@@Gu@physx@@YA?AW4GjkStatus@01@AEBUGjkConvex@01@0AEBT__m128@@1AEAT4@222@Z 000000018008f790 f i GuGJKTest.obj
 0001:0008f3c0       ??$gjkPenetration@UGjkConvex@Gu@physx@@U123@@Gu@physx@@YA?AW4GjkStatus@01@AEBUGjkConvex@01@0AEBT__m128@@1_NPEIAE3AEAEAEAUGjkOutput@01@@Z 00000001800903c0 f i GuGJKTest.obj
 0001:00090800       ?testEpaPenetration@Gu@physx@@YA?AW4GjkStatus@12@AEAUGjkConvex@12@0PEBE1EAEAUGjkOutput@12@@Z 0000000180091800 f   GuGJKTest.obj
 0001:00090850       ?testGjk@Gu@physx@@YA?AW4GjkStatus@12@AEAUGjkConvex@12@0AEBT__m128@@1AEAT5@222@Z 0000000180091850 f   GuGJKTest.obj
 0001:00090860       ?testGjkPenetration@Gu@physx@@YA?AW4GjkStatus@12@AEAUGjkConvex@12@0AEBT__m128@@1PEAE2AEAEAEAUGjkOutput@12@@Z 0000000180091860 f   GuGJKTest.obj
 0001:000908b0       ??0HeightField@Gu@physx@@QEAA@AEAVGuMeshFactory@2@AEAUHeightFieldData@12@@Z 00000001800918b0 f   GuHeightField.obj
 0001:00090980       ??0HeightField@Gu@physx@@QEAA@PEAVGuMeshFactory@2@@Z 0000000180091980 f   GuHeightField.obj
 0001:000909f0       ??1HeightField@Gu@physx@@UEAA@XZ 00000001800919f0 f   GuHeightField.obj
 0001:00090a60       ??_EHeightField@Gu@physx@@UEAAPEAXI@Z 0000000180091a60 f i GuHeightField.obj
 0001:00090bdc       ??_EHeightField@Gu@physx@@WBA@EAAPEAXI@Z 0000000180091bdc f i GuHeightField.obj
 0001:00090bf0       ?computeCellCoordinates@HeightField@Gu@physx@@QEBAIMMAEAM0@Z 0000000180091bf0 f   GuHeightField.obj
 0001:00090cf0       ?createObject@HeightField@Gu@physx@@SAPEAV123@AEAPEAEAEAVPxDeserializationContext@3@@Z 0000000180091cf0 f   GuHeightField.obj
 0001:00090d60       ?exportExtraData@HeightField@Gu@physx@@UEAAXAEAVPxSerializationContext@3@@Z 0000000180091d60 f   GuHeightField.obj
 0001:00090db0       ?getEdgeTriangleIndices@physx@@YAIAEBVHeightField@Gu@1@AEBUEdgeData@1@PEIAI@Z 0000000180091db0 f   GuHeightField.obj
 0001:00090ee0       ?getVertexEdgeIndices@physx@@YAIAEBVHeightField@Gu@1@IIIQEAUEdgeData@1@@Z 0000000180091ee0 f   GuHeightField.obj
 0001:000910c0       ?importExtraData@HeightField@Gu@physx@@QEAAXAEAVPxDeserializationContext@3@@Z 00000001800920c0 f   GuHeightField.obj
 0001:000910e0       ?isCollisionVertexPreca@HeightField@Gu@physx@@QEBA_NIIIG@Z 00000001800920e0 f   GuHeightField.obj
 0001:00091180       ?isConvexVertex@HeightField@Gu@physx@@QEBA_NIII@Z 0000000180092180 f i GuHeightField.obj
 0001:00091250       ?isSolidVertex@HeightField@Gu@physx@@QEBA_NIIIGAEA_N@Z 0000000180092250 f   GuHeightField.obj
 0001:000913d0       ?load@HeightField@Gu@physx@@QEAA_NAEAVPxInputStream@3@@Z 00000001800923d0 f   GuHeightField.obj
 0001:00091750       ?loadFromDesc@HeightField@Gu@physx@@QEAA_NAEBVPxHeightFieldDesc@3@@Z 0000000180092750 f   GuHeightField.obj
 0001:00091970       ?modifySamples@HeightField@Gu@physx@@UEAA_NHHAEBVPxHeightFieldDesc@3@_N@Z 0000000180092970 f   GuHeightField.obj
 0001:00091cd0       ?onRefCountZero@HeightField@Gu@physx@@UEAAXXZ 0000000180092cd0 f   GuHeightField.obj
 0001:00091d60       ?parseTrianglesForCollisionVertices@HeightField@Gu@physx@@QEAAXG@Z 0000000180092d60 f   GuHeightField.obj
 0001:00092240       ?releaseMemory@HeightField@Gu@physx@@QEAAXXZ 0000000180093240 f   GuHeightField.obj
 0001:00092290       ?resizeAndClear@?$BitMapBase@VNonTrackingAllocator@shdfnd@physx@@@Cm@physx@@QEAAXI@Z 0000000180093290 f i GuHeightField.obj
 0001:00092350       ?saveCells@HeightField@Gu@physx@@UEBAIPEAXI@Z 0000000180093350 f   GuHeightField.obj
 0001:00092390       ?computeLocalBounds@HeightFieldUtil@Gu@physx@@QEBAXAEAVPxBounds3@3@@Z 0000000180093390 f   GuHeightFieldUtil.obj
 0001:00092460       ?findClosestPointOnEdge@HeightFieldUtil@Gu@physx@@QEBAMIIIIAEBVPxVec3@3@AEAV43@@Z 0000000180093460 f   GuHeightFieldUtil.obj
 0001:00092750       ?findClosestPointsOnCell@HeightFieldUtil@Gu@physx@@QEBAIIIVPxVec3@3@PEIAV43@PEIAI_N33@Z 0000000180093750 f   GuHeightFieldUtil.obj
 0001:00092ed0       ?findProjectionOnTriangle@HeightFieldUtil@Gu@physx@@QEBA_NIIIAEBVPxVec3@3@AEAV43@@Z 0000000180093ed0 f   GuHeightFieldUtil.obj
 0001:00093170       ?getEdge@HeightFieldUtil@Gu@physx@@QEBAXIIIIAEAVPxVec3@3@0@Z 0000000180094170 f   GuHeightFieldUtil.obj
 0001:000933a0       ?getEdgeFaceIndex@HeightFieldUtil@Gu@physx@@QEBAII@Z 00000001800943a0 f   GuHeightFieldUtil.obj
 0001:00093590       ?getEdgeFaceIndex@HeightFieldUtil@Gu@physx@@QEBAIIIII@Z 0000000180094590 f   GuHeightFieldUtil.obj
 0001:00093740       ?getEdgeFaceIndex@HeightFieldUtil@Gu@physx@@QEBAIIIPEIBI@Z 0000000180094740 f   GuHeightFieldUtil.obj
 0001:000937d0       ?getFaceIndexAtShapePoint@HeightFieldUtil@Gu@physx@@QEBAIMM@Z 00000001800947d0 f   GuHeightFieldUtil.obj
 0001:000938e0       ?getTriangle@HeightFieldUtil@Gu@physx@@QEBAIAEBVPxTransform@3@AEAVPxTriangle@3@PEAI2I_N3@Z 00000001800948e0 f   GuHeightFieldUtil.obj
 0001:000943c0       ?getTriangleAdjacencyIndices@HeightField@Gu@physx@@QEBAXIIIIAEAI00@Z 00000001800953c0 f i GuHeightFieldUtil.obj
 0001:000945a0       ?getTriangleVertexIndices@HeightField@Gu@physx@@QEBAXIAEAI00@Z 00000001800955a0 f i GuHeightFieldUtil.obj
 0001:00094660       ?getVertexFaceIndex@HeightFieldUtil@Gu@physx@@QEBAIIII@Z 0000000180095660 f   GuHeightFieldUtil.obj
 0001:000948a0       ?getVertexNormal@HeightFieldUtil@Gu@physx@@QEBA?AVPxVec3@3@III@Z 00000001800958a0 f   GuHeightFieldUtil.obj
 0001:00094bf0       ?overlapAABBTriangles@HeightFieldUtil@Gu@physx@@QEBA_NAEBVPxTransform@3@AEBVPxBounds3@3@IPEAV?$EntityReport@I@23@@Z 0000000180095bf0 f   GuHeightFieldUtil.obj
 0001:00095220       ??$traceSegment@UTriggerTraceSegmentCallback@Gu@physx@@$0A@$0A@@HeightFieldTraceUtil@Gu@physx@@QEBAXAEBVPxVec3@2@0MPEAUTriggerTraceSegmentCallback@12@AEBVPxBounds3@2@_NPEBV32@@Z 0000000180096220 f i GuOverlapTestsHF.obj
 0001:00096200       ?GeomOverlapCallback_BoxHeightfield@@YA_NAEBVPxGeometry@physx@@AEBVPxTransform@2@01PEAUTriggerCache@Gu@2@@Z 0000000180097200 f   GuOverlapTestsHF.obj
 0001:00096520       ?GeomOverlapCallback_CapsuleHeightfield@@YA_NAEBVPxGeometry@physx@@AEBVPxTransform@2@01PEAUTriggerCache@Gu@2@@Z 0000000180097520 f   GuOverlapTestsHF.obj
 0001:00096760       ?GeomOverlapCallback_ConvexHeightfield@@YA_NAEBVPxGeometry@physx@@AEBVPxTransform@2@01PEAUTriggerCache@Gu@2@@Z 0000000180097760 f   GuOverlapTestsHF.obj
 0001:000967d0       ?GeomOverlapCallback_SphereHeightfield@@YA_NAEBVPxGeometry@physx@@AEBVPxTransform@2@01PEAUTriggerCache@Gu@2@@Z 00000001800977d0 f   GuOverlapTestsHF.obj
 0001:000969a0       ?checkOverlapAABB_heightFieldGeom@Gu@physx@@YA_NAEBVPxGeometry@2@AEBVPxTransform@2@AEBVPxBounds3@2@@Z 00000001800979a0 f   GuOverlapTestsHF.obj
 0001:00099c40       ??$gjkRaycast@U?$LocalConvex@VTriangleV@Gu@physx@@@Gu@physx@@U?$LocalConvex@VConvexHullV@Gu@physx@@@23@@Gu@physx@@YA_NAEBU?$LocalConvex@VTriangleV@Gu@physx@@@01@AEBU?$LocalConvex@VConvexHullV@Gu@physx@@@01@AEBT__m128@@222AEAT4@33M@Z 000000018009ac40 f i GuSweepsHF.obj
 0001:0009aa10       ??$traceSegment@VBoxTraceSegmentReport@@$0A@$00@HeightFieldTraceUtil@Gu@physx@@QEBAXAEBVPxVec3@2@0MPEAVBoxTraceSegmentReport@@AEBVPxBounds3@2@_NPEBV32@@Z 000000018009ba10 f i GuSweepsHF.obj
 0001:0009aa10       ??$traceSegment@VCapsuleTraceSegmentReport@@$0A@$00@HeightFieldTraceUtil@Gu@physx@@QEBAXAEBVPxVec3@2@0MPEAVCapsuleTraceSegmentReport@@AEBVPxBounds3@2@_NPEBV32@@Z 000000018009ba10 f i GuSweepsHF.obj
 0001:0009aa10       ??$traceSegment@VConvexTraceSegmentReport@@$0A@$00@HeightFieldTraceUtil@Gu@physx@@QEBAXAEBVPxVec3@2@0MPEAVConvexTraceSegmentReport@@AEBVPxBounds3@2@_NPEBV32@@Z 000000018009ba10 f i GuSweepsHF.obj
 0001:0009b430       ??0ConvexTraceSegmentReport@@QEAA@AEBVHeightFieldUtil@Gu@physx@@AEBUConvexHullData@23@AEBVPxMeshScale@3@AEBVPxTransform@3@3AEBVPxVec3@3@MV?$PxFlags@W4Enum@PxHitFlag@physx@@G@3@M@Z 000000018009c430 f i GuSweepsHF.obj
 0001:0009bdd0       ??_EBoxTraceSegmentReport@@UEAAPEAXI@Z 000000018009cdd0 f i GuSweepsHF.obj
 0001:0009bdd0       ??_GBoxTraceSegmentReport@@UEAAPEAXI@Z 000000018009cdd0 f i GuSweepsHF.obj
 0001:0009be00       ??_GCapsuleTraceSegmentReport@@UEAAPEAXI@Z 000000018009ce00 f i GuSweepsHF.obj
 0001:0009be00       ??_ECapsuleTraceSegmentReport@@UEAAPEAXI@Z 000000018009ce00 f i GuSweepsHF.obj
 0001:0009be30       ??_EConvexTraceSegmentReport@@UEAAPEAXI@Z 000000018009ce30 f i GuSweepsHF.obj
 0001:0009be30       ??_GConvexTraceSegmentReport@@UEAAPEAXI@Z 000000018009ce30 f i GuSweepsHF.obj
 0001:0009be60       ??_GHeightFieldTraceSegmentReport@@UEAAPEAXI@Z 000000018009ce60 f i GuSweepsHF.obj
 0001:0009be60       ??_EHeightFieldTraceSegmentReport@@UEAAPEAXI@Z 000000018009ce60 f i GuSweepsHF.obj
 0001:0009be90       ?finalizeHit@ConvexTraceSegmentReport@@QEAA_NAEAUPxSweepHit@physx@@AEBVPxHeightFieldGeometry@3@AEBVPxTransform@3@AEBVPxConvexMeshGeometry@3@2AEBVPxVec3@3@M@Z 000000018009ce90 f i GuSweepsHF.obj
 0001:0009c0e0       ?onEvent@BoxTraceSegmentReport@@UEAA_NIPEAI@Z 000000018009d0e0 f i GuSweepsHF.obj
 0001:0009c550       ?onEvent@CapsuleTraceSegmentReport@@UEAA_NIPEAI@Z 000000018009d550 f i GuSweepsHF.obj
 0001:0009c780       ?onEvent@ConvexTraceSegmentReport@@UEAA_NIPEAI@Z 000000018009d780 f i GuSweepsHF.obj
 0001:0009cd40       ?prepare@?$OverlapTraceSegment@VConvexTraceSegmentReport@@@HeightFieldTraceUtil@Gu@physx@@QEAAXAEBVPxVec3@4@00AEAM1@Z 000000018009dd40 f i GuSweepsHF.obj
 0001:0009cd40       ?prepare@?$OverlapTraceSegment@VCapsuleTraceSegmentReport@@@HeightFieldTraceUtil@Gu@physx@@QEAAXAEBVPxVec3@4@00AEAM1@Z 000000018009dd40 f i GuSweepsHF.obj
 0001:0009cd40       ?prepare@?$OverlapTraceSegment@VBoxTraceSegmentReport@@@HeightFieldTraceUtil@Gu@physx@@QEAAXAEBVPxVec3@4@00AEAM1@Z 000000018009dd40 f i GuSweepsHF.obj
 0001:0009cfe0       ?sweepBox_HeightFieldGeom@@YA_NAEBVPxGeometry@physx@@AEBVPxTransform@2@AEBVPxBoxGeometry@2@1AEBVBox@Gu@2@AEBVPxVec3@2@MAEAUPxSweepHit@2@V?$PxFlags@W4Enum@PxHitFlag@physx@@G@2@M@Z 000000018009dfe0 f   GuSweepsHF.obj
 0001:0009de30       ?sweepCapsule_HeightFieldGeom@@YA_NAEBVPxGeometry@physx@@AEBVPxTransform@2@AEBVPxCapsuleGeometry@2@1AEBVCapsule@Gu@2@AEBVPxVec3@2@MAEAUPxSweepHit@2@V?$PxFlags@W4Enum@PxHitFlag@physx@@G@2@M@Z 000000018009ee30 f   GuSweepsHF.obj
 0001:0009e790       ?sweepConvex_HeightFieldGeom@@YA_NAEBVPxGeometry@physx@@AEBVPxTransform@2@AEBVPxConvexMeshGeometry@2@1AEBVPxVec3@2@MAEAUPxSweepHit@2@V?$PxFlags@W4Enum@PxHitFlag@physx@@G@2@M@Z 000000018009f790 f   GuSweepsHF.obj
 0001:0009f160       ?testVertexIndex@?$OverlapTraceSegment@VBoxTraceSegmentReport@@@HeightFieldTraceUtil@Gu@physx@@QEAA_NI@Z 00000001800a0160 f i GuSweepsHF.obj
 0001:0009f160       ?testVertexIndex@?$OverlapTraceSegment@VConvexTraceSegmentReport@@@HeightFieldTraceUtil@Gu@physx@@QEAA_NI@Z 00000001800a0160 f i GuSweepsHF.obj
 0001:0009f160       ?testVertexIndex@?$OverlapTraceSegment@VCapsuleTraceSegmentReport@@@HeightFieldTraceUtil@Gu@physx@@QEAA_NI@Z 00000001800a0160 f i GuSweepsHF.obj
 0001:0009f2b0       ?intersectOBBOBB@Gu@physx@@YA_NAEBVPxVec3@2@0AEBVPxMat33@2@001_N@Z 00000001800a02b0 f   GuIntersectionBoxBox.obj
 0001:0009f910       ?intersectCapsuleTriangle@Gu@physx@@YA_NAEBVPxVec3@2@000AEBVCapsule@12@AEBUCapsuleTriangleOverlapData@12@@Z 00000001800a0910 f   GuIntersectionCapsuleTriangle.obj
 0001:000a04a0       ?intersectEdgeEdge@Gu@physx@@YA_NAEBVPxVec3@2@0000AEAMAEAV32@@Z 00000001800a14a0 f   GuIntersectionEdgeEdge.obj
 0001:000a07d0       ?intersectRayAABB2@Gu@physx@@YA_NAEBT__m128@@0000AEAT3@1@Z 00000001800a17d0 f   GuIntersectionRayBox.obj
 0001:000a0890       ?intersectRayAABB2@Gu@physx@@YA_NAEBVPxVec3@2@000MAEAM1@Z 00000001800a1890 f   GuIntersectionRayBox.obj
 0001:000a0a40       ?intersectRayAABB@Gu@physx@@YAHAEBVPxVec3@2@000AEAM1@Z 00000001800a1a40 f   GuIntersectionRayBox.obj
 0001:000a0b60       ?rayAABBIntersect2@Gu@physx@@YAIAEBVPxVec3@2@000AEAV32@AEAM@Z 00000001800a1b60 f   GuIntersectionRayBox.obj
 0001:000a0d70       ?intersectRayCapsuleInternal@Gu@physx@@YAIAEBVPxVec3@2@000MQEAM@Z 00000001800a1d70 f   GuIntersectionRayCapsule.obj
 0001:000a1600       ?intersectRaySphere@Gu@physx@@YA_NAEBVPxVec3@2@0M0MAEAMPEAV32@@Z 00000001800a2600 f   GuIntersectionRaySphere.obj
 0001:000a16f0       ?intersectRaySphereBasic@Gu@physx@@YA_NAEBVPxVec3@2@0M0MAEAMPEAV32@@Z 00000001800a26f0 f   GuIntersectionRaySphere.obj
 0001:000a1850       ?intersectSphereBox@Gu@physx@@YA_NAEBVSphere@12@AEBVBox@12@@Z 00000001800a2850 f   GuIntersectionSphereBox.obj
 0001:000a1a80       ?intersectTriangleBox@Gu@physx@@YAHAEBVBoxPadded@12@AEBVPxVec3@2@11@Z 00000001800a2a80 f   GuIntersectionTriangleBox.obj
 0001:000a2050       ?intersectTriangleBoxBV4@@YAHAEBVPxVec3@physx@@00AEBVPxMat33@2@00@Z 00000001800a3050 f   GuIntersectionTriangleBox.obj
 0001:000a2490       ?intersectTriangleBox_ReferenceCode@Gu@physx@@YAHAEBVPxVec3@2@0000@Z 00000001800a3490 f   GuIntersectionTriangleBox.obj
 0001:000a2d00       ?intersectTriangleBox_Unsafe@Gu@physx@@YAHAEBVPxVec3@2@0000@Z 00000001800a3d00 f   GuIntersectionTriangleBox.obj
 0001:000a30d0       ??0BV4Tree@Gu@physx@@QEAA@PEAVSourceMesh@12@AEBVPxBounds3@2@@Z 00000001800a40d0 f   GuBV4.obj
 0001:000a3190       ??0BV4Tree@Gu@physx@@QEAA@W4PxEMPTY@2@@Z 00000001800a4190 f   GuBV4.obj
 0001:000a31a0       ??0BV4Tree@Gu@physx@@QEAA@XZ 00000001800a41a0 f   GuBV4.obj
 0001:000a31d0       ??0SourceMesh@Gu@physx@@QEAA@XZ 00000001800a41d0 f   GuBV4.obj
 0001:000a31f0       ??0SourceMeshBase@Gu@physx@@QEAA@XZ 00000001800a41f0 f   GuBV4.obj
 0001:000a3200       ??1BV4Tree@Gu@physx@@QEAA@XZ 00000001800a4200 f   GuBV4.obj
 0001:000a3260       ??1SourceMeshBase@Gu@physx@@QEAA@XZ 00000001800a4260 f   GuBV4.obj
 0001:000a3260       ??1SourceMesh@Gu@physx@@QEAA@XZ 00000001800a4260 f   GuBV4.obj
 0001:000a32b0       ??4BV4Tree@Gu@physx@@QEAAXAEAV012@@Z 00000001800a42b0 f   GuBV4.obj
 0001:000a3340       ??4SourceMesh@Gu@physx@@QEAAXAEAV012@@Z 00000001800a4340 f   GuBV4.obj
 0001:000a3390       ?exportExtraData@BV4Tree@Gu@physx@@QEAAXAEAVPxSerializationContext@3@@Z 00000001800a4390 f   GuBV4.obj
 0001:000a33e0       ?importExtraData@BV4Tree@Gu@physx@@QEAAXAEAVPxDeserializationContext@3@@Z 00000001800a43e0 f   GuBV4.obj
 0001:000a3410       ?init@BV32Tree@Gu@physx@@QEAA_NPEAVSourceMesh@23@AEBVPxBounds3@3@@Z 00000001800a4410 f   GuBV32.obj
 0001:000a3410       ?init@BV4Tree@Gu@physx@@QEAA_NPEAVSourceMesh@23@AEBVPxBounds3@3@@Z 00000001800a4410 f   GuBV4.obj
 0001:000a34b0       ?load@BV4Tree@Gu@physx@@QEAA_NAEAVPxInputStream@3@_N@Z 00000001800a44b0 f   GuBV4.obj
 0001:000a36d0       ?remapTopology@SourceMesh@Gu@physx@@QEAAXPEBI@Z 00000001800a46d0 f   GuBV4.obj
 0001:000a39a0       ??0AABBTree@Gu@physx@@QEAA@XZ 00000001800a49a0 f   GuBV4Build.obj
 0001:000a39b0       ??0BVData@@QEAA@XZ         00000001800a49b0 f   GuBV4Build.obj
 0001:000a39e0       ??1AABBTree@Gu@physx@@QEAA@XZ 00000001800a49e0 f   GuBV4Build.obj
 0001:000a39f0       ?BuildBV4Ex@Gu@physx@@YA_NAEAVBV4Tree@12@AEAVSourceMesh@12@MI@Z 00000001800a49f0 f   GuBV4Build.obj
 0001:000a4ec0       ?allocateNode@BV4BuildParams@@QEAAPEAUBV4Node@@XZ 00000001800a5ec0 f   GuBV4Build.obj
 0001:000a4fe0       ?buildFromMesh@AABBTree@Gu@physx@@QEAA_NAEAVSourceMesh@23@I@Z 00000001800a5fe0 f   GuBV4Build.obj
 0001:000a5ba0       ?release@AABBTree@Gu@physx@@QEAAXXZ 00000001800a6ba0 f   GuBV4Build.obj
 0001:000a5c40       ?releaseNodes@BV4BuildParams@@QEAAXXZ 00000001800a6c40 f   GuBV4Build.obj
 0001:000a5f10       ?walk@AABBTree@Gu@physx@@QEBAIP6A_NPEBVAABBTreeNode@23@IPEAX@Z1@Z 00000001800a6f10 f   GuBV4Build.obj
 0001:000a8130       ?GenericSweep_AABB_CB@@YAXAEBVBox@Gu@physx@@AEBVPxVec3@3@MAEBVBV4Tree@23@P6A_NPEAX111IAEAM@Z3I@Z 00000001800a9130 f   GuBV4_AABBSweep.obj
 0001:000a8260       ?Sweep_AABB_BV4@@YAHAEBVBox@Gu@physx@@AEBVPxVec3@3@MAEBVBV4Tree@23@PEIAVSweepHit@23@I@Z 00000001800a9260 f   GuBV4_AABBSweep.obj
 0001:000ac4a0       ?BV4_OverlapBoxAll@@YAIAEBVBox@Gu@physx@@AEBVBV4Tree@23@PEIBVPxMat44@3@PEAIIAEA_N@Z 00000001800ad4a0 f   GuBV4_BoxOverlap.obj
 0001:000accb0       ?BV4_OverlapBoxAny@@YAHAEBVBox@Gu@physx@@AEBVBV4Tree@23@PEIBVPxMat44@3@@Z 00000001800adcb0 f   GuBV4_BoxOverlap.obj
 0001:000ad470       ?BV4_OverlapBoxCB@@YAXAEBVBox@Gu@physx@@AEBVBV4Tree@23@P6A_NPEAXAEBVPxVec3@3@33IPEBI@Z2@Z 00000001800ae470 f   GuBV4_BoxOverlap.obj
 0001:000ad930       ?BV4_OverlapCapsuleAll@@YAIAEBVCapsule@Gu@physx@@AEBVBV4Tree@23@PEIBVPxMat44@3@PEAIIAEA_N@Z 00000001800ae930 f   GuBV4_BoxOverlap.obj
 0001:000ae040       ?BV4_OverlapCapsuleAny@@YAHAEBVCapsule@Gu@physx@@AEBVBV4Tree@23@PEIBVPxMat44@3@@Z 00000001800af040 f   GuBV4_BoxOverlap.obj
 0001:000b0170       ?BV4_CapsuleSweepSingle@@YAHAEBVCapsule@Gu@physx@@AEBVPxVec3@3@MAEBVBV4Tree@23@PEIAVSweepHit@23@I@Z 00000001800b1170 f   GuBV4_CapsuleSweep.obj
 0001:000b3660       ?BV4_CapsuleSweepSingleAA@@YAHAEBVCapsule@Gu@physx@@AEBVPxVec3@3@MAEBVBV4Tree@23@PEIAVSweepHit@23@I@Z 00000001800b4660 f   GuBV4_CapsuleSweepAA.obj
 0001:000b7e70       ?BV4_BoxSweepSingle@@YAHAEBVBox@Gu@physx@@AEBVPxVec3@3@MAEBVBV4Tree@23@PEIBVPxMat44@3@PEIAVSweepHit@23@I@Z 00000001800b8e70 f   GuBV4_OBBSweep.obj
 0001:000b85a0       ?BV4_GenericSweepCB@@YAXAEBVBox@Gu@physx@@AEBVPxVec3@3@MAEBVBV4Tree@23@P6A_NPEAX111IAEAM@Z3_N@Z 00000001800b95a0 f   GuBV4_OBBSweep.obj
 0001:000b8770       ?Sweep_OBB_BV4@@YAHAEBVBox@Gu@physx@@AEBVPxVec3@3@MAEBVBV4Tree@23@PEIAVSweepHit@23@I@Z 00000001800b9770 f   GuBV4_OBBSweep.obj
 0001:000ba740       ?BV4_RaycastCB@@YAXAEBVPxVec3@physx@@0AEBVBV4Tree@Gu@2@PEIBVPxMat44@2@MMIP6A?AW4HitCode@42@PEAX000IMMM@Z3@Z 00000001800bb740 f   GuBV4_Raycast.obj
 0001:000bab60       ?BV4_RaycastSingle@@YAHAEBVPxVec3@physx@@0AEBVBV4Tree@Gu@2@PEIBVPxMat44@2@PEIAUPxRaycastHit@2@MMIV?$PxFlags@W4Enum@PxHitFlag@physx@@G@2@@Z 00000001800bbb60 f   GuBV4_Raycast.obj
 0001:000bc8c0       ?BV4_OverlapSphereAll@@YAIAEBVSphere@Gu@physx@@AEBVBV4Tree@23@PEIBVPxMat44@3@PEAIIAEA_N@Z 00000001800bd8c0 f   GuBV4_SphereOverlap.obj
 0001:000bcbe0       ?BV4_OverlapSphereAny@@YAHAEBVSphere@Gu@physx@@AEBVBV4Tree@23@PEIBVPxMat44@3@@Z 00000001800bdbe0 f   GuBV4_SphereOverlap.obj
 0001:000be9f0       ?BV4_GenericSweepCB_Old@@YAXAEBVPxVec3@physx@@00MAEBVBV4Tree@Gu@2@PEIBVPxMat44@2@P6A_NPEAX000IAEAM@Z3@Z 00000001800bf9f0 f   GuBV4_SphereSweep.obj
 0001:000bedf0       ?BV4_SphereSweepSingle@@YAHAEBVSphere@Gu@physx@@AEBVPxVec3@3@MAEBVBV4Tree@23@PEIBVPxMat44@3@PEIAVSweepHit@23@I@Z 00000001800bfdf0 f   GuBV4_SphereSweep.obj
 0001:000c00b0       ?computeSweepData@physx@@YAMAEBVPxTriangleMeshGeometry@1@AEAVPxVec3@1@11M@Z 00000001800c10b0 f i GuMidphaseBV4.obj
 0001:000c1550       ?intersectBoxVsMesh_BV4@Gu@physx@@YA_NAEBVBox@12@AEBVTriangleMesh@12@AEBVPxTransform@2@AEBVPxMeshScale@2@PEAULimitedResults@12@@Z 00000001800c2550 f   GuMidphaseBV4.obj
 0001:000c2070       ?intersectCapsuleVsMesh_BV4@Gu@physx@@YA_NAEBVCapsule@12@AEBVTriangleMesh@12@AEBVPxTransform@2@AEBVPxMeshScale@2@PEAULimitedResults@12@@Z 00000001800c3070 f   GuMidphaseBV4.obj
 0001:000c28b0       ?intersectOBB_BV4@Gu@physx@@YAXPEBVTriangleMesh@12@AEBVBox@12@AEAU?$MeshHitCallback@UPxRaycastHit@physx@@@12@_N3@Z 00000001800c38b0 f   GuMidphaseBV4.obj
 0001:000c28d0       ?intersectSphereVsMesh_BV4@Gu@physx@@YA_NAEBVSphere@12@AEBVTriangleMesh@12@AEBVPxTransform@2@AEBVPxMeshScale@2@PEAULimitedResults@12@@Z 00000001800c38d0 f   GuMidphaseBV4.obj
 0001:000c3010       ?raycast_triangleMesh_BV4@Gu@physx@@YAIPEBVTriangleMesh@12@AEBVPxTriangleMeshGeometry@2@AEBVPxTransform@2@AEBVPxVec3@2@3MV?$PxFlags@W4Enum@PxHitFlag@physx@@G@2@IPEIAUPxRaycastHit@2@@Z 00000001800c4010 f   GuMidphaseBV4.obj
 0001:000c3e20       ?sweepBox_MeshGeom_BV4@Gu@physx@@YA_NPEBVTriangleMesh@12@AEBVPxTriangleMeshGeometry@2@AEBVPxTransform@2@AEBVBox@12@AEBVPxVec3@2@MAEAUPxSweepHit@2@V?$PxFlags@W4Enum@PxHitFlag@physx@@G@2@M@Z 00000001800c4e20 f   GuMidphaseBV4.obj
 0001:000c5540       ?sweepCapsule_MeshGeom_BV4@Gu@physx@@YA_NPEBVTriangleMesh@12@AEBVPxTriangleMeshGeometry@2@AEBVPxTransform@2@AEBVCapsule@12@AEBVPxVec3@2@MAEAUPxSweepHit@2@V?$PxFlags@W4Enum@PxHitFlag@physx@@G@2@M@Z 00000001800c6540 f   GuMidphaseBV4.obj
 0001:000c6030       ?sweepConvex_MeshGeom_BV4@Gu@physx@@YAXPEBVTriangleMesh@12@AEBVBox@12@AEBVPxVec3@2@MAEAUSweepConvexMeshHitCallback@12@_N@Z 00000001800c7030 f   GuMidphaseBV4.obj
 0001:000c6070       ?transform@PxMeshScale@physx@@QEBA?AVPxVec3@2@AEBV32@@Z 00000001800c7070 f i GuMidphaseBV4.obj
 0001:000c62b0       ?findOverlapHeightField@PxMeshQuery@physx@@SAIAEBVPxGeometry@2@AEBVPxTransform@2@AEBVPxHeightFieldGeometry@2@1PEAIIIAEA_N@Z 00000001800c72b0 f   GuMeshQuery.obj
 0001:000c69a0       ?findOverlapTriangleMesh@PxMeshQuery@physx@@SAIAEBVPxGeometry@2@AEBVPxTransform@2@AEBVPxTriangleMeshGeometry@2@1PEAIIIAEA_N@Z 00000001800c79a0 f   GuMeshQuery.obj
 0001:000c6cb0       ?getTriangle@PxMeshQuery@physx@@SAXAEBVPxHeightFieldGeometry@2@AEBVPxTransform@2@IAEAVPxTriangle@2@PEAI3@Z 00000001800c7cb0 f   GuMeshQuery.obj
 0001:000c6d30       ?getTriangle@PxMeshQuery@physx@@SAXAEBVPxTriangleMeshGeometry@2@AEBVPxTransform@2@IAEAVPxTriangle@2@PEAI3@Z 00000001800c7d30 f   GuMeshQuery.obj
 0001:000c7230       ?sweep@PxMeshQuery@physx@@SA_NAEBVPxVec3@2@MAEBVPxGeometry@2@AEBVPxTransform@2@IPEBVPxTriangle@2@AEAUPxSweepHit@2@V?$PxFlags@W4Enum@PxHitFlag@physx@@G@2@PEBIM_N@Z 00000001800c8230 f   GuMeshQuery.obj
 0001:000c74c0       ??$collide@$00$00@MeshRayCollider@@SAXAEBVPxVec3@physx@@0M_NPEBVRTreeTriangleMesh@Gu@2@AEAU?$MeshHitCallback@UPxRaycastHit@physx@@@42@PEBV12@@Z 00000001800c84c0 f i GuMidphaseRTree.obj
 0001:000c7840       ??$collide@$00$0A@@MeshRayCollider@@SAXAEBVPxVec3@physx@@0M_NPEBVRTreeTriangleMesh@Gu@2@AEAU?$MeshHitCallback@UPxRaycastHit@physx@@@42@PEBV12@@Z 00000001800c8840 f i GuMidphaseRTree.obj
 0001:000c7a80       ??$collide@$0A@$00@MeshRayCollider@@SAXAEBVPxVec3@physx@@0M_NPEBVRTreeTriangleMesh@Gu@2@AEAU?$MeshHitCallback@UPxRaycastHit@physx@@@42@PEBV12@@Z 00000001800c8a80 f i GuMidphaseRTree.obj
 0001:000c9e40       ??0?$RayRTreeCallback@$00$0A@@@QEAA@MAEAU?$MeshHitCallback@UPxRaycastHit@physx@@@Gu@physx@@HPEBXPEBVPxVec3@3@AEBV43@3M_N2@Z 00000001800cae40 f i GuMidphaseRTree.obj
 0001:000c9f70       ??1?$RayRTreeCallback@$00$00@@UEAA@XZ 00000001800caf70 f i GuMidphaseRTree.obj
 0001:000ca000       ??1?$RayRTreeCallback@$0A@$0A@@@UEAA@XZ 00000001800cb000 f i GuMidphaseRTree.obj
 0001:000ca000       ??1?$RayRTreeCallback@$00$0A@@@UEAA@XZ 00000001800cb000 f i GuMidphaseRTree.obj
 0001:000ca090       ??1?$RayRTreeCallback@$0A@$00@@UEAA@XZ 00000001800cb090 f i GuMidphaseRTree.obj
 0001:000ca118       ??_E?$RayRTreeCallback@$00$00@@W7EAAPEAXI@Z 00000001800cb118 f i GuMidphaseRTree.obj
 0001:000ca124       ??_E?$RayRTreeCallback@$0A@$0A@@@W7EAAPEAXI@Z 00000001800cb124 f i GuMidphaseRTree.obj
 0001:000ca124       ??_E?$RayRTreeCallback@$00$0A@@@W7EAAPEAXI@Z 00000001800cb124 f i GuMidphaseRTree.obj
 0001:000ca130       ??_E?$RayRTreeCallback@$0A@$00@@W7EAAPEAXI@Z 00000001800cb130 f i GuMidphaseRTree.obj
 0001:000ca1a0       ??_G?$RayRTreeCallback@$00$00@@UEAAPEAXI@Z 00000001800cb1a0 f i GuMidphaseRTree.obj
 0001:000ca1a0       ??_E?$RayRTreeCallback@$00$00@@UEAAPEAXI@Z 00000001800cb1a0 f i GuMidphaseRTree.obj
 0001:000ca1e0       ??_G?$RayRTreeCallback@$0A@$0A@@@UEAAPEAXI@Z 00000001800cb1e0 f i GuMidphaseRTree.obj
 0001:000ca1e0       ??_E?$RayRTreeCallback@$00$0A@@@UEAAPEAXI@Z 00000001800cb1e0 f i GuMidphaseRTree.obj
 0001:000ca1e0       ??_E?$RayRTreeCallback@$0A@$0A@@@UEAAPEAXI@Z 00000001800cb1e0 f i GuMidphaseRTree.obj
 0001:000ca1e0       ??_G?$RayRTreeCallback@$00$0A@@@UEAAPEAXI@Z 00000001800cb1e0 f i GuMidphaseRTree.obj
 0001:000ca220       ??_E?$RayRTreeCallback@$0A@$00@@UEAAPEAXI@Z 00000001800cb220 f i GuMidphaseRTree.obj
 0001:000ca220       ??_G?$RayRTreeCallback@$0A@$00@@UEAAPEAXI@Z 00000001800cb220 f i GuMidphaseRTree.obj
 0001:000ca260       ??_GCallback@RTree@Gu@physx@@UEAAPEAXI@Z 00000001800cb260 f i GuMidphaseRTree.obj
 0001:000ca260       ??_ECallback@RTree@Gu@physx@@UEAAPEAXI@Z 00000001800cb260 f i GuMidphaseRTree.obj
 0001:000ca290       ??_ECallbackRaycast@RTree@Gu@physx@@UEAAPEAXI@Z 00000001800cb290 f i GuMidphaseRTree.obj
 0001:000ca290       ??_GCallbackRefit@RTree@Gu@physx@@UEAAPEAXI@Z 00000001800cb290 f i GuTriangleMeshRTree.obj
 0001:000ca290       ??_GCallbackRaycast@RTree@Gu@physx@@UEAAPEAXI@Z 00000001800cb290 f i GuMidphaseRTree.obj
 0001:000ca290       ??_ECallbackRefit@RTree@Gu@physx@@UEAAPEAXI@Z 00000001800cb290 f i GuTriangleMeshRTree.obj
 0001:000ca2c0       ??_GRayMeshColliderCallback@@UEAAPEAXI@Z 00000001800cb2c0 f i GuMidphaseRTree.obj
 0001:000ca2c0       ??_ERayMeshColliderCallback@@UEAAPEAXI@Z 00000001800cb2c0 f i GuMidphaseRTree.obj
 0001:000ca2f0       ?collideOBB@MeshRayCollider@@SAXAEBVBox@Gu@physx@@_NPEBVRTreeTriangleMesh@34@AEAU?$MeshHitCallback@UPxRaycastHit@physx@@@34@1@Z 00000001800cb2f0 f   GuMidphaseRTree.obj
 0001:000ca7c0       ?intersectBoxVsMesh_RTREE@Gu@physx@@YA_NAEBVBox@12@AEBVTriangleMesh@12@AEBVPxTransform@2@AEBVPxMeshScale@2@PEAULimitedResults@12@@Z 00000001800cb7c0 f   GuMidphaseRTree.obj
 0001:000ca830       ?intersectCapsuleVsMesh_RTREE@Gu@physx@@YA_NAEBVCapsule@12@AEBVTriangleMesh@12@AEBVPxTransform@2@AEBVPxMeshScale@2@PEAULimitedResults@12@@Z 00000001800cb830 f   GuMidphaseRTree.obj
 0001:000ca8b0       ?intersectOBB_RTREE@Gu@physx@@YAXPEBVTriangleMesh@12@AEBVBox@12@AEAU?$MeshHitCallback@UPxRaycastHit@physx@@@12@_N3@Z 00000001800cb8b0 f   GuMidphaseRTree.obj
 0001:000ca8e0       ?intersectSphereVsMesh_RTREE@Gu@physx@@YA_NAEBVSphere@12@AEBVTriangleMesh@12@AEBVPxTransform@2@AEBVPxMeshScale@2@PEAULimitedResults@12@@Z 00000001800cb8e0 f   GuMidphaseRTree.obj
 0001:000cb710       ?processHit@RayMeshColliderCallback@@UEAA_NAEBUPxRaycastHit@physx@@AEBVPxVec3@3@11AEAMPEBI@Z 00000001800cc710 f i GuMidphaseRTree.obj
 0001:000cbea0       ?processResults@?$RayRTreeCallback@$00$00@@UEAA_NIPEAI@Z 00000001800ccea0 f i GuMidphaseRTree.obj
 0001:000cc250       ?processResults@?$RayRTreeCallback@$00$00@@UEAA_NIPEAIAEAM@Z 00000001800cd250 f i GuMidphaseRTree.obj
 0001:000cc5e0       ?processResults@?$RayRTreeCallback@$00$0A@@@UEAA_NIPEAI@Z 00000001800cd5e0 f i GuMidphaseRTree.obj
 0001:000cc5e0       ?processResults@?$RayRTreeCallback@$0A@$0A@@@UEAA_NIPEAI@Z 00000001800cd5e0 f i GuMidphaseRTree.obj
 0001:000cc870       ?processResults@?$RayRTreeCallback@$00$0A@@@UEAA_NIPEAIAEAM@Z 00000001800cd870 f i GuMidphaseRTree.obj
 0001:000cc870       ?processResults@?$RayRTreeCallback@$0A@$0A@@@UEAA_NIPEAIAEAM@Z 00000001800cd870 f i GuMidphaseRTree.obj
 0001:000ccb10       ?processResults@?$RayRTreeCallback@$0A@$00@@UEAA_NIPEAI@Z 00000001800cdb10 f i GuMidphaseRTree.obj
 0001:000cd170       ?processResults@?$RayRTreeCallback@$0A@$00@@UEAA_NIPEAIAEAM@Z 00000001800ce170 f i GuMidphaseRTree.obj
 0001:000cd7e0       ?raycast_triangleMesh_RTREE@Gu@physx@@YAIPEBVTriangleMesh@12@AEBVPxTriangleMeshGeometry@2@AEBVPxTransform@2@AEBVPxVec3@2@3MV?$PxFlags@W4Enum@PxHitFlag@physx@@G@2@IPEIAUPxRaycastHit@2@@Z 00000001800ce7e0 f   GuMidphaseRTree.obj
 0001:000cdf80       ?sweepBox_MeshGeom_RTREE@Gu@physx@@YA_NPEBVTriangleMesh@12@AEBVPxTriangleMeshGeometry@2@AEBVPxTransform@2@AEBVBox@12@AEBVPxVec3@2@MAEAUPxSweepHit@2@V?$PxFlags@W4Enum@PxHitFlag@physx@@G@2@M@Z 00000001800cef80 f   GuMidphaseRTree.obj
 0001:000cf4e0       ?sweepCapsule_MeshGeom_RTREE@Gu@physx@@YA_NPEBVTriangleMesh@12@AEBVPxTriangleMeshGeometry@2@AEBVPxTransform@2@AEBVCapsule@12@AEBVPxVec3@2@MAEAUPxSweepHit@2@V?$PxFlags@W4Enum@PxHitFlag@physx@@G@2@M@Z 00000001800d04e0 f   GuMidphaseRTree.obj
 0001:000cfce0       ?sweepConvex_MeshGeom_RTREE@Gu@physx@@YAXPEBVTriangleMesh@12@AEBVBox@12@AEBVPxVec3@2@MAEAUSweepConvexMeshHitCallback@12@_N@Z 00000001800d0ce0 f   GuMidphaseRTree.obj
 0001:000cfd30       ??$gjk@U?$RelativeConvex@VTriangleV@Gu@physx@@@Gu@physx@@U?$LocalConvex@VConvexHullV@Gu@physx@@@23@@Gu@physx@@YA?AW4GjkStatus@01@AEBU?$RelativeConvex@VTriangleV@Gu@physx@@@01@AEBU?$LocalConvex@VConvexHullV@Gu@physx@@@01@AEBT__m128@@2AEAT5@333@Z 00000001800d0d30 f i GuOverlapTestsMesh.obj
 0001:000d0bc0       ??0ConvexVsMeshOverlapCallback@@QEAA@AEBVConvexMesh@Gu@physx@@AEBVPxMeshScale@3@AEBVFastVertex2ShapeScaling@Cm@3@AEBVPxTransform@3@3_NAEBVBox@23@@Z 00000001800d1bc0 f i GuOverlapTestsMesh.obj
 0001:000d1450       ??_EConvexVsMeshOverlapCallback@@UEAAPEAXI@Z 00000001800d2450 f i GuOverlapTestsMesh.obj
 0001:000d1450       ??_GConvexVsMeshOverlapCallback@@UEAAPEAXI@Z 00000001800d2450 f i GuOverlapTestsMesh.obj
 0001:000d1480       ?GeomOverlapCallback_BoxMesh@@YA_NAEBVPxGeometry@physx@@AEBVPxTransform@2@01PEAUTriggerCache@Gu@2@@Z 00000001800d2480 f   GuOverlapTestsMesh.obj
 0001:000d1590       ?GeomOverlapCallback_CapsuleMesh@@YA_NAEBVPxGeometry@physx@@AEBVPxTransform@2@01PEAUTriggerCache@Gu@2@@Z 00000001800d2590 f   GuOverlapTestsMesh.obj
 0001:000d16a0       ?GeomOverlapCallback_ConvexMesh@@YA_NAEBVPxGeometry@physx@@AEBVPxTransform@2@01PEAUTriggerCache@Gu@2@@Z 00000001800d26a0 f   GuOverlapTestsMesh.obj
 0001:000d1c90       ?GeomOverlapCallback_SphereMesh@@YA_NAEBVPxGeometry@physx@@AEBVPxTransform@2@01PEAUTriggerCache@Gu@2@@Z 00000001800d2c90 f   GuOverlapTestsMesh.obj
 0001:000d1d00       ?checkOverlapAABB_triangleGeom@Gu@physx@@YA_NAEBVPxGeometry@2@AEBVPxTransform@2@AEBVPxBounds3@2@@Z 00000001800d2d00 f   GuOverlapTestsMesh.obj
 0001:000d1e00       ?processHit@ConvexVsMeshOverlapCallback@@UEAA_NAEBUPxRaycastHit@physx@@AEBVPxVec3@3@11AEAMPEBI@Z 00000001800d2e00 f i GuOverlapTestsMesh.obj
 0001:000d2180       ??0RTree@Gu@physx@@QEAA@W4PxEMPTY@2@@Z 00000001800d3180 f   GuRTree.obj
 0001:000d2190       ?exportExtraData@RTree@Gu@physx@@QEAAXAEAVPxSerializationContext@3@@Z 00000001800d3190 f   GuRTree.obj
 0001:000d21d0       ?importExtraData@RTree@Gu@physx@@QEAAXAEAVPxDeserializationContext@3@@Z 00000001800d31d0 f   GuRTree.obj
 0001:000d2200       ?load@RTree@Gu@physx@@QEAA_NAEAVPxInputStream@3@I_N@Z 00000001800d3200 f   GuRTree.obj
 0001:000d2500       ?refitAllStaticTree@RTree@Gu@physx@@QEAAXAEAUCallbackRefit@123@PEAVPxBounds3@3@@Z 00000001800d3500 f   GuRTree.obj
 0001:000d2a60       ?validate@RTree@Gu@physx@@QEAAXPEAUCallbackRefit@123@@Z 00000001800d3a60 f   GuRTree.obj
 0001:000d2bc0       ?validateRecursive@RTree@Gu@physx@@IEAAXIURTreeNodeQ@23@PEAURTreePage@23@PEAUCallbackRefit@123@@Z 00000001800d3bc0 f   GuRTree.obj
 0001:000d2cf0       ??$traverseRay@$00@RTree@Gu@physx@@QEBAXAEBVPxVec3@2@0IPEAIPEAUCallbackRaycast@012@PEBV32@M@Z 00000001800d3cf0 f i GuRTreeQueries.obj
 0001:000d3090       ??$traverseRay@$0A@@RTree@Gu@physx@@QEBAXAEBVPxVec3@2@0IPEAIPEAUCallbackRaycast@012@PEBV32@M@Z 00000001800d4090 f i GuRTreeQueries.obj
 0001:000d33e0       ?traverseAABB@RTree@Gu@physx@@QEBAXAEBVPxVec3@3@0IPEAIPEAUCallback@123@@Z 00000001800d43e0 f   GuRTreeQueries.obj
 0001:000d35a0       ?traverseOBB@RTree@Gu@physx@@QEBAXAEBVBox@23@IPEAIPEAUCallback@123@@Z 00000001800d45a0 f   GuRTreeQueries.obj
 0001:000d3e80       ??0SweepBoxMeshHitCallback@Gu@physx@@QEAA@W4Enum@CallbackMode@12@AEBVMatrix34Padded@12@M_NAEBVBox@12@AEBVPxVec3@2@44AEBV?$PxFlags@W4Enum@PxHitFlag@physx@@G@2@M2M@Z 00000001800d4e80 f   GuSweepsMesh.obj
 0001:000d3f90       ??0SweepCapsuleMeshHitCallback@Gu@physx@@QEAA@AEAUPxSweepHit@2@AEBVMatrix34@Cm@2@M_NAEBVCapsule@12@AEBVPxVec3@2@AEBV?$PxFlags@W4Enum@PxHitFlag@physx@@G@2@2M@Z 00000001800d4f90 f   GuSweepsMesh.obj
 0001:000d4060       ??0SweepConvexMeshHitCallback@Gu@physx@@QEAA@AEBUConvexHullData@12@AEBVPxMeshScale@2@AEBVFastVertex2ShapeScaling@Cm@2@AEBVPxTransform@2@3AEBVPxVec3@2@MV?$PxFlags@W4Enum@PxHitFlag@physx@@G@2@_NM6M@Z 00000001800d5060 f   GuSweepsMesh.obj
 0001:000d49e0       ??_ESweepBoxMeshHitCallback@Gu@physx@@UEAAPEAXI@Z 00000001800d59e0 f i GuSweepsMesh.obj
 0001:000d49e0       ??_GSweepBoxMeshHitCallback@Gu@physx@@UEAAPEAXI@Z 00000001800d59e0 f i GuSweepsMesh.obj
 0001:000d4a10       ??_GSweepCapsuleMeshHitCallback@Gu@physx@@UEAAPEAXI@Z 00000001800d5a10 f i GuSweepsMesh.obj
 0001:000d4a10       ??_ESweepCapsuleMeshHitCallback@Gu@physx@@UEAAPEAXI@Z 00000001800d5a10 f i GuSweepsMesh.obj
 0001:000d4a40       ??_GSweepConvexMeshHitCallback@Gu@physx@@UEAAPEAXI@Z 00000001800d5a40 f i GuSweepsMesh.obj
 0001:000d4a40       ??_ESweepConvexMeshHitCallback@Gu@physx@@UEAAPEAXI@Z 00000001800d5a40 f i GuSweepsMesh.obj
 0001:000d4a70       ??_ESweepShapeMeshHitCallback@Gu@physx@@UEAAPEAXI@Z 00000001800d5a70 f i GuSweepsMesh.obj
 0001:000d4a70       ??_GSweepShapeMeshHitCallback@Gu@physx@@UEAAPEAXI@Z 00000001800d5a70 f i GuSweepsMesh.obj
 0001:000d4aa0       ?finalizeHit@SweepBoxMeshHitCallback@Gu@physx@@QEBA_NAEAUPxSweepHit@3@AEBVPxTriangleMeshGeometry@3@AEBVPxTransform@3@2AEBVPxVec3@3@_N4@Z 00000001800d5aa0 f   GuSweepsMesh.obj
 0001:000d5170       ?finalizeHit@SweepCapsuleMeshHitCallback@Gu@physx@@QEBA_NAEAUPxSweepHit@3@AEBVCapsule@23@AEBVPxTriangleMeshGeometry@3@AEBVPxTransform@3@_N@Z 00000001800d6170 f   GuSweepsMesh.obj
 0001:000d5300       ?finalizeHit@SweepConvexMeshHitCallback@Gu@physx@@QEAA_NAEAUPxSweepHit@3@AEBVPxTriangleMeshGeometry@3@AEBVPxTransform@3@AEBVPxConvexMeshGeometry@3@2AEBVPxVec3@3@M_N555@Z 00000001800d6300 f   GuSweepsMesh.obj
 0001:000d57f0       ?processHit@SweepBoxMeshHitCallback@Gu@physx@@UEAA_NAEBUPxRaycastHit@3@AEBVPxVec3@3@11AEAMPEBI@Z 00000001800d67f0 f   GuSweepsMesh.obj
 0001:000d6000       ?processHit@SweepCapsuleMeshHitCallback@Gu@physx@@UEAA_NAEBUPxRaycastHit@3@AEBVPxVec3@3@11AEAMPEBI@Z 00000001800d7000 f   GuSweepsMesh.obj
 0001:000d6530       ?processHit@SweepConvexMeshHitCallback@Gu@physx@@UEAA_NAEBUPxRaycastHit@3@AEBVPxVec3@3@11AEAMPEBI@Z 00000001800d7530 f   GuSweepsMesh.obj
 0001:000d6c80       ?sweepBox_MeshGeom@@YA_NAEBVPxGeometry@physx@@AEBVPxTransform@2@AEBVPxBoxGeometry@2@1AEBVBox@Gu@2@AEBVPxVec3@2@MAEAUPxSweepHit@2@V?$PxFlags@W4Enum@PxHitFlag@physx@@G@2@M@Z 00000001800d7c80 f   GuSweepsMesh.obj
 0001:000d6d10       ?sweepCapsule_MeshGeom@@YA_NAEBVPxGeometry@physx@@AEBVPxTransform@2@AEBVPxCapsuleGeometry@2@1AEBVCapsule@Gu@2@AEBVPxVec3@2@MAEAUPxSweepHit@2@V?$PxFlags@W4Enum@PxHitFlag@physx@@G@2@M@Z 00000001800d7d10 f   GuSweepsMesh.obj
 0001:000d6da0       ?sweepConvex_MeshGeom@@YA_NAEBVPxGeometry@physx@@AEBVPxTransform@2@AEBVPxConvexMeshGeometry@2@1AEBVPxVec3@2@MAEAUPxSweepHit@2@V?$PxFlags@W4Enum@PxHitFlag@physx@@G@2@M@Z 00000001800d7da0 f   GuSweepsMesh.obj
 0001:000d79e0       ??0TriangleMesh@Gu@physx@@QEAA@AEAVGuMeshFactory@2@AEAVTriangleMeshData@12@@Z 00000001800d89e0 f   GuTriangleMesh.obj
 0001:000d7b70       ??1TriangleMesh@Gu@physx@@UEAA@XZ 00000001800d8b70 f   GuTriangleMesh.obj
 0001:000d7d24       ??_ETriangleMesh@Gu@physx@@WBA@EAAPEAXI@Z 00000001800d8d24 f i GuTriangleMesh.obj
 0001:000d7d30       ??_ETriangleMesh@Gu@physx@@UEAAPEAXI@Z 00000001800d8d30 f i GuTriangleMesh.obj
 0001:000d7d30       ??_GTriangleMesh@Gu@physx@@UEAAPEAXI@Z 00000001800d8d30 f i GuTriangleMesh.obj
 0001:000d7da0       ?exportExtraData@TriangleMesh@Gu@physx@@UEAAXAEAVPxSerializationContext@3@@Z 00000001800d8da0 f   GuTriangleMesh.obj
 0001:000d7ee0       ?getLocalBounds@TriangleMesh@Gu@physx@@UEBA?AVPxBounds3@3@XZ 00000001800d8ee0 f i GuTriangleMesh.obj
 0001:000d7f70       ?getNbVertices@TriangleMesh@Gu@physx@@UEBAIXZ 00000001800d8f70 f i GuTriangleMesh.obj
 0001:000d7f80       ?getTriangleMaterialIndex@TriangleMesh@Gu@physx@@UEBAGI@Z 00000001800d8f80 f i GuTriangleMesh.obj
 0001:000d7fa0       ?getTriangleMeshFlags@TriangleMesh@Gu@physx@@UEBA?AV?$PxFlags@W4Enum@PxTriangleMeshFlag@physx@@E@3@XZ 00000001800d8fa0 f i GuTriangleMesh.obj
 0001:000d7fb0       ?getTrianglesRemap@TriangleMesh@Gu@physx@@UEBAPEBIXZ 00000001800d8fb0 f i GuTriangleMesh.obj
 0001:000d7fc0       ?getVertices@TriangleMesh@Gu@physx@@UEBAPEBVPxVec3@3@XZ 00000001800d8fc0 f i GuTriangleMesh.obj
 0001:000d7fd0       ?getVerticesForModification@TriangleMesh@Gu@physx@@UEAAPEAVPxVec3@3@XZ 00000001800d8fd0 f   GuTriangleMesh.obj
 0001:000d8010       ?importExtraData@TriangleMesh@Gu@physx@@QEAAXAEAVPxDeserializationContext@3@@Z 00000001800d9010 f   GuTriangleMesh.obj
 0001:000d8120       ?isKindOf@PxTriangleMesh@physx@@MEBA_NPEBD@Z 00000001800d9120 f i GuTriangleMesh.obj
 0001:000d8170       ?onRefCountZero@TriangleMesh@Gu@physx@@UEAAXXZ 00000001800d9170 f   GuTriangleMesh.obj
 0001:000d8210       ?refitBVH@TriangleMesh@Gu@physx@@UEAA?AVPxBounds3@3@XZ 00000001800d9210 f   GuTriangleMesh.obj
 0001:000d82e0       ??0BV4TriangleMesh@Gu@physx@@QEAA@AEAVGuMeshFactory@2@AEAVTriangleMeshData@12@@Z 00000001800d92e0 f   GuTriangleMeshBV4.obj
 0001:000d8374       ??_EBV4TriangleMesh@Gu@physx@@WBA@EAAPEAXI@Z 00000001800d9374 f i GuTriangleMeshBV4.obj
 0001:000d8380       ??_EBV4TriangleMesh@Gu@physx@@UEAAPEAXI@Z 00000001800d9380 f i GuTriangleMeshBV4.obj
 0001:000d8380       ??_GBV4TriangleMesh@Gu@physx@@UEAAPEAXI@Z 00000001800d9380 f i GuTriangleMeshBV4.obj
 0001:000d8410       ?createObject@BV4TriangleMesh@Gu@physx@@SAPEAVTriangleMesh@23@AEAPEAEAEAVPxDeserializationContext@3@@Z 00000001800d9410 f   GuTriangleMeshBV4.obj
 0001:000d8500       ?exportExtraData@BV4TriangleMesh@Gu@physx@@UEAAXAEAVPxSerializationContext@3@@Z 00000001800d9500 f   GuTriangleMeshBV4.obj
 0001:000d8540       ?getConcreteTypeName@BV4TriangleMesh@Gu@physx@@UEBAPEBDXZ 00000001800d9540 f i GuTriangleMeshBV4.obj
 0001:000d8550       _get_startup_argv_mode     00000001800d9550 f i MSVCRT:argv_mode.obj
 0001:000d8550       ?getMidphaseID@BV4TriangleMesh@Gu@physx@@UEBA?AW4Enum@PxMeshMidPhase@3@XZ 00000001800d9550 f i GuTriangleMeshBV4.obj
 0001:000d8560       ??0RTreeTriangleMesh@Gu@physx@@QEAA@AEAVGuMeshFactory@2@AEAVTriangleMeshData@12@@Z 00000001800d9560 f   GuTriangleMeshRTree.obj
 0001:000d86d8       ??_ERTreeTriangleMesh@Gu@physx@@WBA@EAAPEAXI@Z 00000001800d96d8 f i GuTriangleMeshRTree.obj
 0001:000d86f0       ??_E?$RefitCallback@G@physx@@UEAAPEAXI@Z 00000001800d96f0 f i GuTriangleMeshRTree.obj
 0001:000d86f0       ??_G?$RefitCallback@G@physx@@UEAAPEAXI@Z 00000001800d96f0 f i GuTriangleMeshRTree.obj
 0001:000d86f0       ??_E?$RefitCallback@I@physx@@UEAAPEAXI@Z 00000001800d96f0 f i GuTriangleMeshRTree.obj
 0001:000d86f0       ??_G?$RefitCallback@I@physx@@UEAAPEAXI@Z 00000001800d96f0 f i GuTriangleMeshRTree.obj
 0001:000d8720       ??_GRTreeTriangleMesh@Gu@physx@@UEAAPEAXI@Z 00000001800d9720 f i GuTriangleMeshRTree.obj
 0001:000d8720       ??_ERTreeTriangleMesh@Gu@physx@@UEAAPEAXI@Z 00000001800d9720 f i GuTriangleMeshRTree.obj
 0001:000d87e0       ?createObject@RTreeTriangleMesh@Gu@physx@@SAPEAVTriangleMesh@23@AEAPEAEAEAVPxDeserializationContext@3@@Z 00000001800d97e0 f   GuTriangleMeshRTree.obj
 0001:000d8880       ?exportExtraData@RTreeTriangleMesh@Gu@physx@@UEAAXAEAVPxSerializationContext@3@@Z 00000001800d9880 f   GuTriangleMeshRTree.obj
 0001:000d88c0       ?getConcreteTypeName@RTreeTriangleMesh@Gu@physx@@UEBAPEBDXZ 00000001800d98c0 f i GuTriangleMeshRTree.obj
 0001:000d88d0       __scrt_stub_for_is_c_termination_complete 00000001800d98d0 f i MSVCRT:ucrt_stubs.obj
 0001:000d88d0       _is_c_termination_complete 00000001800d98d0 f i MSVCRT:ucrt_stubs.obj
 0001:000d88d0       ?getMidphaseID@RTreeTriangleMesh@Gu@physx@@UEBA?AW4Enum@PxMeshMidPhase@3@XZ 00000001800d98d0 f i GuTriangleMeshRTree.obj
 0001:000d88e0       ?getVerticesForModification@RTreeTriangleMesh@Gu@physx@@UEAAPEAVPxVec3@3@XZ 00000001800d98e0 f   GuTriangleMeshRTree.obj
 0001:000d88f0       ?recomputeBounds@?$RefitCallback@G@physx@@UEAAXIAEAT__m128@@0@Z 00000001800d98f0 f i GuTriangleMeshRTree.obj
 0001:000d8c20       ?recomputeBounds@?$RefitCallback@I@physx@@UEAAXIAEAT__m128@@0@Z 00000001800d9c20 f i GuTriangleMeshRTree.obj
 0001:000d8f40       ?refitBVH@RTreeTriangleMesh@Gu@physx@@UEAA?AVPxBounds3@3@XZ 00000001800d9f40 f   GuTriangleMeshRTree.obj
 0001:000d9160       ??0BV32Tree@Gu@physx@@QEAA@PEAVSourceMesh@12@AEBVPxBounds3@2@@Z 00000001800da160 f   GuBV32.obj
 0001:000d9220       ??0BV32Tree@Gu@physx@@QEAA@XZ 00000001800da220 f   GuBV32.obj
 0001:000d9250       ??1BV32Tree@Gu@physx@@QEAA@XZ 00000001800da250 f   GuBV32.obj
 0001:000d9260       ?calculateLeafNode@BV32Tree@Gu@physx@@QEAAXAEAUBV32Data@23@@Z 00000001800da260 f   GuBV32.obj
 0001:000d94a0       ?createSOAformatNode@BV32Tree@Gu@physx@@QEAAXAEAUBV32DataPacked@23@AEBUBV32Data@23@IAEAI2@Z 00000001800da4a0 f   GuBV32.obj
 0001:000d98f0       ?load@BV32Tree@Gu@physx@@QEAA_NAEAVPxInputStream@3@_N@Z 00000001800da8f0 f   GuBV32.obj
 0001:000d9b10       ?release@BV32Tree@Gu@physx@@QEAAXXZ 00000001800dab10 f   GuBV32.obj
 0001:000d9ba0       ??0BV32Node@@QEAA@XZ       00000001800daba0 f i GuBV32Build.obj
 0001:000d9ec0       ?BuildBV32Ex@Gu@physx@@YA_NAEAVBV32Tree@12@AEAVSourceMesh@12@MI@Z 00000001800daec0 f   GuBV32Build.obj
 0001:000dd680       ?pcmContactBoxBox@Gu@physx@@YA_NAEBVGeometryUnion@12@0AEBVPxTransform@2@1AEBUNarrowPhaseParams@12@AEAUCache@12@AEAVContactBuffer@12@PEAVRenderOutput@Cm@2@@Z 00000001800de680 f   GuPCMContactBoxBox.obj
 0001:000de490       ??$gjkPenetration@U?$RelativeConvex@VBoxV@Gu@physx@@@Gu@physx@@U?$LocalConvex@VConvexHullNoScaleV@Gu@physx@@@23@@Gu@physx@@YA?AW4GjkStatus@01@AEBU?$RelativeConvex@VBoxV@Gu@physx@@@01@AEBU?$LocalConvex@VConvexHullNoScaleV@Gu@physx@@@01@AEBT__m128@@2_NPEIAE4AEAEAEAUGjkOutput@01@@Z 00000001800df490 f i GuPCMContactBoxConvex.obj
 0001:000e0080       ?pcmContactBoxConvex@Gu@physx@@YA_NAEBVGeometryUnion@12@0AEBVPxTransform@2@1AEBUNarrowPhaseParams@12@AEAUCache@12@AEAVContactBuffer@12@PEAVRenderOutput@Cm@2@@Z 00000001800e1080 f   GuPCMContactBoxConvex.obj
 0001:000e0f10       ?support@?$LocalConvex@VConvexHullNoScaleV@Gu@physx@@@Gu@physx@@UEBA?AT__m128@@AEBT4@@Z 00000001800e1f10 f i GuPCMContactBoxConvex.obj
 0001:000e0f60       ?support@?$LocalConvex@VConvexHullNoScaleV@Gu@physx@@@Gu@physx@@UEBA?AT__m128@@AEBT4@AEAH@Z 00000001800e1f60 f i GuPCMContactBoxConvex.obj
 0001:000e0fc0       ?supportPoint@?$LocalConvex@VConvexHullNoScaleV@Gu@physx@@@Gu@physx@@UEBA?AT__m128@@H@Z 00000001800e1fc0 f i GuPCMContactBoxConvex.obj
 0001:000e0ff0       ?pcmContactCapsuleBox@Gu@physx@@YA_NAEBVGeometryUnion@12@0AEBVPxTransform@2@1AEBUNarrowPhaseParams@12@AEAUCache@12@AEAVContactBuffer@12@PEAVRenderOutput@Cm@2@@Z 00000001800e1ff0 f   GuPCMContactCapsuleBox.obj
 0001:000e1f50       ?pcmContactCapsuleCapsule@Gu@physx@@YA_NAEBVGeometryUnion@12@0AEBVPxTransform@2@1AEBUNarrowPhaseParams@12@AEAUCache@12@AEAVContactBuffer@12@PEAVRenderOutput@Cm@2@@Z 00000001800e2f50 f   GuPCMContactCapsuleCapsule.obj
 0001:000e27d0       ??$gjkPenetration@U?$LocalConvex@VCapsuleV@Gu@physx@@@Gu@physx@@U?$LocalConvex@VConvexHullNoScaleV@Gu@physx@@@23@@Gu@physx@@YA?AW4GjkStatus@01@AEBU?$LocalConvex@VCapsuleV@Gu@physx@@@01@AEBU?$LocalConvex@VConvexHullNoScaleV@Gu@physx@@@01@AEBT__m128@@2_NPEIAE4AEAEAEAUGjkOutput@01@@Z 00000001800e37d0 f i GuPCMContactCapsuleConvex.obj
 0001:000e3f30       ?pcmContactCapsuleConvex@Gu@physx@@YA_NAEBVGeometryUnion@12@0AEBVPxTransform@2@1AEBUNarrowPhaseParams@12@AEAUCache@12@AEAVContactBuffer@12@PEAVRenderOutput@Cm@2@@Z 00000001800e4f30 f   GuPCMContactCapsuleConvex.obj
 0001:000e5140       ??0PCMMeshContactGeneration@Gu@physx@@QEAA@AEBT__m128@@0AEBVPsTransformV@aos@shdfnd@2@1AEAVMultiplePersistentContactManifold@12@AEAVContactBuffer@12@PEAV?$InlineArray@I$0EEA@V?$ReflectionAllocator@I@shdfnd@physx@@@62@PEAVRenderOutput@Cm@2@@Z 00000001800e6140 f i GuPCMContactCapsuleHeightField.obj
 0001:000e5a50       ??_GPCMCapsuleVsHeightfieldContactGenerationCallback@physx@@UEAAPEAXI@Z 00000001800e6a50 f i GuPCMContactCapsuleHeightField.obj
 0001:000e5a50       ??_EPCMCapsuleVsHeightfieldContactGenerationCallback@physx@@UEAAPEAXI@Z 00000001800e6a50 f i GuPCMContactCapsuleHeightField.obj
 0001:000e5a80       ?onEvent@?$PCMHeightfieldContactGenerationCallback@UPCMCapsuleVsHeightfieldContactGenerationCallback@physx@@@Gu@physx@@UEAA_NIPEAI@Z 00000001800e6a80 f i GuPCMContactCapsuleHeightField.obj
 0001:000e6040       ?pcmContactCapsuleHeightField@Gu@physx@@YA_NAEBVGeometryUnion@12@0AEBVPxTransform@2@1AEBUNarrowPhaseParams@12@AEAUCache@12@AEAVContactBuffer@12@PEAVRenderOutput@Cm@2@@Z 00000001800e7040 f   GuPCMContactCapsuleHeightField.obj
 0001:000e6d60       ??$processTriangleCache@$0BA@@PCMCapsuleVsMeshContactGenerationCallback@physx@@QEAAXAEAU?$TriangleCache@$0BA@@Gu@1@@Z 00000001800e7d60 f i GuPCMContactCapsuleMesh.obj
 0001:000e6df0       ??_EPCMCapsuleVsMeshContactGenerationCallback@physx@@UEAAPEAXI@Z 00000001800e7df0 f i GuPCMContactCapsuleMesh.obj
 0001:000e6df0       ??_GPCMCapsuleVsMeshContactGenerationCallback@physx@@UEAAPEAXI@Z 00000001800e7df0 f i GuPCMContactCapsuleMesh.obj
 0001:000e6e20       ?pcmContactCapsuleMesh@Gu@physx@@YA_NAEBVGeometryUnion@12@0AEBVPxTransform@2@1AEBUNarrowPhaseParams@12@AEAUCache@12@AEAVContactBuffer@12@PEAVRenderOutput@Cm@2@@Z 00000001800e7e20 f   GuPCMContactCapsuleMesh.obj
 0001:000e7d30       ?processHit@?$PCMMeshContactGenerationCallback@UPCMCapsuleVsMeshContactGenerationCallback@physx@@@Gu@physx@@UEAA_NAEBUPxRaycastHit@3@AEBVPxVec3@3@11AEAMPEBI@Z 00000001800e8d30 f i GuPCMContactCapsuleMesh.obj
 0001:000e80f0       ??$sort@USortedTriangle@Gu@physx@@U?$Less@USortedTriangle@Gu@physx@@@shdfnd@3@V?$ReflectionAllocator@USortedTriangle@Gu@physx@@@53@@shdfnd@physx@@YAXPEAUSortedTriangle@Gu@1@IAEBU?$Less@USortedTriangle@Gu@physx@@@01@AEBV?$ReflectionAllocator@USortedTriangle@Gu@physx@@@01@I@Z 00000001800e90f0 f i GuPCMContactConvexCommon.obj
 0001:000e8580       ?addContactsToPatch@PCMConvexVsMeshContactGeneration@Gu@physx@@QEAAXAEBT__m128@@I@Z 00000001800e9580 f   GuPCMContactConvexCommon.obj
 0001:000e8ea0       ?addToPatch@PCMSphereVsMeshContactGeneration@Gu@physx@@QEAAXAEBT__m128@@0T4@I@Z 00000001800e9ea0 f   GuPCMContactConvexCommon.obj
 0001:000e9540       ?allocate@?$ReflectionAllocator@USortedTriangle@Gu@physx@@@shdfnd@physx@@QEAAPEAX_KPEBDH@Z 00000001800ea540 f i GuPCMContactConvexCommon.obj
 0001:000e95e0       ?doSupport@?$SupportLocalImpl@VTriangleV@Gu@physx@@@Gu@physx@@UEBA?AT__m128@@AEBT4@@Z 00000001800ea5e0 f i GuPCMContactConvexCommon.obj
 0001:000e9670       ?doSupport@?$SupportLocalImpl@VTriangleV@Gu@physx@@@Gu@physx@@UEBAXAEBT__m128@@AEAT4@1@Z 00000001800ea670 f i GuPCMContactConvexCommon.obj
 0001:000e96e0       ?generateContacts@PCMCapsuleVsMeshContactGeneration@Gu@physx@@SA_NAEBT__m128@@0000I000PEAVMeshPersistentContact@23@AEAI@Z 00000001800ea6e0 f   GuPCMContactConvexCommon.obj
 0001:000e9b60       ?generateEE@PCMCapsuleVsMeshContactGeneration@Gu@physx@@QEAAXAEBT__m128@@000I00PEAVMeshPersistentContact@23@AEAI@Z 00000001800eab60 f   GuPCMContactConvexCommon.obj
 0001:000e9de0       ?generateEEMTD@PCMCapsuleVsMeshContactGeneration@Gu@physx@@SAXAEBT__m128@@000I00PEAVMeshPersistentContact@23@AEAI@Z 00000001800eade0 f   GuPCMContactConvexCommon.obj
 0001:000ea030       ?generateLastContacts@PCMConvexVsMeshContactGeneration@Gu@physx@@QEAAXXZ 00000001800eb030 f   GuPCMContactConvexCommon.obj
 0001:000ea570       ?generateLastContacts@PCMSphereVsMeshContactGeneration@Gu@physx@@QEAAXXZ 00000001800eb570 f   GuPCMContactConvexCommon.obj
 0001:000ea9e0       ?growAndPushBack@?$Array@USortedTriangle@Gu@physx@@V?$InlineAllocator@$0IAA@V?$ReflectionAllocator@USortedTriangle@Gu@physx@@@shdfnd@physx@@@shdfnd@3@@shdfnd@physx@@IEAAAEAUSortedTriangle@Gu@3@AEBU453@@Z 00000001800eb9e0 f i GuPCMContactConvexCommon.obj
 0001:000eb060       ?pcmDistanceSegmentTriangleSquared@Gu@physx@@YA?AT__m128@@AEBT3@0000AEAT3@11@Z 00000001800ec060 f   GuPCMContactConvexCommon.obj
 0001:000eb9a0       ?populateVerts@?$SupportLocalImpl@VTriangleV@Gu@physx@@@Gu@physx@@UEBAXPEBEIPEBVPxVec3@3@PEAT__m128@@@Z 00000001800ec9a0 f i GuPCMContactConvexCommon.obj
 0001:000ebae0       ?processTriangle@PCMCapsuleVsMeshContactGeneration@Gu@physx@@QEAA_NPEBVPxVec3@3@IEPEBI@Z 00000001800ecae0 f   GuPCMContactConvexCommon.obj
 0001:000ec680       ?processTriangle@PCMCapsuleVsMeshContactGeneration@Gu@physx@@SA_NAEBVTriangleV@23@IAEBVCapsuleV@23@AEBT__m128@@EPEAVMeshPersistentContact@23@AEAI@Z 00000001800ed680 f   GuPCMContactConvexCommon.obj
 0001:000ec9c0       ?processTriangle@PCMConvexVsMeshContactGeneration@Gu@physx@@QEAA_NPEBVPxVec3@3@IEPEBI@Z 00000001800ed9c0 f   GuPCMContactConvexCommon.obj
 0001:000ecf30       ?processTriangle@PCMConvexVsMeshContactGeneration@Gu@physx@@SA_NAEBUPolygonalData@23@PEAVSupportLocal@23@PEBVPxVec3@3@IEAEBT__m128@@_NAEBVPsTransformV@aos@shdfnd@3@AEBVPsMatTransformV@9shdfnd@3@PEAVMeshPersistentContact@23@AEAI@Z 00000001800edf30 f   GuPCMContactConvexCommon.obj
 0001:000ed1b0       ?processTriangle@PCMSphereVsMeshContactGeneration@Gu@physx@@QEAA_NPEBVPxVec3@3@IEPEBI@Z 00000001800ee1b0 f   GuPCMContactConvexCommon.obj
 0001:000ed5c0       ??$gjkPenetration@U?$RelativeConvex@VConvexHullNoScaleV@Gu@physx@@@Gu@physx@@U?$LocalConvex@VConvexHullNoScaleV@Gu@physx@@@23@@Gu@physx@@YA?AW4GjkStatus@01@AEBU?$RelativeConvex@VConvexHullNoScaleV@Gu@physx@@@01@AEBU?$LocalConvex@VConvexHullNoScaleV@Gu@physx@@@01@AEBT__m128@@2_NPEIAE4AEAEAEAUGjkOutput@01@@Z 00000001800ee5c0 f i GuPCMContactConvexConvex.obj
 0001:000eeb30       ??$gjkPenetration@U?$RelativeConvex@VConvexHullNoScaleV@Gu@physx@@@Gu@physx@@U?$LocalConvex@VConvexHullV@Gu@physx@@@23@@Gu@physx@@YA?AW4GjkStatus@01@AEBU?$RelativeConvex@VConvexHullNoScaleV@Gu@physx@@@01@AEBU?$LocalConvex@VConvexHullV@Gu@physx@@@01@AEBT__m128@@2_NPEIAE4AEAEAEAUGjkOutput@01@@Z 00000001800efb30 f i GuPCMContactConvexConvex.obj
 0001:000f0110       ??$gjkPenetration@U?$RelativeConvex@VConvexHullV@Gu@physx@@@Gu@physx@@U?$LocalConvex@VConvexHullNoScaleV@Gu@physx@@@23@@Gu@physx@@YA?AW4GjkStatus@01@AEBU?$RelativeConvex@VConvexHullV@Gu@physx@@@01@AEBU?$LocalConvex@VConvexHullNoScaleV@Gu@physx@@@01@AEBT__m128@@2_NPEIAE4AEAEAEAUGjkOutput@01@@Z 00000001800f1110 f i GuPCMContactConvexConvex.obj
 0001:000f20e0       ?pcmContactConvexConvex@Gu@physx@@YA_NAEBVGeometryUnion@12@0AEBVPxTransform@2@1AEBUNarrowPhaseParams@12@AEAUCache@12@AEAVContactBuffer@12@PEAVRenderOutput@Cm@2@@Z 00000001800f30e0 f   GuPCMContactConvexConvex.obj
 0001:000f3250       ?support@?$RelativeConvex@VConvexHullNoScaleV@Gu@physx@@@Gu@physx@@UEBA?AT__m128@@AEBT4@@Z 00000001800f4250 f i GuPCMContactConvexConvex.obj
 0001:000f3300       ?support@?$RelativeConvex@VConvexHullNoScaleV@Gu@physx@@@Gu@physx@@UEBA?AT__m128@@AEBT4@AEAH@Z 00000001800f4300 f i GuPCMContactConvexConvex.obj
 0001:000f33c0       ?supportPoint@?$RelativeConvex@VConvexHullNoScaleV@Gu@physx@@@Gu@physx@@UEBA?AT__m128@@H@Z 00000001800f43c0 f i GuPCMContactConvexConvex.obj
 0001:000f3420       ??_GPCMConvexVsHeightfieldContactGenerationCallback@physx@@UEAAPEAXI@Z 00000001800f4420 f i GuPCMContactConvexHeightField.obj
 0001:000f3420       ??_EPCMConvexVsHeightfieldContactGenerationCallback@physx@@UEAAPEAXI@Z 00000001800f4420 f i GuPCMContactConvexHeightField.obj
 0001:000f3450       ?PCMContactConvexHeightfield@Gu@physx@@YA_NAEBUPolygonalData@12@PEAVSupportLocal@12@AEBT__m128@@AEBVPxBounds3@2@AEBVPxHeightFieldGeometry@2@AEBVPxTransform@2@5MAEAVContactBuffer@12@AEBVFastVertex2ShapeScaling@Cm@2@_NAEAVMultiplePersistentContactManifold@12@PEAVRenderOutput@Cm@2@@Z 00000001800f4450 f   GuPCMContactConvexHeightField.obj
 0001:000f3f00       ?onEvent@?$PCMHeightfieldContactGenerationCallback@UPCMConvexVsHeightfieldContactGenerationCallback@physx@@@Gu@physx@@UEAA_NIPEAI@Z 00000001800f4f00 f i GuPCMContactConvexHeightField.obj
 0001:000f44c0       ?pcmContactBoxHeightField@Gu@physx@@YA_NAEBVGeometryUnion@12@0AEBVPxTransform@2@1AEBUNarrowPhaseParams@12@AEAUCache@12@AEAVContactBuffer@12@PEAVRenderOutput@Cm@2@@Z 00000001800f54c0 f   GuPCMContactConvexHeightField.obj
 0001:000f4740       ?pcmContactConvexHeightField@Gu@physx@@YA_NAEBVGeometryUnion@12@0AEBVPxTransform@2@1AEBUNarrowPhaseParams@12@AEAUCache@12@AEAVContactBuffer@12@PEAVRenderOutput@Cm@2@@Z 00000001800f5740 f   GuPCMContactConvexHeightField.obj
 0001:000f4de0       ??$processTriangleCache@$0BA@@PCMConvexVsMeshContactGenerationCallback@physx@@QEAAXAEAU?$TriangleCache@$0BA@@Gu@1@@Z 00000001800f5de0 f i GuPCMContactConvexMesh.obj
 0001:000f4e70       ??_GPCMConvexVsMeshContactGenerationCallback@physx@@UEAAPEAXI@Z 00000001800f5e70 f i GuPCMContactConvexMesh.obj
 0001:000f4e70       ??_EPCMConvexVsMeshContactGenerationCallback@physx@@UEAAPEAXI@Z 00000001800f5e70 f i GuPCMContactConvexMesh.obj
 0001:000f4ea0       ?PCMContactConvexMesh@Gu@physx@@YA_NAEBUPolygonalData@12@PEAVSupportLocal@12@AEBT__m128@@AEBVPxBounds3@2@AEBUPxTriangleMeshGeometryLL@2@AEBVPxTransform@2@5MAEAVContactBuffer@12@AEBVFastVertex2ShapeScaling@Cm@2@7_N8AEAVMultiplePersistentContactManifold@12@PEAVRenderOutput@Cm@2@@Z 00000001800f5ea0 f   GuPCMContactConvexMesh.obj
 0001:000f5a50       ?pcmContactBoxMesh@Gu@physx@@YA_NAEBVGeometryUnion@12@0AEBVPxTransform@2@1AEBUNarrowPhaseParams@12@AEAUCache@12@AEAVContactBuffer@12@PEAVRenderOutput@Cm@2@@Z 00000001800f6a50 f   GuPCMContactConvexMesh.obj
 0001:000f5d70       ?pcmContactConvexMesh@Gu@physx@@YA_NAEBVGeometryUnion@12@0AEBVPxTransform@2@1AEBUNarrowPhaseParams@12@AEAUCache@12@AEAVContactBuffer@12@PEAVRenderOutput@Cm@2@@Z 00000001800f6d70 f   GuPCMContactConvexMesh.obj
 0001:000f6530       ?processHit@?$PCMMeshContactGenerationCallback@UPCMConvexVsMeshContactGenerationCallback@physx@@@Gu@physx@@UEAA_NAEBUPxRaycastHit@3@AEBVPxVec3@3@11AEAMPEBI@Z 00000001800f7530 f i GuPCMContactConvexMesh.obj
 0001:000f6960       ?addGJKEPAContacts@Gu@physx@@YA_NPEBUGjkConvex@12@0AEBVPsMatTransformV@aos@shdfnd@2@W4GjkStatus@12@PEAVPersistentContact@12@T__m128@@4AEAUGjkOutput@12@AEAVPersistentContactManifold@12@@Z 00000001800f7960 f   GuPCMContactGenBoxConvex.obj
 0001:000f6b60       ?buildPartialHull@Gu@physx@@YAXAEBUPolygonalData@12@PEAVSupportLocal@12@AEAVSeparatingAxes@12@AEBT__m128@@3@Z 00000001800f7b60 f   GuPCMContactGenBoxConvex.obj
 0001:000f6e20       ?computeMTD@Gu@physx@@YA_NAEAUPolygonalData@12@0PEAVSupportLocal@12@1AEAT__m128@@2@Z 00000001800f7e20 f   GuPCMContactGenBoxConvex.obj
 0001:000f7480       ?generateFullContactManifold@Gu@physx@@YA_NAEAUPolygonalData@12@0PEAVSupportLocal@12@1PEAVPersistentContact@12@AEAIAEBT__m128@@444MM_NPEAVRenderOutput@Cm@2@M@Z 00000001800f8480 f   GuPCMContactGenBoxConvex.obj
 0001:000f8cb0       ?generatedContacts@Gu@physx@@YAXAEAUPolygonalData@12@0AEBUHullPolygonData@12@1PEAVSupportLocal@12@2AEBVPsMatTransformV@aos@shdfnd@2@PEAVPersistentContact@12@AEAIAEBT__m128@@PEAVRenderOutput@Cm@2@@Z 00000001800f9cb0 f   GuPCMContactGenBoxConvex.obj
 0001:000fa3d0       ?computeMTD@Gu@physx@@YA_NAEBVCapsuleV@12@AEAUPolygonalData@12@PEAVSupportLocal@12@AEAT__m128@@3@Z 00000001800fb3d0 f   GuPCMContactGenSphereCapsule.obj
 0001:000fa4c0       ?generateCapsuleBoxFullContactManifold@Gu@physx@@YA_NAEBVCapsuleV@12@AEAUPolygonalData@12@PEAVSupportLocal@12@AEBVPsMatTransformV@aos@shdfnd@2@PEAVPersistentContact@12@AEAIAEBT__m128@@AEAT__m128@@6M_NMPEAVRenderOutput@Cm@2@@Z 00000001800fb4c0 f   GuPCMContactGenSphereCapsule.obj
 0001:000fad40       ?generateFullContactManifold@Gu@physx@@YA_NAEBVCapsuleV@12@AEAUPolygonalData@12@PEAVSupportLocal@12@AEBVPsMatTransformV@aos@shdfnd@2@PEAVPersistentContact@12@AEAIAEBT__m128@@AEAT__m128@@6M_NM@Z 00000001800fbd40 f   GuPCMContactGenSphereCapsule.obj
 0001:000fb640       ?generateSphereFullContactManifold@Gu@physx@@YA_NAEBVCapsuleV@12@AEAUPolygonalData@12@PEAVSupportLocal@12@PEAVPersistentContact@12@AEAIAEBT__m128@@AEAT7@_N@Z 00000001800fc640 f   GuPCMContactGenSphereCapsule.obj
 0001:000fba90       ?generatedCapsuleBoxFaceContacts@Gu@physx@@YAXAEBVCapsuleV@12@AEAUPolygonalData@12@AEBUHullPolygonData@12@PEAVSupportLocal@12@AEBVPsMatTransformV@aos@shdfnd@2@PEAVPersistentContact@12@AEAIAEBT__m128@@7@Z 00000001800fca90 f   GuPCMContactGenSphereCapsule.obj
 0001:000fc230       ?generatedContactsEEContacts@Gu@physx@@YAXAEBVCapsuleV@12@AEAUPolygonalData@12@AEBUHullPolygonData@12@PEAVSupportLocal@12@AEBVPsMatTransformV@aos@shdfnd@2@PEAVPersistentContact@12@AEAIAEBT__m128@@7@Z 00000001800fd230 f   GuPCMContactGenSphereCapsule.obj
 0001:000fcea0       ?pcmContactPlaneBox@Gu@physx@@YA_NAEBVGeometryUnion@12@0AEBVPxTransform@2@1AEBUNarrowPhaseParams@12@AEAUCache@12@AEAVContactBuffer@12@PEAVRenderOutput@Cm@2@@Z 00000001800fdea0 f   GuPCMContactPlaneBox.obj
 0001:000fda50       ?pcmContactPlaneCapsule@Gu@physx@@YA_NAEBVGeometryUnion@12@0AEBVPxTransform@2@1AEBUNarrowPhaseParams@12@AEAUCache@12@AEAVContactBuffer@12@PEAVRenderOutput@Cm@2@@Z 00000001800fea50 f   GuPCMContactPlaneCapsule.obj
 0001:000fe1f0       ?pcmContactPlaneConvex@Gu@physx@@YA_NAEBVGeometryUnion@12@0AEBVPxTransform@2@1AEBUNarrowPhaseParams@12@AEAUCache@12@AEAVContactBuffer@12@PEAVRenderOutput@Cm@2@@Z 00000001800ff1f0 f   GuPCMContactPlaneConvex.obj
 0001:000feb50       ?pcmContactSphereBox@Gu@physx@@YA_NAEBVGeometryUnion@12@0AEBVPxTransform@2@1AEBUNarrowPhaseParams@12@AEAUCache@12@AEAVContactBuffer@12@PEAVRenderOutput@Cm@2@@Z 00000001800ffb50 f   GuPCMContactSphereBox.obj
 0001:000fefc0       ?pcmContactSphereCapsule@Gu@physx@@YA_NAEBVGeometryUnion@12@0AEBVPxTransform@2@1AEBUNarrowPhaseParams@12@AEAUCache@12@AEAVContactBuffer@12@PEAVRenderOutput@Cm@2@@Z 00000001800fffc0 f   GuPCMContactSphereCapsule.obj
 0001:000ff420       ?pcmContactSphereConvex@Gu@physx@@YA_NAEBVGeometryUnion@12@0AEBVPxTransform@2@1AEBUNarrowPhaseParams@12@AEAUCache@12@AEAVContactBuffer@12@PEAVRenderOutput@Cm@2@@Z 0000000180100420 f   GuPCMContactSphereConvex.obj
 0001:00100100       ??1?$Array@USortedTriangle@Gu@physx@@V?$InlineAllocator@$0IAA@V?$ReflectionAllocator@USortedTriangle@Gu@physx@@@shdfnd@physx@@@shdfnd@3@@shdfnd@physx@@QEAA@XZ 0000000180101100 f i GuPCMContactSphereHeightField.obj
 0001:00100170       ??_EPCMSphereVsHeightfieldContactGenerationCallback@physx@@UEAAPEAXI@Z 0000000180101170 f i GuPCMContactSphereHeightField.obj
 0001:00100170       ??_GPCMSphereVsHeightfieldContactGenerationCallback@physx@@UEAAPEAXI@Z 0000000180101170 f i GuPCMContactSphereHeightField.obj
 0001:001001c0       ?onEvent@?$PCMHeightfieldContactGenerationCallback@UPCMSphereVsHeightfieldContactGenerationCallback@physx@@@Gu@physx@@UEAA_NIPEAI@Z 00000001801011c0 f i GuPCMContactSphereHeightField.obj
 0001:00100780       ?pcmContactSphereHeightField@Gu@physx@@YA_NAEBVGeometryUnion@12@0AEBVPxTransform@2@1AEBUNarrowPhaseParams@12@AEAUCache@12@AEAVContactBuffer@12@PEAVRenderOutput@Cm@2@@Z 0000000180101780 f   GuPCMContactSphereHeightField.obj
 0001:00101220       ??$processTriangleCache@$0BA@@PCMSphereVsMeshContactGenerationCallback@physx@@QEAAXAEAU?$TriangleCache@$0BA@@Gu@1@@Z 0000000180102220 f i GuPCMContactSphereMesh.obj
 0001:001012b0       ??_GPCMSphereVsMeshContactGenerationCallback@physx@@UEAAPEAXI@Z 00000001801022b0 f i GuPCMContactSphereMesh.obj
 0001:001012b0       ??_EPCMSphereVsMeshContactGenerationCallback@physx@@UEAAPEAXI@Z 00000001801022b0 f i GuPCMContactSphereMesh.obj
 0001:00101300       ?pcmContactSphereMesh@Gu@physx@@YA_NAEBVGeometryUnion@12@0AEBVPxTransform@2@1AEBUNarrowPhaseParams@12@AEAUCache@12@AEAVContactBuffer@12@PEAVRenderOutput@Cm@2@@Z 0000000180102300 f   GuPCMContactSphereMesh.obj
 0001:00101ef0       ?processHit@?$PCMMeshContactGenerationCallback@UPCMSphereVsMeshContactGenerationCallback@physx@@@Gu@physx@@UEAA_NAEBUPxRaycastHit@3@AEBVPxVec3@3@11AEAMPEBI@Z 0000000180102ef0 f i GuPCMContactSphereMesh.obj
 0001:001022b0       ?pcmContactSpherePlane@Gu@physx@@YA_NAEBVGeometryUnion@12@0AEBVPxTransform@2@1AEBUNarrowPhaseParams@12@AEAUCache@12@AEAVContactBuffer@12@PEAVRenderOutput@Cm@2@@Z 00000001801032b0 f   GuPCMContactSpherePlane.obj
 0001:00102440       ?pcmContactSphereSphere@Gu@physx@@YA_NAEBVGeometryUnion@12@0AEBVPxTransform@2@1AEBUNarrowPhaseParams@12@AEAUCache@12@AEAVContactBuffer@12@PEAVRenderOutput@Cm@2@@Z 0000000180103440 f   GuPCMContactSphereSphere.obj
 0001:00102520       ?getPCMConvexData@Gu@physx@@YAXAEBVConvexHullV@12@_NAEAUPolygonalData@12@@Z 0000000180103520 f   GuPCMShapeConvex.obj
 0001:00102680       ?getPCMConvexData@Gu@physx@@YA_NAEBVGeometryUnion@12@AEAVFastVertex2ShapeScaling@Cm@2@AEAVPxBounds3@2@AEAUPolygonalData@12@@Z 0000000180103680 f   GuPCMShapeConvex.obj
 0001:00102a40       ?getPolygonalData@PCMPolygonalBox@Gu@physx@@QEBAXPEIAUPolygonalData@23@@Z 0000000180103a40 f   GuPCMShapeConvex.obj
 0001:00102a90       ?generatePolyDataContactManifold@PCMConvexVsMeshContactGeneration@Gu@physx@@QEAA_NAEAVTriangleV@23@IIEPEAVMeshPersistentContact@23@AEAIAEBT__m128@@AEAT6@@Z 0000000180103a90 f   GuPCMTriangleContactGen.obj
 0001:00102bb0       ?generateTriangleFullContactManifold@PCMConvexVsMeshContactGeneration@Gu@physx@@QEAA_NAEAVTriangleV@23@IPEBIEAEBUPolygonalData@23@PEAV?$SupportLocalImpl@VTriangleV@Gu@physx@@@23@PEAVSupportLocal@23@PEAVMeshPersistentContact@23@AEAIAEBT__m128@@AEAT9@@Z 0000000180103bb0 f   GuPCMTriangleContactGen.obj
 0001:001034b0       ?generateTriangleFullContactManifold@PCMConvexVsMeshContactGeneration@Gu@physx@@SA_NAEAVTriangleV@23@IEAEBUPolygonalData@23@PEAV?$SupportLocalImpl@VTriangleV@Gu@physx@@@23@PEAVSupportLocal@23@PEAVMeshPersistentContact@23@AEAIAEBT__m128@@AEAT9@PEAVRenderOutput@Cm@3@@Z 00000001801044b0 f   GuPCMTriangleContactGen.obj
 0001:00105bd0       ?addBatchManifoldContacts2@PersistentContactManifold@Gu@physx@@QEAAXPEBVPersistentContact@23@I@Z 0000000180106bd0 f   GuPersistentContactManifold.obj
 0001:00105c40       ?addBatchManifoldContacts@PersistentContactManifold@Gu@physx@@QEAAXPEBVPersistentContact@23@IM@Z 0000000180106c40 f   GuPersistentContactManifold.obj
 0001:00105cc0       ?addBatchManifoldContactsCluster@PersistentContactManifold@Gu@physx@@QEAAXPEBVPersistentContact@23@I@Z 0000000180106cc0 f   GuPersistentContactManifold.obj
 0001:00105f40       ?addManifoldContactPoints@MultiplePersistentContactManifold@Gu@physx@@QEAAXPEAVMeshPersistentContact@23@IPEAPEAUPCMContactPatch@23@IAEBT__m128@@2E@Z 0000000180106f40 f   GuPersistentContactManifold.obj
 0001:00106350       ?addManifoldContactsToContactBuffer@MultiplePersistentContactManifold@Gu@physx@@QEAA_NAEAVContactBuffer@23@AEBVPsTransformV@aos@shdfnd@3@1AEBT__m128@@@Z 0000000180107350 f   GuPersistentContactManifold.obj
 0001:00106600       ?addManifoldContactsToContactBuffer@MultiplePersistentContactManifold@Gu@physx@@QEAA_NAEAVContactBuffer@23@AEBVPsTransformV@aos@shdfnd@3@@Z 0000000180107600 f   GuPersistentContactManifold.obj
 0001:00106870       ?addManifoldContactsToContactBuffer@PersistentContactManifold@Gu@physx@@QEAAXAEAVContactBuffer@23@AEBT__m128@@1AEBVPsTransformV@aos@shdfnd@3@11@Z 0000000180107870 f   GuPersistentContactManifold.obj
 0001:00106a00       ?addManifoldContactsToContactBuffer@PersistentContactManifold@Gu@physx@@QEAAXAEAVContactBuffer@23@AEBT__m128@@AEBVPsMatTransformV@aos@shdfnd@3@@Z 0000000180107a00 f   GuPersistentContactManifold.obj
 0001:00106aa0       ?addManifoldContactsToContactBuffer@PersistentContactManifold@Gu@physx@@QEAAXAEAVContactBuffer@23@AEBT__m128@@AEBVPsTransformV@aos@shdfnd@3@1@Z 0000000180107aa0 f   GuPersistentContactManifold.obj
 0001:00106c00       ?addManifoldPoint2@PersistentContactManifold@Gu@physx@@QEAAIAEBT__m128@@000@Z 0000000180107c00 f   GuPersistentContactManifold.obj
 0001:00106d30       ?addManifoldPoint@Gu@physx@@YAXPEAVPersistentContact@12@AEAVPersistentContactManifold@12@AEAUGjkOutput@12@AEBVPsMatTransformV@aos@shdfnd@2@T__m128@@@Z 0000000180107d30 f   GuPersistentContactManifold.obj
 0001:00106ee0       ?addManifoldPoint@PersistentContactManifold@Gu@physx@@QEAAIAEBT__m128@@000@Z 0000000180107ee0 f   GuPersistentContactManifold.obj
 0001:00107330       ?drawLine@MultiplePersistentContactManifold@Gu@physx@@SAXAEAVRenderOutput@Cm@3@AEBT__m128@@1I@Z 0000000180108330 f   GuPersistentContactManifold.obj
 0001:001073f0       ?drawLine@MultiplePersistentContactManifold@Gu@physx@@SAXAEAVRenderOutput@Cm@3@VPxVec3@3@1I@Z 00000001801083f0 f   GuPersistentContactManifold.obj
 0001:001074b0       ?drawManifold@MultiplePersistentContactManifold@Gu@physx@@QEAAXAEAVRenderOutput@Cm@3@AEBVPsTransformV@aos@shdfnd@3@1@Z 00000001801084b0 f   GuPersistentContactManifold.obj
 0001:00107c60       ?drawPoint@MultiplePersistentContactManifold@Gu@physx@@SAXAEAVRenderOutput@Cm@3@AEBT__m128@@MI@Z 0000000180108c60 f   GuPersistentContactManifold.obj
 0001:00107e40       ?drawPolygon@MultiplePersistentContactManifold@Gu@physx@@SAXAEAVRenderOutput@Cm@3@AEBVPsTransformV@aos@shdfnd@3@PEAT__m128@@II@Z 0000000180108e40 f   GuPersistentContactManifold.obj
 0001:001080b0       ?findRotationMatrixFromZAxis@Gu@physx@@YA?AUMat33V@aos@shdfnd@2@AEBT__m128@@@Z 00000001801090b0 f   GuPersistentContactManifold.obj
 0001:00108330       ?fromBuffer@MultiplePersistentContactManifold@Gu@physx@@QEAAXPEIAE@Z 0000000180109330 f   GuPersistentContactManifold.obj
 0001:00108480       ?reduceBatchContacts2@PersistentContactManifold@Gu@physx@@QEAAXPEBVPersistentContact@23@I@Z 0000000180109480 f   GuPersistentContactManifold.obj
 0001:00108680       ?reduceBatchContacts@PersistentContactManifold@Gu@physx@@QEAAXPEBVPersistentContact@23@IM@Z 0000000180109680 f   GuPersistentContactManifold.obj
 0001:00108b40       ?reduceBatchContactsCapsule@SinglePersistentContactManifold@Gu@physx@@QEAA?AT__m128@@PEBVMeshPersistentContact@23@IAEAUPCMContactPatch@23@@Z 0000000180109b40 f   GuPersistentContactManifold.obj
 0001:00108dd0       ?reduceBatchContactsCluster@PersistentContactManifold@Gu@physx@@QEAAXPEBVPersistentContact@23@I@Z 0000000180109dd0 f   GuPersistentContactManifold.obj
 0001:00109270       ?reduceBatchContactsConvex@SinglePersistentContactManifold@Gu@physx@@QEAA?AT__m128@@PEBVMeshPersistentContact@23@IAEAUPCMContactPatch@23@@Z 000000018010a270 f   GuPersistentContactManifold.obj
 0001:00109870       ?reduceContacts@SinglePersistentContactManifold@Gu@physx@@SAIPEAVMeshPersistentContact@23@I@Z 000000018010a870 f   GuPersistentContactManifold.obj
 0001:00109d80       ?reduceContactsForPCM@PersistentContactManifold@Gu@physx@@QEAAIAEBT__m128@@00@Z 000000018010ad80 f   GuPersistentContactManifold.obj
 0001:0010a320       ?refreshContactPoints@SinglePersistentContactManifold@Gu@physx@@QEAA?AT__m128@@AEBVPsMatTransformV@aos@shdfnd@3@AEBT4@1@Z 000000018010b320 f   GuPersistentContactManifold.obj
 0001:0010a470       ?replaceManifoldPoint@PersistentContactManifold@Gu@physx@@QEAA_NAEBT__m128@@000@Z 000000018010b470 f   GuPersistentContactManifold.obj
 0001:0010a540       ?sweepBoxBox@Gu@physx@@YA_NAEBVBox@12@0AEBVPxVec3@2@MV?$PxFlags@W4Enum@PxHitFlag@physx@@G@2@AEAUPxSweepHit@2@@Z 000000018010b540 f   GuSweepBoxBox.obj
 0001:0010bb40       ?sweepBoxSphere@Gu@physx@@YA_NAEBVBox@12@MAEBVPxVec3@2@1MAEAMAEAV42@V?$PxFlags@W4Enum@PxHitFlag@physx@@G@2@@Z 000000018010cb40 f   GuSweepBoxSphere.obj
 0001:0010c780       ?sweepBoxTriangle@Gu@physx@@YA_NAEBVPxTriangle@2@AEBVPxBounds3@2@AEBVPxVec3@2@2AEAV52@3AEAM_N@Z 000000018010d780 f   GuSweepBoxTriangle_FeatureBased.obj
 0001:0010de20       ?triBoxSweepTestBoxSpace@Gu@physx@@YAHAEBVPxTriangle@2@AEBVPxVec3@2@11MAEAM_N@Z 000000018010ee20 f   GuSweepBoxTriangle_SAT.obj
 0001:0010f730       ?sweepCapsuleBox@Gu@physx@@YA_NAEBVCapsule@12@AEBVPxTransform@2@AEBVPxVec3@2@2MAEAV52@AEAM3V?$PxFlags@W4Enum@PxHitFlag@physx@@G@2@@Z 0000000180110730 f   GuSweepCapsuleBox.obj
 0001:0010faa0       ?distancePointSegmentSquared@Gu@physx@@YAMAEBVSegment@12@AEBVPxVec3@2@PEAM@Z 0000000180110aa0 f i GuSweepCapsuleCapsule.obj
 0001:0010fe20       ?sweepCapsuleCapsule@Gu@physx@@YA_NAEBVCapsule@12@0AEBVPxVec3@2@MAEAMAEAV42@3IAEAG@Z 0000000180110e20 f   GuSweepCapsuleCapsule.obj
 0001:00110bf0       ?sweepCapsuleTriangles_Precise@Gu@physx@@YA_NIPEIBVPxTriangle@2@AEBVCapsule@12@AEBVPxVec3@2@MPEIBIAEAUPxSweepHit@2@AEAV52@V?$PxFlags@W4Enum@PxHitFlag@physx@@G@2@_NPEBVBoxPadded@12@@Z 0000000180111bf0 f   GuSweepCapsuleTriangle.obj
 0001:00112c80       ?sweepSphereCapsule@Gu@physx@@YA_NAEBVSphere@12@AEBVCapsule@12@AEBVPxVec3@2@MAEAMAEAV52@4V?$PxFlags@W4Enum@PxHitFlag@physx@@G@2@@Z 0000000180113c80 f   GuSweepSphereCapsule.obj
 0001:00113320       ?sweepSphereSphere@Gu@physx@@YA_NAEBVPxVec3@2@M0M0AEAMAEAV32@@Z 0000000180114320 f   GuSweepSphereSphere.obj
 0001:001135b0       ?sweepSphereTriangles@Gu@physx@@YA_NIPEIBVPxTriangle@2@AEBVPxVec3@2@M1MPEIBIAEAUPxSweepHit@2@AEAV42@_N555@Z 00000001801145b0 f   GuSweepSphereTriangle.obj
 0001:00113e60       ?sweepSphereVSQuad@Gu@physx@@YA_NPEIBVPxVec3@2@AEBV32@1M1AEAM@Z 0000000180114e60 f   GuSweepSphereTriangle.obj
 0001:001152f0       ?sweepSphereVSTri@Gu@physx@@YA_NPEIBVPxVec3@2@AEBV32@1M1AEAMAEA_N_N@Z 00000001801162f0 f   GuSweepSphereTriangle.obj
 0001:001161e0       ??$gjk@U?$LocalConvex@VTriangleV@Gu@physx@@@Gu@physx@@U?$LocalConvex@VBoxV@Gu@physx@@@23@@Gu@physx@@YA?AW4GjkStatus@01@AEBU?$LocalConvex@VTriangleV@Gu@physx@@@01@AEBU?$LocalConvex@VBoxV@Gu@physx@@@01@AEBT__m128@@2AEAT5@333@Z 00000001801171e0 f i GuSweepTriangleUtils.obj
 0001:00116ed0       ?computeBoxTriImpactData@Gu@physx@@YAXAEAVPxVec3@2@0AEBV32@1AEBVPxTriangle@2@M@Z 0000000180117ed0 f   GuSweepTriangleUtils.obj
 0001:00117160       ?computeEdgeEdgeNormal@Gu@physx@@YAXAEAVPxVec3@2@AEBV32@1111M@Z 0000000180118160 f   GuSweepTriangleUtils.obj
 0001:00117420       ?computeSphereTriImpactData@Gu@physx@@YAXAEAVPxVec3@2@0AEBV32@1MAEBVPxTriangle@2@@Z 0000000180118420 f   GuSweepTriangleUtils.obj
 0001:001178fc       __imp_load_PxGetFoundation 00000001801188fc f   PhysXFoundation_64:PhysXFoundation_64.dll
 0001:00117908       __tailMerge_physxfoundation_64_dll 0000000180118908     PhysXFoundation_64:PhysXFoundation_64.dll
 0001:00117981       __imp_load_?getAllocator@shdfnd@physx@@YAAEAVPxAllocatorCallback@2@XZ 0000000180118981 f   PhysXFoundation_64:PhysXFoundation_64.dll
 0001:0011798d       __imp_load_?getInstance@Foundation@shdfnd@physx@@SAAEAV123@XZ 000000018011898d f   PhysXFoundation_64:PhysXFoundation_64.dll
 0001:00117999       __imp_load_?error@Foundation@shdfnd@physx@@QEAAXW4Enum@PxErrorCode@3@PEBDH1ZZ 0000000180118999 f   PhysXFoundation_64:PhysXFoundation_64.dll
 0001:001179a5       __imp_load_?vsnprintf@shdfnd@physx@@YAHPEAD_KPEBD0@Z 00000001801189a5 f   PhysXFoundation_64:PhysXFoundation_64.dll
 0001:001179b1       __imp_load_??0MutexImpl@shdfnd@physx@@QEAA@XZ 00000001801189b1 f   PhysXFoundation_64:PhysXFoundation_64.dll
 0001:001179bd       __imp_load_??1MutexImpl@shdfnd@physx@@QEAA@XZ 00000001801189bd f   PhysXFoundation_64:PhysXFoundation_64.dll
 0001:001179c9       __imp_load_?lock@MutexImpl@shdfnd@physx@@QEAAXXZ 00000001801189c9 f   PhysXFoundation_64:PhysXFoundation_64.dll
 0001:001179d5       __imp_load_?unlock@MutexImpl@shdfnd@physx@@QEAAXXZ 00000001801189d5 f   PhysXFoundation_64:PhysXFoundation_64.dll
 0001:001179e1       __imp_load_?getSize@MutexImpl@shdfnd@physx@@SAIXZ 00000001801189e1 f   PhysXFoundation_64:PhysXFoundation_64.dll
 0001:001179ed       __imp_load_?atomicDecrement@shdfnd@physx@@YAHPECH@Z 00000001801189ed f   PhysXFoundation_64:PhysXFoundation_64.dll
 0001:001179f9       __imp_load_?PxTransformFromSegment@physx@@YA?AVPxTransform@1@AEBVPxVec3@1@0PEAM@Z 00000001801189f9 f   PhysXFoundation_64:PhysXFoundation_64.dll
 0001:00117a05       __imp_load_?optimizeBoundingBox@shdfnd@physx@@YA?AVPxVec3@2@AEAVPxMat33@2@@Z 0000000180118a05 f   PhysXFoundation_64:PhysXFoundation_64.dll
 0001:00117a11       __imp_load_?allocate@TempAllocator@shdfnd@physx@@QEAAPEAX_KPEBDH@Z 0000000180118a11 f   PhysXFoundation_64:PhysXFoundation_64.dll
 0001:00117a1d       __imp_load_?deallocate@TempAllocator@shdfnd@physx@@QEAAXPEAX@Z 0000000180118a1d f   PhysXFoundation_64:PhysXFoundation_64.dll
 0001:00117a29       __imp_load_?atomicIncrement@shdfnd@physx@@YAHPECH@Z 0000000180118a29 f   PhysXFoundation_64:PhysXFoundation_64.dll
 0001:00117a38       ?DloadAcquireSectionWriteAccess@@YAXXZ 0000000180118a38 f i Delayimp:delayhlp.obj
 0001:00117ae4       ?DloadGetSRWLockFunctionPointers@@YAEXZ 0000000180118ae4 f i Delayimp:delayhlp.obj
 0001:00117b80       ?DloadMakePermanentImageCommit@@YAXPEAX_K@Z 0000000180118b80 f i Delayimp:delayhlp.obj
 0001:00117c18       ?DloadObtainSection@@YAPEAXPEAK0@Z 0000000180118c18 f i Delayimp:delayhlp.obj
 0001:00117cb4       ?DloadProtectSection@@YAXKPEAK@Z 0000000180118cb4 f i Delayimp:delayhlp.obj
 0001:00117d44       ?DloadReleaseSectionWriteAccess@@YAXXZ 0000000180118d44 f i Delayimp:delayhlp.obj
 0001:00117dd8       __delayLoadHelper2         0000000180118dd8 f   Delayimp:delayhlp.obj
 0001:001180ac       ??3@YAXPEAX_K@Z            00000001801190ac f   MSVCRT:delete_scalar_size.obj
 0001:001180ac       ??_V@YAXPEAX@Z             00000001801190ac f   MSVCRT:delete_array.obj
 0001:001180b4       ??_Etype_info@@UEAAPEAXI@Z 00000001801190b4 f i MSVCRT:std_type_info_static.obj
 0001:001180b4       ??_Gtype_info@@UEAAPEAXI@Z 00000001801190b4 f i MSVCRT:std_type_info_static.obj
 0001:001180e0       ?__scrt_initialize_type_info@@YAXXZ 00000001801190e0 f   MSVCRT:tncleanup.obj
 0001:001180f0       ?__scrt_uninitialize_type_info@@YAXXZ 00000001801190f0 f   MSVCRT:tncleanup.obj
 0001:00118110       __chkstk                   0000000180119110 f   MSVCRT:chkstk.obj
 0001:00118110       _alloca_probe              0000000180119110 f   MSVCRT:chkstk.obj
 0001:00118170       __vdecl_sinf4              0000000180119170 f   MSVCRT:svml_ssinf4_dispatch.obj
 0001:00118190       __libm_sse2_sincosf_       0000000180119190 f   MSVCRT:svml_ssinf4_dispatch.obj
 0001:001181d3       __libm_sse2_sincosf4_      00000001801191d3 f   MSVCRT:svml_ssinf4_dispatch.obj
 0001:001181e0       ??3@YAXPEAX@Z              00000001801191e0 f   MSVCRT:delete_scalar.obj
 0001:00118508       _DllMainCRTStartup         0000000180119508 f   MSVCRT:dll_dllmain.obj
 0001:00118548       __isa_available_init       0000000180119548 f   MSVCRT:cpu_disp.obj
 0001:001186f0       __sse2_sinf4@@16           00000001801196f0 f   MSVCRT:svml_ssinf4_sse2.obj
 0001:00119030       __sse4_sinf4@@16           000000018011a030 f   MSVCRT:svml_ssinf4_sse4.obj
 0001:001197a4       __security_init_cookie     000000018011a7a4 f   MSVCRT:gs_support.obj
 0001:00119850       DllMain                    000000018011a850 f   MSVCRT:dll_dllmain_stub.obj
 0001:00119874       __local_stdio_printf_options 000000018011a874 f i MSVCRT:default_local_stdio_options.obj
 0001:0011987c       __local_stdio_scanf_options 000000018011a87c f i MSVCRT:default_local_stdio_options.obj
 0001:00119884       __scrt_initialize_default_local_stdio_options 000000018011a884 f   MSVCRT:default_local_stdio_options.obj
 0001:001198a0       __scrt_acquire_startup_lock 000000018011a8a0 f   MSVCRT:utility.obj
 0001:001198dc       __scrt_dllmain_after_initialize_c 000000018011a8dc f   MSVCRT:utility.obj
 0001:00119910       __scrt_dllmain_before_initialize_c 000000018011a910 f   MSVCRT:utility.obj
 0001:00119928       __scrt_dllmain_crt_thread_attach 000000018011a928 f   MSVCRT:utility.obj
 0001:00119950       __scrt_dllmain_crt_thread_detach 000000018011a950 f   MSVCRT:utility.obj
 0001:00119968       __scrt_dllmain_exception_filter 000000018011a968 f   MSVCRT:utility.obj
 0001:001199c8       __scrt_dllmain_uninitialize_c 000000018011a9c8 f   MSVCRT:utility.obj
 0001:001199f8       __scrt_dllmain_uninitialize_critical 000000018011a9f8 f   MSVCRT:utility.obj
 0001:00119a0c       __scrt_initialize_crt      000000018011aa0c f   MSVCRT:utility.obj
 0001:00119a58       __scrt_initialize_onexit_tables 000000018011aa58 f   MSVCRT:utility.obj
 0001:00119ae4       __scrt_is_nonwritable_in_current_image 000000018011aae4 f   MSVCRT:utility.obj
 0001:00119b7c       __scrt_release_startup_lock 000000018011ab7c f   MSVCRT:utility.obj
 0001:00119ba0       __scrt_uninitialize_crt    000000018011aba0 f   MSVCRT:utility.obj
 0001:00119bcc       __scrt_get_dyn_tls_init_callback 000000018011abcc f   MSVCRT:dyn_tls_init.obj
 0001:00119bd4       __crt_debugger_hook        000000018011abd4 f   MSVCRT:utility_desktop.obj
 0001:00119bdc       __scrt_fastfail            000000018011abdc f   MSVCRT:utility_desktop.obj
 0001:00119d28       _RTC_Initialize            000000018011ad28 f   MSVCRT:initsect.obj
 0001:00119d64       _RTC_Terminate             000000018011ad64 f   MSVCRT:initsect.obj
 0001:00119da0       __common_ssin_cout_rare    000000018011ada0 f   MSVCRT:svml_s_sin_cout.obj
 0001:00119e10       __scrt_is_ucrt_dll_in_use  000000018011ae10 f   MSVCRT:ucrt_detection.obj
 0001:00119e1c       _purecall                  000000018011ae1c f   vcruntime:VCRUNTIME140.dll
 0001:00119e22       __std_type_info_name       000000018011ae22 f   vcruntime:VCRUNTIME140.dll
 0001:00119e28       memcpy                     000000018011ae28 f   vcruntime:VCRUNTIME140.dll
 0001:00119e2e       memset                     000000018011ae2e f   vcruntime:VCRUNTIME140.dll
 0001:00119e34       strstr                     000000018011ae34 f   vcruntime:VCRUNTIME140.dll
 0001:00119e3a       __std_type_info_destroy_list 000000018011ae3a f   vcruntime:VCRUNTIME140.dll
 0001:00119e40       __C_specific_handler       000000018011ae40 f   vcruntime:VCRUNTIME140.dll
 0001:00119e46       tanf                       000000018011ae46 f   ucrt:api-ms-win-crt-math-l1-1-0.dll
 0001:00119e4c       strcmp                     000000018011ae4c f   ucrt:api-ms-win-crt-string-l1-1-0.dll
 0001:00119e52       acosf                      000000018011ae52 f   ucrt:api-ms-win-crt-math-l1-1-0.dll
 0001:00119e58       free                       000000018011ae58 f   ucrt:api-ms-win-crt-heap-l1-1-0.dll
 0001:00119e5e       _initterm                  000000018011ae5e f   ucrt:api-ms-win-crt-runtime-l1-1-0.dll
 0001:00119e64       _initterm_e                000000018011ae64 f   ucrt:api-ms-win-crt-runtime-l1-1-0.dll
 0001:00119e6a       _seh_filter_dll            000000018011ae6a f   ucrt:api-ms-win-crt-runtime-l1-1-0.dll
 0001:00119e70       _configure_narrow_argv     000000018011ae70 f   ucrt:api-ms-win-crt-runtime-l1-1-0.dll
 0001:00119e76       _initialize_narrow_environment 000000018011ae76 f   ucrt:api-ms-win-crt-runtime-l1-1-0.dll
 0001:00119e7c       _initialize_onexit_table   000000018011ae7c f   ucrt:api-ms-win-crt-runtime-l1-1-0.dll
 0001:00119e82       _execute_onexit_table      000000018011ae82 f   ucrt:api-ms-win-crt-runtime-l1-1-0.dll
 0001:00119e88       _cexit                     000000018011ae88 f   ucrt:api-ms-win-crt-runtime-l1-1-0.dll
 0001:00119e90       __vcrt_initialize          000000018011ae90 f   MSVCRT:ucrt_stubs.obj
 0001:00119e90       __acrt_uninitialize_critical 000000018011ae90 f   MSVCRT:ucrt_stubs.obj
 0001:00119e90       __vcrt_thread_detach       000000018011ae90 f   MSVCRT:ucrt_stubs.obj
 0001:00119e90       __scrt_stub_for_acrt_thread_attach 000000018011ae90 f   MSVCRT:ucrt_stubs.obj
 0001:00119e90       __vcrt_uninitialize_critical 000000018011ae90 f   MSVCRT:ucrt_stubs.obj
 0001:00119e90       __scrt_stub_for_acrt_uninitialize_critical 000000018011ae90 f   MSVCRT:ucrt_stubs.obj
 0001:00119e90       __scrt_stub_for_acrt_uninitialize 000000018011ae90 f   MSVCRT:ucrt_stubs.obj
 0001:00119e90       __acrt_uninitialize        000000018011ae90 f   MSVCRT:ucrt_stubs.obj
 0001:00119e90       __acrt_thread_detach       000000018011ae90 f   MSVCRT:ucrt_stubs.obj
 0001:00119e90       __vcrt_thread_attach       000000018011ae90 f   MSVCRT:ucrt_stubs.obj
 0001:00119e90       __scrt_stub_for_acrt_thread_detach 000000018011ae90 f   MSVCRT:ucrt_stubs.obj
 0001:00119e90       __scrt_stub_for_acrt_initialize 000000018011ae90 f   MSVCRT:ucrt_stubs.obj
 0001:00119e90       __vcrt_uninitialize        000000018011ae90 f   MSVCRT:ucrt_stubs.obj
 0001:00119e90       __acrt_thread_attach       000000018011ae90 f   MSVCRT:ucrt_stubs.obj
 0001:00119e90       __acrt_initialize          000000018011ae90 f   MSVCRT:ucrt_stubs.obj
 0001:00119eb0       _guard_dispatch_icall_nop  000000018011aeb0 f   MSVCRT:guard_dispatch.obj
 0001:00119ed0       _guard_xfg_dispatch_icall_nop 000000018011aed0 f   MSVCRT:guard_xfg_dispatch.obj
 0002:00000000       __imp_FreeLibrary          000000018011b000     kernel32:KERNEL32.dll
 0002:00000008       __imp_GetProcAddress       000000018011b008     kernel32:KERNEL32.dll
 0002:00000010       __imp_LoadLibraryA         000000018011b010     kernel32:KERNEL32.dll
 0002:00000018       __imp_SetUnhandledExceptionFilter 000000018011b018     kernel32:KERNEL32.dll
 0002:00000020       __imp_UnhandledExceptionFilter 000000018011b020     kernel32:KERNEL32.dll
 0002:00000028       __imp_IsDebuggerPresent    000000018011b028     kernel32:KERNEL32.dll
 0002:00000030       __imp_RtlVirtualUnwind     000000018011b030     kernel32:KERNEL32.dll
 0002:00000038       __imp_RtlLookupFunctionEntry 000000018011b038     kernel32:KERNEL32.dll
 0002:00000040       __imp_RtlCaptureContext    000000018011b040     kernel32:KERNEL32.dll
 0002:00000048       __imp_DisableThreadLibraryCalls 000000018011b048     kernel32:KERNEL32.dll
 0002:00000050       __imp_GetSystemTimeAsFileTime 000000018011b050     kernel32:KERNEL32.dll
 0002:00000058       __imp_GetCurrentThreadId   000000018011b058     kernel32:KERNEL32.dll
 0002:00000060       __imp_GetCurrentProcessId  000000018011b060     kernel32:KERNEL32.dll
 0002:00000068       __imp_QueryPerformanceCounter 000000018011b068     kernel32:KERNEL32.dll
 0002:00000070       __imp_InitializeSListHead  000000018011b070     kernel32:KERNEL32.dll
 0002:00000078       __imp_LoadLibraryExA       000000018011b078     kernel32:KERNEL32.dll
 0002:00000080       __imp_GetModuleHandleW     000000018011b080     kernel32:KERNEL32.dll
 0002:00000088       __imp_VirtualQuery         000000018011b088     kernel32:KERNEL32.dll
 0002:00000090       __imp_VirtualProtect       000000018011b090     kernel32:KERNEL32.dll
 0002:00000098       __imp_GetSystemInfo        000000018011b098     kernel32:KERNEL32.dll
 0002:000000a0       __imp_GetLastError         000000018011b0a0     kernel32:KERNEL32.dll
 0002:000000a8       __imp_RaiseException       000000018011b0a8     kernel32:KERNEL32.dll
 0002:000000b0       __imp_IsProcessorFeaturePresent 000000018011b0b0     kernel32:KERNEL32.dll
 0002:000000b8       \177KERNEL32_NULL_THUNK_DATA 000000018011b0b8     kernel32:KERNEL32.dll
 0002:000000c0       __imp_strstr               000000018011b0c0     vcruntime:VCRUNTIME140.dll
 0002:000000c8       __imp___std_type_info_destroy_list 000000018011b0c8     vcruntime:VCRUNTIME140.dll
 0002:000000d0       __imp___C_specific_handler 000000018011b0d0     vcruntime:VCRUNTIME140.dll
 0002:000000d8       __imp_memset               000000018011b0d8     vcruntime:VCRUNTIME140.dll
 0002:000000e0       __imp_memcpy               000000018011b0e0     vcruntime:VCRUNTIME140.dll
 0002:000000e8       __imp___std_type_info_name 000000018011b0e8     vcruntime:VCRUNTIME140.dll
 0002:000000f0       __imp__purecall            000000018011b0f0     vcruntime:VCRUNTIME140.dll
 0002:000000f8       \177VCRUNTIME140_NULL_THUNK_DATA 000000018011b0f8     vcruntime:VCRUNTIME140.dll
 0002:00000100       __imp_free                 000000018011b100     ucrt:api-ms-win-crt-heap-l1-1-0.dll
 0002:00000108       \177api-ms-win-crt-heap-l1-1-0_NULL_THUNK_DATA 000000018011b108     ucrt:api-ms-win-crt-heap-l1-1-0.dll
 0002:00000110       __imp_tanf                 000000018011b110     ucrt:api-ms-win-crt-math-l1-1-0.dll
 0002:00000118       __imp_acosf                000000018011b118     ucrt:api-ms-win-crt-math-l1-1-0.dll
 0002:00000120       __imp__fpclass             000000018011b120     ucrt:api-ms-win-crt-math-l1-1-0.dll
 0002:00000128       \177api-ms-win-crt-math-l1-1-0_NULL_THUNK_DATA 000000018011b128     ucrt:api-ms-win-crt-math-l1-1-0.dll
 0002:00000130       __imp__initterm            000000018011b130     ucrt:api-ms-win-crt-runtime-l1-1-0.dll
 0002:00000138       __imp__initterm_e          000000018011b138     ucrt:api-ms-win-crt-runtime-l1-1-0.dll
 0002:00000140       __imp__cexit               000000018011b140     ucrt:api-ms-win-crt-runtime-l1-1-0.dll
 0002:00000148       __imp__seh_filter_dll      000000018011b148     ucrt:api-ms-win-crt-runtime-l1-1-0.dll
 0002:00000150       __imp__execute_onexit_table 000000018011b150     ucrt:api-ms-win-crt-runtime-l1-1-0.dll
 0002:00000158       __imp__initialize_onexit_table 000000018011b158     ucrt:api-ms-win-crt-runtime-l1-1-0.dll
 0002:00000160       __imp__initialize_narrow_environment 000000018011b160     ucrt:api-ms-win-crt-runtime-l1-1-0.dll
 0002:00000168       __imp__configure_narrow_argv 000000018011b168     ucrt:api-ms-win-crt-runtime-l1-1-0.dll
 0002:00000170       \177api-ms-win-crt-runtime-l1-1-0_NULL_THUNK_DATA 000000018011b170     ucrt:api-ms-win-crt-runtime-l1-1-0.dll
 0002:00000178       __imp_strcmp               000000018011b178     ucrt:api-ms-win-crt-string-l1-1-0.dll
 0002:00000180       \177api-ms-win-crt-string-l1-1-0_NULL_THUNK_DATA 000000018011b180     ucrt:api-ms-win-crt-string-l1-1-0.dll
 0002:00000188       __guard_check_icall_fptr   000000018011b188     MSVCRT:guard_support.obj
 0002:00000190       __guard_xfg_check_icall_fptr 000000018011b190     MSVCRT:guard_support.obj
 0002:00000198       __guard_dispatch_icall_fptr 000000018011b198     MSVCRT:guard_support.obj
 0002:000001a0       __guard_xfg_dispatch_icall_fptr 000000018011b1a0     MSVCRT:guard_support.obj
 0002:000001a8       __guard_xfg_table_dispatch_icall_fptr 000000018011b1a8     MSVCRT:guard_support.obj
 0002:000001b0       __xc_a                     000000018011b1b0     MSVCRT:initializers.obj
 0002:000015e0       __xc_z                     000000018011c5e0     MSVCRT:initializers.obj
 0002:000015e8       __xi_a                     000000018011c5e8     MSVCRT:initializers.obj
 0002:000015f0       __xi_z                     000000018011c5f0     MSVCRT:initializers.obj
 0002:000015f8       __xp_a                     000000018011c5f8     MSVCRT:initializers.obj
 0002:00001600       __xp_z                     000000018011c600     MSVCRT:initializers.obj
 0002:00001608       __xt_a                     000000018011c608     MSVCRT:initializers.obj
 0002:00001610       __xt_z                     000000018011c610     MSVCRT:initializers.obj
 0002:00001620       ??_7PxCollection@physx@@6B@ 000000018011c620     CmCollection.obj
 0002:000016a0       ??_C@_0BA@DLCJDKDM@NonTrackedAlloc@ 000000018011c6a0     CmCollection.obj
 0002:000016b0       ??_7Collection@Cm@physx@@6B@ 000000018011c6b0     CmCollection.obj
 0002:00001730       ??_C@_0GE@GBACBMOC@PxCollection?3?3add?5called?5for?5an@ 000000018011c730     CmCollection.obj
 0002:000017a0       ??_C@_0EJ@LAHGEC@D?3?2OneDrive?2Github?2NVIDIA?2PhysX@ 000000018011c7a0     CmCollection.obj
 0002:000017f0       ??_C@_0EM@OMMGDOMK@PxCollection?3?3add?5called?5with?5a@ 000000018011c7f0     CmCollection.obj
 0002:00001840       ??_C@_0FC@MKJIGBJF@D?3?2OneDrive?2Github?2NVIDIA?2PhysX@ 000000018011c840     CmCollection.obj
 0002:00001898       ??_C@_0BM@OIFKLHDN@?$DMallocation?5names?5disabled?$DO@ 000000018011c898     CmCollection.obj
 0002:000018b8       ??_C@_08MDGMHCHN@PtrTable@ 000000018011c8b8     CmPtrTable.obj
 0002:000018c4       ??_C@_04GKJNKENE@void@     000000018011c8c4     CmPtrTable.obj
 0002:000018d0       ??_C@_07DFEBJDHE@mSingle@  000000018011c8d0     CmPtrTable.obj
 0002:000018d8       ??_C@_05NLHHBMOH@PxU16@    000000018011c8d8     CmPtrTable.obj
 0002:000018e0       ??_C@_06EPKHJPIM@mCount@   000000018011c8e0     CmPtrTable.obj
 0002:000018e8       ??_C@_04DDKJGDCM@bool@     000000018011c8e8     CmPtrTable.obj
 0002:000018f0       ??_C@_0M@DAGELID@mOwnsMemory@ 000000018011c8f0     CmPtrTable.obj
 0002:00001900       ??_C@_0M@MMPOMMLP@mBufferUsed@ 000000018011c900     CmPtrTable.obj
 0002:00001910       ??_7RadixSort@Cm@physx@@6B@ 000000018011c910     CmRadixSort.obj
 0002:00001920       __xmm@00000001000000010000000100000001 000000018011c920     CmRadixSort.obj
 0002:00001930       __xmm@00000003000000020000000100000000 000000018011c930     CmRadixSort.obj
 0002:00001940       ??_7RadixSortBuffered@Cm@physx@@6B@ 000000018011c940     CmRadixSortBuffered.obj
 0002:00001950       ??_C@_0FA@GKNMNONE@D?3?2OneDrive?2Github?2NVIDIA?2PhysX@ 000000018011c950     CmRadixSortBuffered.obj
 0002:000019a0       ?sBufferSize@DebugText@Cm@physx@@2HB 000000018011c9a0     CmRenderOutput.obj
 0002:000019b0       ??_C@_0EK@OGADKGBE@D?3?2OneDrive?2Github?2NVIDIA?2PhysX@ 000000018011c9b0     CmRenderOutput.obj
 0002:000019fc       __real@3e19999a            000000018011c9fc     CmRenderOutput.obj
 0002:00001a00       __real@3e800000            000000018011ca00     CmRenderOutput.obj
 0002:00001a04       __real@3f3504f3            000000018011ca04     CmRenderOutput.obj
 0002:00001a08       __real@3f800000            000000018011ca08     CmRenderOutput.obj
 0002:00001a0c       __real@3fddb3d7            000000018011ca0c     CmRenderOutput.obj
 0002:00001a10       __real@40c90fdb            000000018011ca10     CmRenderOutput.obj
 0002:00001a20       __xmm@7fffffff7fffffff7fffffff7fffffff 000000018011ca20     CmRenderOutput.obj
 0002:00001a30       __xmm@80000000800000008000000080000000 000000018011ca30     CmRenderOutput.obj
 0002:00001a40       __real@3d4ccccd            000000018011ca40     CmVisualization.obj
 0002:00001a44       __real@3e490fdb            000000018011ca44     CmVisualization.obj
 0002:00001a48       __real@3e99999a            000000018011ca48     CmVisualization.obj
 0002:00001a4c       __real@3f000000            000000018011ca4c     CmVisualization.obj
 0002:00001a50       __real@3fc00000            000000018011ca50     CmVisualization.obj
 0002:00001a54       __real@c0000000            000000018011ca54     CmVisualization.obj
 0002:00001a60       __xmm@3f800000000000000000000000000000 000000018011ca60     CmVisualization.obj
 0002:00001a70       ??_C@_0BB@CPDDPFKD@GetUpdatedModule@ 000000018011ca70     CmWindowsModuleUpdateLoader.obj
 0002:00001a88       ??_C@_0BA@EGLNOO@PhysXFoundation@ 000000018011ca88     CmWindowsDelayLoadHook.obj
 0002:00001a98       ??_C@_0M@ILKNCJKN@PhysXCommon@ 000000018011ca98     CmWindowsDelayLoadHook.obj
 0002:00001ad0       ??_C@_06EJKDJEDO@PxBase@   000000018011cad0     GuBounds.obj
 0002:00001ad8       ??_C@_0N@CDGINLLF@PxConvexMesh@ 000000018011cad8     GuBounds.obj
 0002:00001ae8       ??_C@_0O@PBAKPCEC@PxHeightField@ 000000018011cae8     GuBounds.obj
 0002:00001af8       ??_7PxBase@physx@@6B@      000000018011caf8     GuBounds.obj
 0002:00001b20       ??_C@_0DG@DFOCGHP@Gu?3?3GeometryUnion?3?3computeBound@ 000000018011cb20     GuBounds.obj
 0002:00001b60       ??_C@_0EI@MFCPEOFP@D?3?2OneDrive?2Github?2NVIDIA?2PhysX@ 000000018011cb60     GuBounds.obj
 0002:00001ba8       __real@358637bd            000000018011cba8     GuBounds.obj
 0002:00001bac       __real@3f400000            000000018011cbac     GuBounds.obj
 0002:00001bb0       __real@3f7fffef            000000018011cbb0     GuBounds.obj
 0002:00001bb4       __real@3f8147ae            000000018011cbb4     GuBounds.obj
 0002:00001bb8       __real@7e7fffff            000000018011cbb8     GuBounds.obj
 0002:00001bbc       __real@7f7fffff            000000018011cbbc     GuBounds.obj
 0002:00001bc0       __real@fe7fffff            000000018011cbc0     GuBounds.obj
 0002:00001bd0       __xmm@000000003a83126f3a83126f3a83126f 000000018011cbd0     GuBounds.obj
 0002:00001be0       __xmm@00000000ba83126fba83126fba83126f 000000018011cbe0     GuBounds.obj
 0002:00001bf0       __xmm@3a83126f3a83126f3a83126f3a83126f 000000018011cbf0     GuBounds.obj
 0002:00001c00       __xmm@3f0000003f0000003f0000003f000000 000000018011cc00     GuBounds.obj
 0002:00001c10       __xmm@3f8147ae3f8147ae3f8147ae3f8147ae 000000018011cc10     GuBounds.obj
 0002:00001c20       __xmm@ba83126fba83126fba83126fba83126f 000000018011cc20     GuBounds.obj
 0002:00001c50       __real@3f7ff972            000000018011cc50     GuBox.obj
 0002:00001c80       ??_7?$EntityReport@I@Gu@physx@@6B@ 000000018011cc80     GuCCTSweepTests.obj
 0002:00001ca0       __real@3b03126f            000000018011cca0     GuCCTSweepTests.obj
 0002:00001ca4       __real@40000000            000000018011cca4     GuCCTSweepTests.obj
 0002:00001cd0       __real@38d1b717            000000018011ccd0     GuGeometryQuery.obj
 0002:00001cd4       __real@49742400            000000018011ccd4     GuGeometryQuery.obj
 0002:00001cd8       __real@bf800000            000000018011ccd8     GuGeometryQuery.obj
 0002:00001d00       ??_C@_0EN@IOLFLHOE@D?3?2OneDrive?2Github?2NVIDIA?2PhysX@ 000000018011cd00     GuGeometryUnion.obj
 0002:00001d90       ??_7GuMeshFactory@physx@@6B@ 000000018011cd90     GuMeshFactory.obj
 0002:00001d98       ??_7MeshDataBase@Gu@physx@@6B@ 000000018011cd98     GuMeshFactory.obj
 0002:00001da0       ??_C@_0EN@IIPAPIEO@D?3?2OneDrive?2Github?2NVIDIA?2PhysX@ 000000018011cda0     GuMeshFactory.obj
 0002:00001df0       ??_7TriangleMeshData@Gu@physx@@6B@ 000000018011cdf0     GuMeshFactory.obj
 0002:00001df8       ??_7RTreeTriangleData@Gu@physx@@6B@ 000000018011cdf8     GuMeshFactory.obj
 0002:00001e00       ??_7BV4TriangleData@Gu@physx@@6B@ 000000018011ce00     GuMeshFactory.obj
 0002:00001e10       ??_C@_0EN@GGCGPGMJ@D?3?2OneDrive?2Github?2NVIDIA?2PhysX@ 000000018011ce10     GuMeshFactory.obj
 0002:00001e60       ??_C@_0GP@NHELMDAL@Loading?5triangle?5mesh?5failed?3?5D@ 000000018011ce60     GuMeshFactory.obj
 0002:00001ed0       ??_C@_0BP@CDOKDACA@RTree?5binary?5image?5load?5error?4@ 000000018011ced0     GuMeshFactory.obj
 0002:00001ef0       ??_C@_0BN@MJPNIELF@BV4?5binary?5image?5load?5error?4@ 000000018011cef0     GuMeshFactory.obj
 0002:00001f10       ??_C@_0BO@JDPABAOF@BV32?5binary?5image?5load?5error?4@ 000000018011cf10     GuMeshFactory.obj
 0002:00001f30       ??_C@_0EK@OPGOKPGN@D?3?2OneDrive?2Github?2NVIDIA?2PhysX@ 000000018011cf30     GuMeshFactory.obj
 0002:00001fa0       ??_C@_0P@GGNFNHKF@PxTriangleMesh@ 000000018011cfa0     GuMetaData.obj
 0002:00001fb0       ??_C@_07GFCEJNGM@Valency@  000000018011cfb0     GuMetaData.obj
 0002:00001fb8       ??_C@_07NHGKEEIN@mOffset@  000000018011cfb8     GuMetaData.obj
 0002:00001fc0       ??_C@_0BB@BAGHBMNJ@BigConvexRawData@ 000000018011cfc0     GuMetaData.obj
 0002:00001fd8       ??_C@_07PBDEJAAC@mSubdiv@  000000018011cfd8     GuMetaData.obj
 0002:00001fe0       ??_C@_0L@HNPACPGH@mNbSamples@ 000000018011cfe0     GuMetaData.obj
 0002:00001fec       ??_C@_04NCKNBPPK@PxU8@     000000018011cfec     GuMetaData.obj
 0002:00001ff8       ??_C@_08DEPEKJNI@mSamples@ 000000018011cff8     GuMetaData.obj
 0002:00002004       ??_C@_05LMJPANIN@PxU32@    000000018011d004     GuMetaData.obj
 0002:00002010       ??_C@_08IJDNJBMI@mNbVerts@ 000000018011d010     GuMetaData.obj
 0002:00002020       ??_C@_0M@MMKMIJAF@mNbAdjVerts@ 000000018011d020     GuMetaData.obj
 0002:00002030       ??_C@_0L@EOKMNILC@mValencies@ 000000018011d030     GuMetaData.obj
 0002:00002040       ??_C@_0P@DLGEAMHJ@mAdjacentVerts@ 000000018011d040     GuMetaData.obj
 0002:00002050       ??_C@_0O@PFOPBKAM@BigConvexData@ 000000018011d050     GuMetaData.obj
 0002:00002060       ??_C@_05PLKALGFN@mData@    000000018011d060     GuMetaData.obj
 0002:00002068       ??_C@_08PEMCLHEM@mVBuffer@ 000000018011d068     GuMetaData.obj
 0002:00002078       ??_C@_09FBMAGD@Alignment@  000000018011d078     GuMetaData.obj
 0002:00002088       ??_C@_0BE@KFHIBEEA@InternalObjectsData@ 000000018011d088     GuMetaData.obj
 0002:0000209c       ??_C@_06GIEBFILM@PxReal@   000000018011d09c     GuMetaData.obj
 0002:000020a8       ??_C@_07NKGFFIBH@mRadius@  000000018011d0a8     GuMetaData.obj
 0002:000020b0       ??_C@_08EHFCACAE@mExtents@ 000000018011d0b0     GuMetaData.obj
 0002:000020c0       ??_C@_0BA@LFMGGCBK@HullPolygonData@ 000000018011d0c0     GuMetaData.obj
 0002:000020d0       ??_C@_06BOHHGLB@mPlane@    000000018011d0d0     GuMetaData.obj
 0002:000020d8       ??_C@_06EHMLHGLN@mVRef8@   000000018011d0d8     GuMetaData.obj
 0002:000020e0       ??_C@_09BAHHHINI@mMinIndex@ 000000018011d0e0     GuMetaData.obj
 0002:000020f0       ??_C@_0P@GBLBPIPB@ConvexHullData@ 000000018011d0f0     GuMetaData.obj
 0002:00002100       ??_C@_09JDCJAPKD@PxBounds3@ 000000018011d100     GuMetaData.obj
 0002:0000210c       ??_C@_05NDNHIFA@mAABB@     000000018011d10c     GuMetaData.obj
 0002:00002114       ??_C@_06KDGGGLIJ@PxVec3@   000000018011d114     GuMetaData.obj
 0002:00002120       ??_C@_0O@LNOGEMJI@mCenterOfMass@ 000000018011d120     GuMetaData.obj
 0002:00002130       ??_C@_09CNMCBBKH@mPolygons@ 000000018011d130     GuMetaData.obj
 0002:00002140       ??_C@_0BC@KKPDCFJC@mBigConvexRawData@ 000000018011d140     GuMetaData.obj
 0002:00002158       ??_C@_08ELDMKGKH@mNbEdges@ 000000018011d158     GuMetaData.obj
 0002:00002168       ??_C@_0BA@CGLOHBAC@mNbHullVertices@ 000000018011d168     GuMetaData.obj
 0002:00002178       ??_C@_0M@HGFFLLDM@mNbPolygons@ 000000018011d178     GuMetaData.obj
 0002:00002188       ??_C@_09BHJEMDGO@mInternal@ 000000018011d188     GuMetaData.obj
 0002:00002198       ??_C@_0L@GMFHOMKA@ConvexMesh@ 000000018011d198     GuMetaData.obj
 0002:000021a8       ??_C@_0N@KECKKFLK@RefCountable@ 000000018011d1a8     GuMetaData.obj
 0002:000021b8       ??_C@_09ILEBDLJH@mHullData@ 000000018011d1b8     GuMetaData.obj
 0002:000021c4       ??_C@_03DKDIKGNC@mNb@      000000018011d1c4     GuMetaData.obj
 0002:000021c8       ??_C@_0P@ENLHFHMD@mBigConvexData@ 000000018011d1c8     GuMetaData.obj
 0002:000021d8       ??_C@_05ILALLCHK@mMass@    000000018011d1d8     GuMetaData.obj
 0002:000021e0       ??_C@_07DBPDADGB@PxMat33@  000000018011d1e0     GuMetaData.obj
 0002:000021e8       ??_C@_08FNBHNDBI@mInertia@ 000000018011d1e8     GuMetaData.obj
 0002:000021f8       ??_C@_0O@FCKNKLMJ@GuMeshFactory@ 000000018011d1f8     GuMetaData.obj
 0002:00002208       ??_C@_0N@EGBCLMAK@mMeshFactory@ 000000018011d208     GuMetaData.obj
 0002:00002218       ??_C@_0BE@CJJAMAMK@PxHeightFieldSample@ 000000018011d218     GuMetaData.obj
 0002:0000222c       ??_C@_05MBLIPEMA@PxI16@    000000018011d22c     GuMetaData.obj
 0002:00002234       ??_C@_06LNLHEAAG@height@   000000018011d234     GuMetaData.obj
 0002:00002240       ??_C@_0N@HHDGHJN@PxBitAndByte@ 000000018011d240     GuMetaData.obj
 0002:00002250       ??_C@_0P@MBBMLBO@materialIndex0@ 000000018011d250     GuMetaData.obj
 0002:00002260       ??_C@_0P@BFAKPKFP@materialIndex1@ 000000018011d260     GuMetaData.obj
 0002:00002270       ??_C@_0BD@EBLPJEOE@PxHeightFieldFlags@ 000000018011d270     GuMetaData.obj
 0002:00002288       ??_C@_0BK@FNNCFFCN@PxHeightFieldFormat?3?3Enum@ 000000018011d288     GuMetaData.obj
 0002:000022a8       ??_C@_0BA@CLNFMAAA@HeightFieldData@ 000000018011d2a8     GuMetaData.obj
 0002:000022b8       ??_C@_04IMCGAIPI@rows@     000000018011d2b8     GuMetaData.obj
 0002:000022c0       ??_C@_07HIFEPIJN@columns@  000000018011d2c0     GuMetaData.obj
 0002:000022c8       ??_C@_08MOAGOABI@rowLimit@ 000000018011d2c8     GuMetaData.obj
 0002:000022d8       ??_C@_08BAGEHOBO@colLimit@ 000000018011d2d8     GuMetaData.obj
 0002:000022e8       ??_C@_09LKDBLADF@nbColumns@ 000000018011d2e8     GuMetaData.obj
 0002:000022f8       ??_C@_07ODIFGGLK@samples@  000000018011d2f8     GuMetaData.obj
 0002:00002300       ??_C@_0BE@POHEGOJG@convexEdgeThreshold@ 000000018011d300     GuMetaData.obj
 0002:00002314       ??_C@_05GECEPKB@flags@     000000018011d314     GuMetaData.obj
 0002:0000231c       ??_C@_06DLEPGFEF@format@   000000018011d31c     GuMetaData.obj
 0002:00002328       ??_C@_0BF@MOGDNMPL@PxMaterialTableIndex@ 000000018011d328     GuMetaData.obj
 0002:00002340       ??_C@_0M@JMJICJJO@HeightField@ 000000018011d340     GuMetaData.obj
 0002:00002350       ??_C@_0O@ENGHMLJP@mSampleStride@ 000000018011d350     GuMetaData.obj
 0002:00002360       ??_C@_0L@EBEEMFFB@mMinHeight@ 000000018011d360     GuMetaData.obj
 0002:00002370       ??_C@_0L@EAEIFPOF@mMaxHeight@ 000000018011d370     GuMetaData.obj
 0002:00002380       ??_C@_0N@FEFJOKKE@mModifyCount@ 000000018011d380     GuMetaData.obj
 0002:00002390       ??_C@_09PHDKHCK@RTreePage@ 000000018011d390     GuMetaData.obj
 0002:0000239c       ??_C@_04LLPOBGED@minx@     000000018011d39c     GuMetaData.obj
 0002:000023a4       ??_C@_04KCOFCHAC@miny@     000000018011d3a4     GuMetaData.obj
 0002:000023ac       ??_C@_04IJMIHEMB@minz@     000000018011d3ac     GuMetaData.obj
 0002:000023b4       ??_C@_04GGOBOBGO@maxx@     000000018011d3b4     GuMetaData.obj
 0002:000023bc       ??_C@_04HPPKNACP@maxy@     000000018011d3bc     GuMetaData.obj
 0002:000023c4       ??_C@_04FENHIDOM@maxz@     000000018011d3c4     GuMetaData.obj
 0002:000023cc       ??_C@_04HHDFEJON@ptrs@     000000018011d3cc     GuMetaData.obj
 0002:000023d4       ??_C@_05FFEIGAJF@RTree@    000000018011d3d4     GuMetaData.obj
 0002:000023dc       ??_C@_06OMCHPNEO@PxVec4@   000000018011d3dc     GuMetaData.obj
 0002:000023e8       ??_C@_0L@NBIFEFLN@mBoundsMin@ 000000018011d3e8     GuMetaData.obj
 0002:000023f8       ??_C@_0L@MDAOKBNC@mBoundsMax@ 000000018011d3f8     GuMetaData.obj
 0002:00002408       ??_C@_0N@NJEHLCOF@mInvDiagonal@ 000000018011d408     GuMetaData.obj
 0002:00002418       ??_C@_0BA@BEFIGPFG@mDiagonalScaler@ 000000018011d418     GuMetaData.obj
 0002:00002428       ??_C@_09DICGGKGO@mPageSize@ 000000018011d428     GuMetaData.obj
 0002:00002438       ??_C@_0O@BOFFCNOL@mNumRootPages@ 000000018011d438     GuMetaData.obj
 0002:00002448       ??_C@_0L@JKLGBKAE@mNumLevels@ 000000018011d448     GuMetaData.obj
 0002:00002458       ??_C@_0M@PHDOHJGK@mTotalNodes@ 000000018011d458     GuMetaData.obj
 0002:00002468       ??_C@_0M@GDGHALAO@mTotalPages@ 000000018011d468     GuMetaData.obj
 0002:00002474       ??_C@_06MHCBBJGP@mFlags@   000000018011d474     GuMetaData.obj
 0002:0000247c       ??_C@_06MMNBLHOK@mPages@   000000018011d47c     GuMetaData.obj
 0002:00002488       ??_C@_0L@LEOGNOEC@SourceMesh@ 000000018011d488     GuMetaData.obj
 0002:00002494       ??_C@_06JFCLJMNN@mVerts@   000000018011d494     GuMetaData.obj
 0002:000024a0       ??_C@_07MPIKOOAP@mNbTris@  000000018011d4a0     GuMetaData.obj
 0002:000024a8       ??_C@_0N@FBMOMEHF@mTriangles32@ 000000018011d4a8     GuMetaData.obj
 0002:000024b8       ??_C@_0N@DGCGNFBP@mTriangles16@ 000000018011d4b8     GuMetaData.obj
 0002:000024c8       ??_C@_06DHAAKLFK@mRemap@   000000018011d4c8     GuMetaData.obj
 0002:000024d0       ??_C@_0O@NLNHFNO@QuantizedAABB@ 000000018011d4d0     GuMetaData.obj
 0002:000024e0       ??_C@_0BC@OOGBEMHH@mData?$FL0?$FN?4mExtents@ 000000018011d4e0     GuMetaData.obj
 0002:000024f8       ??_C@_0BB@OCEDKIEF@mData?$FL0?$FN?4mCenter@ 000000018011d4f8     GuMetaData.obj
 0002:00002510       ??_C@_0BC@HFMEAABI@mData?$FL1?$FN?4mExtents@ 000000018011d510     GuMetaData.obj
 0002:00002528       ??_C@_0BB@CDMNHHIF@mData?$FL1?$FN?4mCenter@ 000000018011d528     GuMetaData.obj
 0002:00002540       ??_C@_0BC@CFKNCOI@mData?$FL2?$FN?4mExtents@ 000000018011d540     GuMetaData.obj
 0002:00002558       ??_C@_0BB@LKCPBBIE@mData?$FL2?$FN?4mCenter@ 000000018011d558     GuMetaData.obj
 0002:00002570       ??_C@_0O@MJJKKPFN@BVDataPackedQ@ 000000018011d570     GuMetaData.obj
 0002:00002580       ??_C@_0M@PNCEBOG@LocalBounds@ 000000018011d580     GuMetaData.obj
 0002:00002590       ??_C@_07GNKDIIKJ@mCenter@  000000018011d590     GuMetaData.obj
 0002:00002598       ??_C@_05KNFBNCOH@float@    000000018011d598     GuMetaData.obj
 0002:000025a0       ??_C@_0BC@LADJKHPL@mExtentsMagnitude@ 000000018011d5a0     GuMetaData.obj
 0002:000025b8       ??_C@_07HELIOLAF@BV4Tree@  000000018011d5b8     GuMetaData.obj
 0002:000025c0       ??_C@_0P@EMMDNPMH@mMeshInterface@ 000000018011d5c0     GuMetaData.obj
 0002:000025d0       ??_C@_0N@DCKMHLCL@mLocalBounds@ 000000018011d5d0     GuMetaData.obj
 0002:000025e0       ??_C@_08EEJOMIJL@mNbNodes@ 000000018011d5e0     GuMetaData.obj
 0002:000025f0       ??_C@_09FGKNPI@mInitData@  000000018011d5f0     GuMetaData.obj
 0002:00002600       ??_C@_0BC@CLDEHKCO@mCenterOrMinCoeff@ 000000018011d600     GuMetaData.obj
 0002:00002618       ??_C@_0BD@LAOLBNJ@mExtentsOrMaxCoeff@ 000000018011d618     GuMetaData.obj
 0002:00002630       ??_C@_0P@JEECKKBL@mUserAllocated@ 000000018011d630     GuMetaData.obj
 0002:00002640       ??_C@_0L@GLIMNECG@mQuantized@ 000000018011d640     GuMetaData.obj
 0002:00002650       ??_C@_08BNDBAGDH@mPadding@ 000000018011d650     GuMetaData.obj
 0002:00002660       ??_C@_0N@OJNNNLIB@TriangleMesh@ 000000018011d660     GuMetaData.obj
 0002:00002670       ??_C@_0M@OGEDMEAL@mNbVertices@ 000000018011d670     GuMetaData.obj
 0002:00002680       ??_C@_0N@MGGDNHNI@mNbTriangles@ 000000018011d680     GuMetaData.obj
 0002:00002690       ??_C@_09LNNEGOJA@mVertices@ 000000018011d690     GuMetaData.obj
 0002:000026a0       ??_C@_0L@KBOFAKLO@mTriangles@ 000000018011d6a0     GuMetaData.obj
 0002:000026b0       ??_C@_0P@MHDFIHLD@mExtraTrigData@ 000000018011d6b0     GuMetaData.obj
 0002:000026c0       ??_C@_0N@MGIKKCI@mGeomEpsilon@ 000000018011d6c0     GuMetaData.obj
 0002:000026d0       ??_C@_0BB@IFLOOCNA@mMaterialIndices@ 000000018011d6d0     GuMetaData.obj
 0002:000026e8       ??_C@_0L@OPJMBFMI@mFaceRemap@ 000000018011d6e8     GuMetaData.obj
 0002:000026f8       ??_C@_0N@BIOECAPM@mAdjacencies@ 000000018011d6f8     GuMetaData.obj
 0002:00002708       ??_C@_0BA@OCOIGPII@mGRB_triIndices@ 000000018011d708     GuMetaData.obj
 0002:00002718       ??_C@_0BE@JPINNDAH@mGRB_triAdjacencies@ 000000018011d718     GuMetaData.obj
 0002:00002730       ??_C@_0P@EDFJJHEF@mGRB_faceRemap@ 000000018011d730     GuMetaData.obj
 0002:00002740       ??_C@_0O@CKMBAIFN@mGRB_BV32Tree@ 000000018011d740     GuMetaData.obj
 0002:00002750       ??_C@_0BC@IFGECKF@RTreeTriangleMesh@ 000000018011d750     GuMetaData.obj
 0002:00002764       ??_C@_06JDIHDDGN@mRTree@   000000018011d764     GuMetaData.obj
 0002:00002770       ??_C@_0BA@LNNFPOKA@BV4TriangleMesh@ 000000018011d770     GuMetaData.obj
 0002:00002780       ??_C@_08FKLPEGDB@mBV4Tree@ 000000018011d780     GuMetaData.obj
 0002:00002790       ??_C@_0BG@EAPGHGEI@MaterialIndicesStruct@ 000000018011d790     GuMetaData.obj
 0002:000027a8       ??_C@_07OKCKIPNN@indices@  000000018011d7a8     GuMetaData.obj
 0002:000027b0       ??_C@_0L@KCBHBGBP@numIndices@ 000000018011d7b0     GuMetaData.obj
 0002:000027bc       ??_C@_03PNAAIPML@pad@      000000018011d7bc     GuMetaData.obj
 0002:000027c0       ??_C@_05MOMFAHOB@pad64@    000000018011d7c0     GuMetaData.obj
 0002:000027c8       ??_C@_0BK@GNJGHDGO@PxConvexMeshGeometryFlags@ 000000018011d7c8     GuMetaData.obj
 0002:000027e8       ??_C@_0BJ@LIOOOKID@ShadowConvexMeshGeometry@ 000000018011d7e8     GuMetaData.obj
 0002:00002808       ??_C@_0BF@PJFPGDNP@PxGeometryType?3?3Enum@ 000000018011d808     GuMetaData.obj
 0002:00002820       ??_C@_05GNIIDDHH@mType@    000000018011d820     GuMetaData.obj
 0002:00002828       ??_C@_0M@JFNDEGCE@PxMeshScale@ 000000018011d828     GuMetaData.obj
 0002:00002834       ??_C@_05MHMEBBGO@scale@    000000018011d834     GuMetaData.obj
 0002:00002840       ??_C@_0L@OKMLGDHH@convexMesh@ 000000018011d840     GuMetaData.obj
 0002:00002850       ??_C@_09PLMNFMJI@meshFlags@ 000000018011d850     GuMetaData.obj
 0002:00002860       ??_C@_0BB@EINMAHMD@paddingFromFlags@ 000000018011d860     GuMetaData.obj
 0002:00002878       ??_C@_08CICKEKCM@hullData@ 000000018011d878     GuMetaData.obj
 0002:00002888       ??_C@_0O@EOELHBFF@gpuCompatible@ 000000018011d888     GuMetaData.obj
 0002:00002898       ??_C@_0BE@FFPGAPHN@PxMeshGeometryFlags@ 000000018011d898     GuMetaData.obj
 0002:000028b0       ??_C@_0BL@KABFLNEB@ShadowTriangleMeshGeometry@ 000000018011d8b0     GuMetaData.obj
 0002:000028d0       ??_C@_0N@FKKDJAHE@triangleMesh@ 000000018011d8d0     GuMetaData.obj
 0002:000028e0       ??_C@_08BEABJAHJ@meshData@ 000000018011d8e0     GuMetaData.obj
 0002:000028f0       ??_C@_0BA@NGIONHFJ@materialIndices@ 000000018011d8f0     GuMetaData.obj
 0002:00002900       ??_C@_09JGGNEAGH@materials@ 000000018011d900     GuMetaData.obj
 0002:00002910       ??_C@_0BK@OIFEOHNJ@ShadowHeightFieldGeometry@ 000000018011d910     GuMetaData.obj
 0002:00002930       ??_C@_0M@IEKJPCGG@heightField@ 000000018011d930     GuMetaData.obj
 0002:00002940       ??_C@_0M@LHLNPPJ@heightScale@ 000000018011d940     GuMetaData.obj
 0002:00002950       ??_C@_08GJPCBGLE@rowScale@ 000000018011d950     GuMetaData.obj
 0002:00002960       ??_C@_0M@HHBHEPCE@columnScale@ 000000018011d960     GuMetaData.obj
 0002:00002970       ??_C@_0BB@PMIIHDKK@heightFieldFlags@ 000000018011d970     GuMetaData.obj
 0002:00002988       ??_C@_0BA@DMOKLLHN@heightFieldData@ 000000018011d988     GuMetaData.obj
 0002:00002998       ??_C@_0BE@IKADPPC@ShadowPlaneGeometry@ 000000018011d998     GuMetaData.obj
 0002:000029b0       ??_C@_0BF@PIKLLBGN@ShadowSphereGeometry@ 000000018011d9b0     GuMetaData.obj
 0002:000029c8       ??_C@_06KGHINEPG@radius@   000000018011d9c8     GuMetaData.obj
 0002:000029d0       ??_C@_0BG@OBHJHKMO@ShadowCapsuleGeometry@ 000000018011d9d0     GuMetaData.obj
 0002:000029e8       ??_C@_0L@PMAANELH@halfHeight@ 000000018011d9e8     GuMetaData.obj
 0002:000029f8       ??_C@_0BC@DMJNHLLO@ShadowBoxGeometry@ 000000018011d9f8     GuMetaData.obj
 0002:00002a10       ??_C@_0M@CMAEPJOI@halfExtents@ 000000018011da10     GuMetaData.obj
 0002:00002a20       ??_C@_0BH@PKALDLFA@PxConvexMeshGeometryLL@ 000000018011da20     GuMetaData.obj
 0002:00002a38       ??_C@_0BJ@GAFBNAAE@PxTriangleMeshGeometryLL@ 000000018011da38     GuMetaData.obj
 0002:00002a58       ??_C@_0BI@IIFLCNOC@PxHeightFieldGeometryLL@ 000000018011da58     GuMetaData.obj
 0002:00002a70       ??_C@_0BA@NAHKMBFO@PxPlaneGeometry@ 000000018011da70     GuMetaData.obj
 0002:00002a80       ??_C@_0BB@CHBDIEFA@PxSphereGeometry@ 000000018011da80     GuMetaData.obj
 0002:00002a98       ??_C@_0BC@LJMOIOOK@PxCapsuleGeometry@ 000000018011da98     GuMetaData.obj
 0002:00002ab0       ??_C@_0O@OEDJDNFP@PxBoxGeometry@ 000000018011dab0     GuMetaData.obj
 0002:00002ac0       ??_C@_0BC@ICOOCLFG@Gu?3?3GeometryUnion@ 000000018011dac0     GuMetaData.obj
 0002:00002ad8       ??_7?$SupportLocalImpl@VConvexHullV@Gu@physx@@@Gu@physx@@6B@ 000000018011dad8     GuMTD.obj
 0002:00002af8       ??_7?$SupportLocalImpl@VConvexHullNoScaleV@Gu@physx@@@Gu@physx@@6B@ 000000018011daf8     GuMTD.obj
 0002:00002b18       ??_7?$SupportLocalImpl@VBoxV@Gu@physx@@@Gu@physx@@6B@ 000000018011db18     GuMTD.obj
 0002:00002b38       ??_7SupportLocal@Gu@physx@@6B@ 000000018011db38     GuMTD.obj
 0002:00002b80       ?absMask@?1??FAbs@aos@shdfnd@physx@@YA?AT__m128@@T5@@Z@4QBIB 000000018011db80     GuMTD.obj
 0002:00002b90       ??_7GjkConvexBase@Gu@physx@@6B@ 000000018011db90     GuMTD.obj
 0002:00002bc0       ??_7?$LocalConvex@VCapsuleV@Gu@physx@@@Gu@physx@@6B@ 000000018011dbc0     GuMTD.obj
 0002:00002bf0       ??_7?$LocalConvex@VConvexHullV@Gu@physx@@@Gu@physx@@6B@ 000000018011dbf0     GuMTD.obj
 0002:00002c20       __real@2edbe6ff            000000018011dc20     GuMTD.obj
 0002:00002c24       __real@3ccccccd            000000018011dc24     GuMTD.obj
 0002:00002c28       __real@3dcccccd            000000018011dc28     GuMTD.obj
 0002:00002c2c       __real@ff7fffff            000000018011dc2c     GuMTD.obj
 0002:00002c30       __xmm@0000000000000000000000003f800000 000000018011dc30     GuMTD.obj
 0002:00002c40       __xmm@00000000000000003f80000000000000 000000018011dc40     GuMTD.obj
 0002:00002c50       __xmm@000000003f8000000000000000000000 000000018011dc50     GuMTD.obj
 0002:00002c60       __xmm@000000003f8000003f8000003f800000 000000018011dc60     GuMTD.obj
 0002:00002c70       __xmm@00000000ffffffffffffffffffffffff 000000018011dc70     GuMTD.obj
 0002:00002c80       __xmm@34000000340000003400000034000000 000000018011dc80     GuMTD.obj
 0002:00002c90       __xmm@358637bd358637bd358637bd358637bd 000000018011dc90     GuMTD.obj
 0002:00002ca0       __xmm@3dcccccd3dcccccd3dcccccd3dcccccd 000000018011dca0     GuMTD.obj
 0002:00002cb0       __xmm@3e4ccccd3e4ccccd3e4ccccd3e4ccccd 000000018011dcb0     GuMTD.obj
 0002:00002cc0       __xmm@3f7ff1413f7ff1413f7ff1413f7ff141 000000018011dcc0     GuMTD.obj
 0002:00002cd0       __xmm@3f7ff2e53f7ff2e53f7ff2e53f7ff2e5 000000018011dcd0     GuMTD.obj
 0002:00002ce0       __xmm@3f8000003f8000003f8000003f800000 000000018011dce0     GuMTD.obj
 0002:00002cf0       __xmm@7f7fffff7f7fffff7f7fffff7f7fffff 000000018011dcf0     GuMTD.obj
 0002:00002d00       __xmm@bf000000bf000000bf000000bf000000 000000018011dd00     GuMTD.obj
 0002:00002d30       ??_7?$RelativeConvex@VBoxV@Gu@physx@@@Gu@physx@@6B@ 000000018011dd30     GuOverlapTests.obj
 0002:00002d60       ??_7?$RelativeConvex@VConvexHullV@Gu@physx@@@Gu@physx@@6B@ 000000018011dd60     GuOverlapTests.obj
 0002:00002d90       ??_C@_0EC@MLIJOGHA@Height?5Field?5Overlap?5test?5calle@ 000000018011dd90     GuOverlapTests.obj
 0002:00002de0       ??_C@_0EO@JPMLIKFM@D?3?2OneDrive?2Github?2NVIDIA?2PhysX@ 000000018011dde0     GuOverlapTests.obj
 0002:00002e60       ??_C@_0EC@GJLDADPE@Height?5Field?5Raycast?5test?5calle@ 000000018011de60     GuRaycastTests.obj
 0002:00002eb0       ??_C@_0EO@GMAGPNPG@D?3?2OneDrive?2Github?2NVIDIA?2PhysX@ 000000018011deb0     GuRaycastTests.obj
 0002:00002f00       __real@1e3ce508            000000018011df00     GuRaycastTests.obj
 0002:00002f04       __real@28800000            000000018011df04     GuRaycastTests.obj
 0002:00002f08       __real@33d6bf95            000000018011df08     GuRaycastTests.obj
 0002:00002f0c       __real@3727c5ac            000000018011df0c     GuRaycastTests.obj
 0002:00002f10       __real@3f0147ae            000000018011df10     GuRaycastTests.obj
 0002:00002f14       __real@3f7ffffe            000000018011df14     GuRaycastTests.obj
 0002:00002f18       __real@3f800347            000000018011df18     GuRaycastTests.obj
 0002:00002f1c       __real@41200000            000000018011df1c     GuRaycastTests.obj
 0002:00002f20       __real@80000000            000000018011df20     GuRaycastTests.obj
 0002:00002f24       __real@b3d6bf95            000000018011df24     GuRaycastTests.obj
 0002:00002f28       __real@b8d1b717            000000018011df28     GuRaycastTests.obj
 0002:00002f2c       __real@c1200000            000000018011df2c     GuRaycastTests.obj
 0002:00002f60       ??_7?$MeshHitCallback@UPxRaycastHit@physx@@@Gu@physx@@6B@ 000000018011df60     GuSweepMTD.obj
 0002:00002f70       ??_7MeshMTDGenerationCallback@@6B@ 000000018011df70     GuSweepMTD.obj
 0002:00002f80       ??_7MidPhaseQueryLocalReport@@6B@ 000000018011df80     GuSweepMTD.obj
 0002:00002f90       __real@3f933333            000000018011df90     GuSweepMTD.obj
 0002:00002fa0       __xmm@00000000000000003f8000003f800000 000000018011dfa0     GuSweepMTD.obj
 0002:00002fb0       __xmm@3e19999a3e19999a3e19999a3e19999a 000000018011dfb0     GuSweepMTD.obj
 0002:00002fc0       __xmm@3e8000003e8000003e8000003e800000 000000018011dfc0     GuSweepMTD.obj
 0002:00002ff0       __real@3c23d70a            000000018011dff0     GuSweepSharedTests.obj
 0002:00002ff4       __real@42c80000            000000018011dff4     GuSweepSharedTests.obj
 0002:00003000       __xmm@ffffffffffffffffffffffffffffffff 000000018011e000     GuSweepSharedTests.obj
 0002:00003030       ??_C@_0EA@GNDJNJGB@Height?5Field?5Sweep?5test?5called?5@ 000000018011e030     GuSweepTests.obj
 0002:00003070       ??_C@_0EM@LADKFIMH@D?3?2OneDrive?2Github?2NVIDIA?2PhysX@ 000000018011e070     GuSweepTests.obj
 0002:000030c0       ??_7?$LocalConvex@VBoxV@Gu@physx@@@Gu@physx@@6B@ 000000018011e0c0     GuSweepTests.obj
 0002:000030f0       ??_7?$LocalConvex@VTriangleV@Gu@physx@@@Gu@physx@@6B@ 000000018011e0f0     GuSweepTests.obj
 0002:00003120       __xmm@00000002000000020000000200000002 000000018011e120     GuSweepTests.obj
 0002:00003130       __xmm@3eaaaa9f3eaaaa9f3eaaaa9f3eaaaa9f 000000018011e130     GuSweepTests.obj
 0002:00003160       ??_C@_0EP@GDPDDCOE@D?3?2OneDrive?2Github?2NVIDIA?2PhysX@ 000000018011e160     GuAABBTreeBuild.obj
 0002:000031d0       ??_7PxBVHStructure@physx@@6B@ 000000018011e1d0     GuBVHStructure.obj
 0002:00003220       ??_C@_0P@CDPKBIIF@PxBVHStructure@ 000000018011e220     GuBVHStructure.obj
 0002:00003230       ??_7RefCountable@Cm@physx@@6B@ 000000018011e230     GuBVHStructure.obj
 0002:00003240       ??_7BVHStructure@Gu@physx@@6BPxBVHStructure@2@@ 000000018011e240     GuBVHStructure.obj
 0002:00003290       ??_7BVHStructure@Gu@physx@@6BRefCountable@Cm@2@@ 000000018011e290     GuBVHStructure.obj
 0002:000032a0       ??_C@_0EO@BLJLHDLO@D?3?2OneDrive?2Github?2NVIDIA?2PhysX@ 000000018011e2a0     GuBVHStructure.obj
 0002:000032f0       ??_C@_0DF@GMOKOMPK@Gu?3?3BVHStructure?3?3release?3?5doub@ 000000018011e2f0     GuBVHStructure.obj
 0002:00003390       __real@00000000            000000018011e390     GuCCDSweepConvexMesh.obj
 0002:00003394       __real@3c343958            000000018011e394     GuCCDSweepConvexMesh.obj
 0002:00003398       __real@3ca3d70a            000000018011e398     GuCCDSweepConvexMesh.obj
 0002:0000339c       __real@3f0ccccd            000000018011e39c     GuCCDSweepConvexMesh.obj
 0002:000033a0       __real@3f8ccccd            000000018011e3a0     GuCCDSweepConvexMesh.obj
 0002:000033a4       __real@b58637bd            000000018011e3a4     GuCCDSweepConvexMesh.obj
 0002:000033b0       __xmm@000000000000000000000000fe7fffff 000000018011e3b0     GuCCDSweepConvexMesh.obj
 0002:000033c0       __xmm@fe7ffffffe7fffff7e7fffff7e7fffff 000000018011e3c0     GuCCDSweepConvexMesh.obj
 0002:000033f0       ??_7?$RelativeConvex@VCapsuleV@Gu@physx@@@Gu@physx@@6B@ 000000018011e3f0     GuCCDSweepPrimitives.obj
 0002:00003420       ??_7?$RelativeConvex@VTriangleV@Gu@physx@@@Gu@physx@@6B@ 000000018011e420     GuCCDSweepPrimitives.obj
 0002:00003450       __real@3ba3d70a            000000018011e450     GuCCDSweepPrimitives.obj
 0002:00003454       __real@501502f9            000000018011e454     GuCCDSweepPrimitives.obj
 0002:00003560       __real@3f7fbe77            000000018011e560     GuContactBoxBox.obj
 0002:000035b0       __real@3a83126f            000000018011e5b0     GuContactCapsuleCapsule.obj
 0002:000035b4       __real@3f7ff2e5            000000018011e5b4     GuContactCapsuleCapsule.obj
 0002:000035b8       __real@40800000            000000018011e5b8     GuContactCapsuleCapsule.obj
 0002:00003640       __real@358637be            000000018011e640     GuContactCapsuleMesh.obj
 0002:00003644       __real@3eaaaaab            000000018011e644     GuContactCapsuleMesh.obj
 0002:00003648       __real@3f8020c5            000000018011e648     GuContactCapsuleMesh.obj
 0002:0000364c       __real@ba83126f            000000018011e64c     GuContactCapsuleMesh.obj
 0002:000036a0       ??_7ConvexMeshContactGenerationCallback@@6B@ 000000018011e6a0     GuContactConvexMesh.obj
 0002:00003720       __real@3ec90fdb            000000018011e720     GuContactPolygonPolygon.obj
 0002:00003724       __real@3f490fdb            000000018011e724     GuContactPolygonPolygon.obj
 0002:00003728       __real@3f96cbe4            000000018011e728     GuContactPolygonPolygon.obj
 0002:0000372c       __real@3fc90fdb            000000018011e72c     GuContactPolygonPolygon.obj
 0002:00003730       __real@3ffb53d2            000000018011e730     GuContactPolygonPolygon.obj
 0002:00003734       __real@4016cbe4            000000018011e734     GuContactPolygonPolygon.obj
 0002:00003738       __real@402feddf            000000018011e738     GuContactPolygonPolygon.obj
 0002:00003740       __xmm@ff7fffffff7fffffff7fffffff7fffff 000000018011e740     GuContactPolygonPolygon.obj
 0002:000037f0       ??_C@_0EJ@MEINBHJM@D?3?2OneDrive?2Github?2NVIDIA?2PhysX@ 000000018011e7f0     GuContactSphereMesh.obj
 0002:00003880       __real@bf000000            000000018011e880     GuContactSphereSphere.obj
 0002:00003890       ??_C@_0FG@NOKMJDGH@D?3?2OneDrive?2Github?2NVIDIA?2PhysX@ 000000018011e890     GuBigConvexData.obj
 0002:00003910       ??_7PxConvexMesh@physx@@6B@ 000000018011e910     GuConvexMesh.obj
 0002:00003988       ??_7ConvexMesh@Gu@physx@@6BPxConvexMesh@2@@ 000000018011e988     GuConvexMesh.obj
 0002:00003a10       ??_7ConvexMesh@Gu@physx@@6BRefCountable@Cm@2@@ 000000018011ea10     GuConvexMesh.obj
 0002:00003a20       ??_C@_0FD@GKKGHPHE@D?3?2OneDrive?2Github?2NVIDIA?2PhysX@ 000000018011ea20     GuConvexMesh.obj
 0002:00003a78       ??_C@_0DM@NEJKOFIP@Loading?5convex?5mesh?5failed?3?5Dep@ 000000018011ea78     GuConvexMesh.obj
 0002:00003ab8       ??_C@_0DD@GDAMDLJL@Gu?3?3ConvexMesh?3?3release?3?5double@ 000000018011eab8     GuConvexMesh.obj
 0002:00003b10       __xmm@000000000000000000000000ffffffff 000000018011eb10     GuConvexSupportTable.obj
 0002:00003b20       __xmm@0000000000000000ffffffff00000000 000000018011eb20     GuConvexSupportTable.obj
 0002:00003b30       __xmm@0000000000000000ffffffffffffffff 000000018011eb30     GuConvexSupportTable.obj
 0002:00003b40       __xmm@00000000ffffffff0000000000000000 000000018011eb40     GuConvexSupportTable.obj
 0002:00003b50       __xmm@00000000ffffffff00000000ffffffff 000000018011eb50     GuConvexSupportTable.obj
 0002:00003b60       __xmm@00000000ffffffffffffffff00000000 000000018011eb60     GuConvexSupportTable.obj
 0002:00003c10       __real@2b8cbccc            000000018011ec10     GuDistanceSegmentTriangle.obj
 0002:00003c20       __xmm@3f8000013f8000013f8000013f800001 000000018011ec20     GuDistanceSegmentTriangle.obj
 0002:00003c30       __xmm@b4000000b4000000b4000000b4000000 000000018011ec30     GuDistanceSegmentTriangle.obj
 0002:00003c90       __xmm@38d1b71738d1b71738d1b71738d1b717 000000018011ec90     GuGJKSimplex.obj
 0002:00003ca0       __xmm@b58637bdb58637bdb58637bdb58637bd 000000018011eca0     GuGJKSimplex.obj
 0002:00003cd0       ??_7PxHeightField@physx@@6B@ 000000018011ecd0     GuHeightField.obj
 0002:00003d70       ??_7HeightField@Gu@physx@@6BPxHeightField@2@@ 000000018011ed70     GuHeightField.obj
 0002:00003e20       ??_7HeightField@Gu@physx@@6BRefCountable@Cm@2@@ 000000018011ee20     GuHeightField.obj
 0002:00003e30       ??_C@_0DL@DNGFPCEG@Gu?3?3HeightField?3?3onRefCountZero@ 000000018011ee30     GuHeightField.obj
 0002:00003e70       ??_C@_0FA@FKNNPDFK@D?3?2OneDrive?2Github?2NVIDIA?2PhysX@ 000000018011ee70     GuHeightField.obj
 0002:00003ec0       ??_C@_0CI@DMKEKGNK@Gu?3?3HeightField?3?3load?3?5PX_ALLOC@ 000000018011eec0     GuHeightField.obj
 0002:00003ef0       ??_C@_0ED@DHDHOENE@D?3?2OneDrive?2Github?2NVIDIA?2PhysX@ 000000018011eef0     GuHeightField.obj
 0002:00003f60       __real@3a03126f            000000018011ef60     GuHeightFieldUtil.obj
 0002:00003f64       __real@3f19999a            000000018011ef64     GuHeightFieldUtil.obj
 0002:00003fd0       ??_7HeightFieldTraceSegmentReport@@6B@ 000000018011efd0     GuSweepsHF.obj
 0002:00003fe0       ??_7CapsuleTraceSegmentReport@@6B@ 000000018011efe0     GuSweepsHF.obj
 0002:00003ff0       ??_7ConvexTraceSegmentReport@@6B@ 000000018011eff0     GuSweepsHF.obj
 0002:00004000       ??_7BoxTraceSegmentReport@@6B@ 000000018011f000     GuSweepsHF.obj
 0002:00004010       __real@aedbe6ff            000000018011f010     GuSweepsHF.obj
 0002:00004040       __real@3089705f            000000018011f040     GuIntersectionRayBox.obj
 0002:00004044       __real@34000000            000000018011f044     GuIntersectionRayBox.obj
 0002:00004048       __real@b4000000            000000018011f048     GuIntersectionRayBox.obj
 0002:00004050       __xmm@000000003089705f3089705f3089705f 000000018011f050     GuIntersectionRayBox.obj
 0002:00004060       __xmm@00000000bf800000bf800000bf800000 000000018011f060     GuIntersectionRayBox.obj
 0002:000040b0       ??_C@_0EK@EHEAOIAF@D?3?2OneDrive?2Github?2NVIDIA?2PhysX@ 000000018011f0b0     GuBV4.obj
 0002:00004120       ??_C@_0EP@HMMLCEHI@D?3?2OneDrive?2Github?2NVIDIA?2PhysX@ 000000018011f120     GuBV4Build.obj
 0002:00004170       __real@38000100            000000018011f170     GuBV4Build.obj
 0002:00004174       __real@3e93cd3a            000000018011f174     GuBV4Build.obj
 0002:00004178       __real@46fffe00            000000018011f178     GuBV4Build.obj
 0002:0000417c       __real@be93cd3a            000000018011f17c     GuBV4Build.obj
 0002:000041a0       __xmm@0000ffff0000ffff0000ffff0000ffff 000000018011f1a0     GuBV4_AABBSweep.obj
 0002:000041b0       __xmm@3089705f3089705f3089705f3089705f 000000018011f1b0     GuBV4_AABBSweep.obj
 0002:000041c0       __xmm@33d6bf9533d6bf9533d6bf9533d6bf95 000000018011f1c0     GuBV4_AABBSweep.obj
 0002:000041d0       __xmm@40000000400000004000000040000000 000000018011f1d0     GuBV4_AABBSweep.obj
 0002:000042e0       __xmm@00000000000000007f7fffff00000000 000000018011f2e0     GuMidphaseBV4.obj
 0002:00004350       ??_C@_0FD@EHCCILIF@Adjacency?5information?5not?5creat@ 000000018011f350     GuMeshQuery.obj
 0002:000043b0       ??_C@_0FA@FJDFALDB@D?3?2OneDrive?2Github?2NVIDIA?2PhysX@ 000000018011f3b0     GuMeshQuery.obj
 0002:00004400       __real@4cbebc20            000000018011f400     GuMeshQuery.obj
 0002:00004430       ??_7Callback@RTree@Gu@physx@@6B@ 000000018011f430     GuMidphaseRTree.obj
 0002:00004448       ??_7CallbackRaycast@RTree@Gu@physx@@6B@ 000000018011f448     GuMidphaseRTree.obj
 0002:00004448       ??_7CallbackRefit@RTree@Gu@physx@@6B@ 000000018011f448     GuTriangleMeshRTree.obj
 0002:00004458       ??_7?$RayRTreeCallback@$0A@$0A@@@6BCallbackRaycast@RTree@Gu@physx@@@ 000000018011f458     GuMidphaseRTree.obj
 0002:00004458       ??_7?$RayRTreeCallback@$00$0A@@@6BCallbackRaycast@RTree@Gu@physx@@@ 000000018011f458     GuMidphaseRTree.obj
 0002:00004468       ??_7?$RayRTreeCallback@$0A@$0A@@@6BCallback@RTree@Gu@physx@@@ 000000018011f468     GuMidphaseRTree.obj
 0002:00004468       ??_7?$RayRTreeCallback@$00$0A@@@6BCallback@RTree@Gu@physx@@@ 000000018011f468     GuMidphaseRTree.obj
 0002:00004480       ??_7RayMeshColliderCallback@@6B@ 000000018011f480     GuMidphaseRTree.obj
 0002:00004490       ??_7?$RayRTreeCallback@$0A@$00@@6BCallbackRaycast@RTree@Gu@physx@@@ 000000018011f490     GuMidphaseRTree.obj
 0002:000044a0       ??_7?$RayRTreeCallback@$0A@$00@@6BCallback@RTree@Gu@physx@@@ 000000018011f4a0     GuMidphaseRTree.obj
 0002:000044b8       ??_7?$RayRTreeCallback@$00$00@@6BCallbackRaycast@RTree@Gu@physx@@@ 000000018011f4b8     GuMidphaseRTree.obj
 0002:000044c8       ??_7?$RayRTreeCallback@$00$00@@6BCallback@RTree@Gu@physx@@@ 000000018011f4c8     GuMidphaseRTree.obj
 0002:000045a0       ??_7ConvexVsMeshOverlapCallback@@6B@ 000000018011f5a0     GuOverlapTestsMesh.obj
 0002:000045b0       ?MN@RTreePage@Gu@physx@@2MB 000000018011f5b0     GuRTree.obj
 0002:000045b4       ?MX@RTreePage@Gu@physx@@2MB 000000018011f5b4     GuRTree.obj
 0002:000045e0       ??_C@_0EM@BLBIOBKI@D?3?2OneDrive?2Github?2NVIDIA?2PhysX@ 000000018011f5e0     GuRTree.obj
 0002:000046a0       ??_7SweepShapeMeshHitCallback@Gu@physx@@6B@ 000000018011f6a0     GuSweepsMesh.obj
 0002:000046b0       ??_7SweepCapsuleMeshHitCallback@Gu@physx@@6B@ 000000018011f6b0     GuSweepsMesh.obj
 0002:000046c0       ??_7SweepBoxMeshHitCallback@Gu@physx@@6B@ 000000018011f6c0     GuSweepsMesh.obj
 0002:000046d0       ??_7SweepConvexMeshHitCallback@Gu@physx@@6B@ 000000018011f6d0     GuSweepsMesh.obj
 0002:00004700       ??_7PxTriangleMesh@physx@@6B@ 000000018011f700     GuTriangleMesh.obj
 0002:00004788       ??_7TriangleMesh@Gu@physx@@6BPxTriangleMesh@2@@ 000000018011f788     GuTriangleMesh.obj
 0002:00004828       ??_7TriangleMesh@Gu@physx@@6BRefCountable@Cm@2@@ 000000018011f828     GuTriangleMesh.obj
 0002:00004838       ??_C@_0DF@DNLKAHAL@Gu?3?3TriangleMesh?3?3release?3?5doub@ 000000018011f838     GuTriangleMesh.obj
 0002:00004870       ??_C@_0FD@FEPGNAJF@D?3?2OneDrive?2Github?2NVIDIA?2PhysX@ 000000018011f870     GuTriangleMesh.obj
 0002:000048d0       ??_C@_0GH@IGKFPLIJ@PxTriangleMesh?3?3getVerticesForM@ 000000018011f8d0     GuTriangleMesh.obj
 0002:00004940       ??_C@_0FF@LHAOBIMM@PxTriangleMesh?3?3refitBVH?$CI?$CJ?5is?5o@ 000000018011f940     GuTriangleMesh.obj
 0002:000049c0       ??_C@_0BE@CNJKIINO@PxBVH34TriangleMesh@ 000000018011f9c0     GuTriangleMeshBV4.obj
 0002:000049d8       ??_7BV4TriangleMesh@Gu@physx@@6BPxTriangleMesh@2@@ 000000018011f9d8     GuTriangleMeshBV4.obj
 0002:00004a78       ??_7BV4TriangleMesh@Gu@physx@@6BRefCountable@Cm@2@@ 000000018011fa78     GuTriangleMeshBV4.obj
 0002:00004ab0       ??_C@_0BE@EIFHCCBO@PxBVH33TriangleMesh@ 000000018011fab0     GuTriangleMeshRTree.obj
 0002:00004ac8       ??_7RTreeTriangleMesh@Gu@physx@@6BPxTriangleMesh@2@@ 000000018011fac8     GuTriangleMeshRTree.obj
 0002:00004b68       ??_7RTreeTriangleMesh@Gu@physx@@6BRefCountable@Cm@2@@ 000000018011fb68     GuTriangleMeshRTree.obj
 0002:00004b78       ??_7?$RefitCallback@G@physx@@6B@ 000000018011fb78     GuTriangleMeshRTree.obj
 0002:00004b88       ??_7?$RefitCallback@I@physx@@6B@ 000000018011fb88     GuTriangleMeshRTree.obj
 0002:00004ba0       __xmm@38383838383838383838383838383838 000000018011fba0     GuTriangleMeshRTree.obj
 0002:00004bb0       ??_C@_0EL@MGOFFHG@D?3?2OneDrive?2Github?2NVIDIA?2PhysX@ 000000018011fbb0     GuBV32.obj
 0002:00004c20       ??_C@_0FA@MPPNFAE@D?3?2OneDrive?2Github?2NVIDIA?2PhysX@ 000000018011fc20     GuBV32Build.obj
 0002:00004c90       __xmm@00000000358637bd358637bd358637bd 000000018011fc90     GuPCMContactBoxBox.obj
 0002:00004ca0       __xmm@3d4ccccd3d4ccccd3d4ccccd3d4ccccd 000000018011fca0     GuPCMContactBoxBox.obj
 0002:00004cb0       __xmm@3f4ccccd3f4ccccd3f4ccccd3f4ccccd 000000018011fcb0     GuPCMContactBoxBox.obj
 0002:00004cc0       __xmm@ffffffff00000000ffffffffffffffff 000000018011fcc0     GuPCMContactBoxBox.obj
 0002:00004cf0       ??_7?$LocalConvex@VConvexHullNoScaleV@Gu@physx@@@Gu@physx@@6B@ 000000018011fcf0     GuPCMContactBoxConvex.obj
 0002:00004d20       __xmm@3f3504f33f3504f33f3504f33f3504f3 000000018011fd20     GuPCMContactBoxConvex.obj
 0002:00004d70       __xmm@ffffffffffffffffffffffff00000000 000000018011fd70     GuPCMContactCapsuleCapsule.obj
 0002:00004da0       __xmm@3fa000003fa000003fa000003fa00000 000000018011fda0     GuPCMContactCapsuleConvex.obj
 0002:00004dd0       ??_7PCMCapsuleVsHeightfieldContactGenerationCallback@physx@@6B@ 000000018011fdd0     GuPCMContactCapsuleHeightField.obj
 0002:00004de0       __real@3f7f3b64            000000018011fde0     GuPCMContactCapsuleHeightField.obj
 0002:00004df0       __xmm@3f7ef9db3f7ef9db3f7ef9db3f7ef9db 000000018011fdf0     GuPCMContactCapsuleHeightField.obj
 0002:00004e30       ??_7PCMCapsuleVsMeshContactGenerationCallback@physx@@6B@ 000000018011fe30     GuPCMContactCapsuleMesh.obj
 0002:00004e60       ??_7?$SupportLocalImpl@VTriangleV@Gu@physx@@@Gu@physx@@6B@ 000000018011fe60     GuPCMContactConvexCommon.obj
 0002:00004e80       ??_C@_0FC@CIKFJCJE@D?3?2OneDrive?2Github?2NVIDIA?2PhysX@ 000000018011fe80     GuPCMContactConvexCommon.obj
 0002:00004ee0       __xmm@3cf5c2803cf5c2803cf5c2803cf5c280 000000018011fee0     GuPCMContactConvexCommon.obj
 0002:00004ef0       __xmm@3f7851ec3f7851ec3f7851ec3f7851ec 000000018011fef0     GuPCMContactConvexCommon.obj
 0002:00004f00       __xmm@3f7ff9723f7ff9723f7ff9723f7ff972 000000018011ff00     GuPCMContactConvexCommon.obj
 0002:00004f10       __xmm@3f7fffef3f7fffef3f7fffef3f7fffef 000000018011ff10     GuPCMContactConvexCommon.obj
 0002:00004f40       ??_7?$RelativeConvex@VConvexHullNoScaleV@Gu@physx@@@Gu@physx@@6B@ 000000018011ff40     GuPCMContactConvexConvex.obj
 0002:00004f90       ??_7PCMConvexVsHeightfieldContactGenerationCallback@physx@@6B@ 000000018011ff90     GuPCMContactConvexHeightField.obj
 0002:00004fa0       __xmm@3f19999a3f19999a3f19999a3f19999a 000000018011ffa0     GuPCMContactConvexHeightField.obj
 0002:00004fe0       ??_7PCMConvexVsMeshContactGenerationCallback@physx@@6B@ 000000018011ffe0     GuPCMContactConvexMesh.obj
 0002:00005010       __xmm@3f34fdf43f34fdf43f34fdf43f34fdf4 0000000180120010     GuPCMContactGenBoxConvex.obj
 0002:00005040       __xmm@3f80a3d73f80a3d73f80a3d73f80a3d7 0000000180120040     GuPCMContactGenSphereCapsule.obj
 0002:00005050       __xmm@bba3d70abba3d70abba3d70abba3d70a 0000000180120050     GuPCMContactGenSphereCapsule.obj
 0002:000050a0       __real@3b23d70b            00000001801200a0     GuPCMContactPlaneCapsule.obj
 0002:000050b0       __xmm@3ca3d70a3ca3d70a3ca3d70a3ca3d70a 00000001801200b0     GuPCMContactPlaneCapsule.obj
 0002:00005160       ??_7PCMSphereVsHeightfieldContactGenerationCallback@physx@@6B@ 0000000180120160     GuPCMContactSphereHeightField.obj
 0002:000051a0       ??_7PCMSphereVsMeshContactGenerationCallback@physx@@6B@ 00000001801201a0     GuPCMContactSphereMesh.obj
 0002:000051f0       __xmm@3727c5ac3727c5ac3727c5ac3727c5ac 00000001801201f0     GuPCMContactSphereSphere.obj
 0002:00005220       ?gPCMBoxPolygonData@Gu@physx@@3QBEB 0000000180120220     GuPCMShapeConvex.obj
 0002:00005260       ?invalidateThresholds@Gu@physx@@3QBMB 0000000180120260     GuPersistentContactManifold.obj
 0002:00005278       ?invalidateQuatThresholds@Gu@physx@@3QBMB 0000000180120278     GuPersistentContactManifold.obj
 0002:00005290       ?invalidateThresholds2@Gu@physx@@3QBMB 0000000180120290     GuPersistentContactManifold.obj
 0002:000052a0       ?invalidateQuatThresholds2@Gu@physx@@3QBMB 00000001801202a0     GuPersistentContactManifold.obj
 0002:000052d0       __xmm@000000003f8000003f80000000000000 00000001801202d0     GuPersistentContactManifold.obj
 0002:000052e0       __xmm@00000000bf8000003f80000000000000 00000001801202e0     GuPersistentContactManifold.obj
 0002:000052f0       __xmm@ffffffffffffffff00000000ffffffff 00000001801202f0     GuPersistentContactManifold.obj
 0002:00005340       __real@b727c5ac            0000000180120340     GuSweepBoxSphere.obj
 0002:000053b0       ??_C@_0FH@IJFKFCOO@D?3?2OneDrive?2Github?2NVIDIA?2PhysX@ 00000001801203b0     GuSweepCapsuleBox.obj
 0002:00005430       __real@3f7fff58            0000000180120430     GuSweepCapsuleTriangle.obj
 0002:00005480       __sz_PhysXFoundation_64_dll 0000000180120480     PhysXFoundation_64:PhysXFoundation_64.dll
 0002:00005498       ??_C@_1BK@DBDEIDLH@?$AAK?$AAE?$AAR?$AAN?$AAE?$AAL?$AA3?$AA2?$AA?4?$AAD?$AAL?$AAL@ 0000000180120498     Delayimp:delayhlp.obj
 0002:000054b8       ??_C@_0BI@OMNLIJDB@AcquireSRWLockExclusive@ 00000001801204b8     Delayimp:delayhlp.obj
 0002:000054d0       ??_C@_0BI@HMIEPCNJ@ReleaseSRWLockExclusive@ 00000001801204d0     Delayimp:delayhlp.obj
 0002:000054e8       __pfnDliFailureHook2       00000001801204e8     Delayimp:delayhk1.obj
 0002:000054f8       ??_7type_info@@6B@         00000001801204f8     MSVCRT:std_type_info_static.obj
 0002:00005560       _pDefaultRawDllMain        0000000180120560     MSVCRT:dll_dllmain.obj
 0002:00005560       _pRawDllMain               0000000180120560     MSVCRT:dll_dllmain.obj
 0002:00005570       _load_config_used          0000000180120570     MSVCRT:loadcfg.obj
 0002:00005700       ??_R4type_info@@6B@        0000000180120700     MSVCRT:std_type_info_static.obj
 0002:00005728       ??_R3type_info@@8          0000000180120728     MSVCRT:std_type_info_static.obj
 0002:00005740       ??_R2type_info@@8          0000000180120740     MSVCRT:std_type_info_static.obj
 0002:00005750       ??_R1A@?0A@EA@type_info@@8 0000000180120750     MSVCRT:std_type_info_static.obj
 0002:00005b28       __rtc_iaa                  0000000180120b28     MSVCRT:initsect.obj
 0002:00005b30       __rtc_izz                  0000000180120b30     MSVCRT:initsect.obj
 0002:00005b38       __rtc_taa                  0000000180120b38     MSVCRT:initsect.obj
 0002:00005b40       __rtc_tzz                  0000000180120b40     MSVCRT:initsect.obj
 0002:000111d8       __DELAY_IMPORT_DESCRIPTOR_physxfoundation_64_dll 000000018012c1d8     PhysXFoundation_64:PhysXFoundation_64.dll
 0002:000111f8       __NULL_DELAY_IMPORT_DESCRIPTOR 000000018012c1f8     PhysXFoundation_64:PhysXFoundation_64.dll
 0002:00011298       \177PhysXFoundation_64_NULL_THUNK_DATA_DLN 000000018012c298     PhysXFoundation_64:PhysXFoundation_64.dll
 0002:000115c0       \177PhysXFoundation_64_NULL_THUNK_DATA_DLB 000000018012c5c0     PhysXFoundation_64:PhysXFoundation_64.dll
 0002:0001b71c       __IMPORT_DESCRIPTOR_KERNEL32 000000018013671c     kernel32:KERNEL32.dll
 0002:0001b730       __IMPORT_DESCRIPTOR_VCRUNTIME140 0000000180136730     vcruntime:VCRUNTIME140.dll
 0002:0001b744       __IMPORT_DESCRIPTOR_api-ms-win-crt-math-l1-1-0 0000000180136744     ucrt:api-ms-win-crt-math-l1-1-0.dll
 0002:0001b758       __IMPORT_DESCRIPTOR_api-ms-win-crt-string-l1-1-0 0000000180136758     ucrt:api-ms-win-crt-string-l1-1-0.dll
 0002:0001b76c       __IMPORT_DESCRIPTOR_api-ms-win-crt-heap-l1-1-0 000000018013676c     ucrt:api-ms-win-crt-heap-l1-1-0.dll
 0002:0001b780       __IMPORT_DESCRIPTOR_api-ms-win-crt-runtime-l1-1-0 0000000180136780     ucrt:api-ms-win-crt-runtime-l1-1-0.dll
 0002:0001b794       __NULL_IMPORT_DESCRIPTOR   0000000180136794     kernel32:KERNEL32.dll
 0003:00000000       __pfnDliNotifyHook2        0000000180137000     CmWindowsDelayLoadHook.obj
 0003:00000020       ?gGeomMTDMethodTable@@3PAY06P6A_NAEAVPxVec3@physx@@AEAMAEBVPxGeometry@2@AEBVPxTransform@2@23@ZA 0000000180137020     GuMTD.obj
 0003:000001b0       ?gGeomOverlapMethodTable@@3PAY06P6A_NAEBVPxGeometry@physx@@AEBVPxTransform@2@01PEAUTriggerCache@Gu@2@@ZA 00000001801371b0     GuOverlapTests.obj
 0003:00000338       ?gRaycastMap@@3PAP6AIAEBVPxGeometry@physx@@AEBVPxTransform@2@AEBVPxVec3@2@2MV?$PxFlags@W4Enum@PxHitFlag@physx@@G@2@IPEIAUPxRaycastHit@2@@ZA 0000000180137338     GuRaycastTests.obj
 0003:00000370       ?gGeomSweepFuncs@@3UGeomSweepFuncs@Gu@physx@@A 0000000180137370     GuSweepTests.obj
 0003:00000490       ?g_SweepMethodTable@Gu@physx@@3PAY06P6AMAEBUCCDShape@12@0AEBVPxTransform@2@111MAEAVPxVec3@2@2MAEAIM@ZA 0000000180137490     GuCCDSweepPrimitives.obj
 0003:00000618       ?g_TriangleSweepMethodTable@Gu@physx@@3PAP6AMAEBVGeometryUnion@12@0AEBVPxTransform@2@111MAEAVPxVec3@2@2AEBVFastVertex2ShapeScaling@Cm@2@AEAVTriangleV@12@M@ZA 0000000180137618     GuCCDSweepPrimitives.obj
 0003:00000a14       _fltused                   0000000180137a14     MSVCRT:fltused.obj
 0003:00000a20       __isa_available            0000000180137a20     MSVCRT:cpu_disp.obj
 0003:00000a24       __isa_enabled              0000000180137a24     MSVCRT:cpu_disp.obj
 0003:00000a28       __memcpy_nt_iters          0000000180137a28     MSVCRT:cpu_disp.obj
 0003:00000a30       __memset_nt_iters          0000000180137a30     MSVCRT:cpu_disp.obj
 0003:00000a40       __scrt_native_dllmain_reason 0000000180137a40     MSVCRT:utility.obj
 0003:00000a48       __security_cookie_complement 0000000180137a48     MSVCRT:gs_cookie.obj
 0003:00000a50       __security_cookie          0000000180137a50     MSVCRT:gs_cookie.obj
 0003:00000a60       __scrt_ucrt_dll_is_in_use  0000000180137a60     MSVCRT:ucrt_stubs.obj
 0003:00000a70       ??_R0?AVCollection@Cm@physx@@@8 0000000180137a70     CmCollection.obj
 0003:00000aa0       ??_R0D@8                   0000000180137aa0     CmRenderOutput.obj
 0003:00000ab8       ??_R0?AUPxDebugText@physx@@@8 0000000180137ab8     CmRenderOutput.obj
 0003:00000ae0       ??_R0?AUPxDebugTriangle@physx@@@8 0000000180137ae0     CmRenderOutput.obj
 0003:00000b10       ??_R0?AUPxDebugLine@physx@@@8 0000000180137b10     CmRenderOutput.obj
 0003:00000b38       ??_R0?AUPxDebugPoint@physx@@@8 0000000180137b38     CmRenderOutput.obj
 0003:00000b68       ??_R0?AVMutexImpl@shdfnd@physx@@@8 0000000180137b68     GuMeshFactory.obj
 0003:00000b98       ??_R0?AVBVHStructure@Gu@physx@@@8 0000000180137b98     GuMeshFactory.obj
 0003:00000bc8       ??_R0?AVHeightField@Gu@physx@@@8 0000000180137bc8     GuMeshFactory.obj
 0003:00000bf8       ??_R0?AVConvexMesh@Gu@physx@@@8 0000000180137bf8     GuMeshFactory.obj
 0003:00000c28       ??_R0?AVBV32Tree@Gu@physx@@@8 0000000180137c28     GuMeshFactory.obj
 0003:00000c50       ??_R0?AVBV4TriangleData@Gu@physx@@@8 0000000180137c50     GuMeshFactory.obj
 0003:00000c80       ??_R0?AVRTreeTriangleData@Gu@physx@@@8 0000000180137c80     GuMeshFactory.obj
 0003:00000cb8       ??_R0?AVBV4TriangleMesh@Gu@physx@@@8 0000000180137cb8     GuMeshFactory.obj
 0003:00000ce8       ??_R0?AVRTreeTriangleMesh@Gu@physx@@@8 0000000180137ce8     GuMeshFactory.obj
 0003:00000d20       ??_R0E@8                   0000000180137d20     GuMeshFactory.obj
 0003:00000d38       ??_R0G@8                   0000000180137d38     GuMeshFactory.obj
 0003:00000d50       ??_R0I@8                   0000000180137d50     GuMeshFactory.obj
 0003:00000d68       ??_R0PEAVGuMeshFactoryListener@physx@@@8 0000000180137d68     GuMeshFactory.obj
 0003:00000da0       ??_R0?AVAABBTreeBuildNode@Gu@physx@@@8 0000000180137da0     GuAABBTreeBuild.obj
 0003:00000dd8       ??_R0?AUSlab@NodeAllocator@Gu@physx@@@8 0000000180137dd8     GuAABBTreeBuild.obj
 0003:00000e10       ??_R0PEBUBVHNode@Gu@physx@@@8 0000000180137e10     GuBVHStructure.obj
 0003:00000e38       ??_R0?AVBigConvexData@physx@@@8 0000000180137e38     GuConvexMesh.obj
 0003:00000e68       ??_R0?AVIndTri16@Gu@physx@@@8 0000000180137e68     GuBV4.obj
 0003:00000e90       ??_R0?AVIndTri32@Gu@physx@@@8 0000000180137e90     GuBV4.obj
 0003:00000ec0       ??_R0?AU?$BVDataPackedT@VQuantizedAABB@Gu@physx@@@Gu@physx@@@8 0000000180137ec0     GuBV4Build.obj
 0003:00000f10       ??_R0?AUSlab@BV4BuildParams@@@8 0000000180137f10     GuBV4Build.obj
 0003:00000f40       ??_R0?AVAABBTreeNode@Gu@physx@@@8 0000000180137f40     GuBV4Build.obj
 0003:00000f70       ??_R0?AUBV32Data@Gu@physx@@@8 0000000180137f70     GuBV32Build.obj
 0003:00000f98       ??_R0?AUBV32Node@@@8       0000000180137f98     GuBV32Build.obj
 0003:00000fb8       ??_R0?AUSortedTriangle@Gu@physx@@@8 0000000180137fb8     GuPCMContactConvexCommon.obj
 0003:00000fe8       ??_R0?AVtype_info@@@8      0000000180137fe8     MSVCRT:std_type_info_static.obj
 0003:00001008       __imp_PxGetFoundation      0000000180138008     PhysXFoundation_64:PhysXFoundation_64.dll
 0003:00001010       __imp_?deallocate@TempAllocator@shdfnd@physx@@QEAAXPEAX@Z 0000000180138010     PhysXFoundation_64:PhysXFoundation_64.dll
 0003:00001018       __imp_?getAllocator@shdfnd@physx@@YAAEAVPxAllocatorCallback@2@XZ 0000000180138018     PhysXFoundation_64:PhysXFoundation_64.dll
 0003:00001020       __imp_?getInstance@Foundation@shdfnd@physx@@SAAEAV123@XZ 0000000180138020     PhysXFoundation_64:PhysXFoundation_64.dll
 0003:00001028       __imp_?error@Foundation@shdfnd@physx@@QEAAXW4Enum@PxErrorCode@3@PEBDH1ZZ 0000000180138028     PhysXFoundation_64:PhysXFoundation_64.dll
 0003:00001030       __imp_?vsnprintf@shdfnd@physx@@YAHPEAD_KPEBD0@Z 0000000180138030     PhysXFoundation_64:PhysXFoundation_64.dll
 0003:00001038       __imp_??0MutexImpl@shdfnd@physx@@QEAA@XZ 0000000180138038     PhysXFoundation_64:PhysXFoundation_64.dll
 0003:00001040       __imp_??1MutexImpl@shdfnd@physx@@QEAA@XZ 0000000180138040     PhysXFoundation_64:PhysXFoundation_64.dll
 0003:00001048       __imp_?lock@MutexImpl@shdfnd@physx@@QEAAXXZ 0000000180138048     PhysXFoundation_64:PhysXFoundation_64.dll
 0003:00001050       __imp_?unlock@MutexImpl@shdfnd@physx@@QEAAXXZ 0000000180138050     PhysXFoundation_64:PhysXFoundation_64.dll
 0003:00001058       __imp_?getSize@MutexImpl@shdfnd@physx@@SAIXZ 0000000180138058     PhysXFoundation_64:PhysXFoundation_64.dll
 0003:00001060       __imp_?atomicDecrement@shdfnd@physx@@YAHPECH@Z 0000000180138060     PhysXFoundation_64:PhysXFoundation_64.dll
 0003:00001068       __imp_?PxTransformFromSegment@physx@@YA?AVPxTransform@1@AEBVPxVec3@1@0PEAM@Z 0000000180138068     PhysXFoundation_64:PhysXFoundation_64.dll
 0003:00001070       __imp_?optimizeBoundingBox@shdfnd@physx@@YA?AVPxVec3@2@AEAVPxMat33@2@@Z 0000000180138070     PhysXFoundation_64:PhysXFoundation_64.dll
 0003:00001078       __imp_?allocate@TempAllocator@shdfnd@physx@@QEAAPEAX_KPEBDH@Z 0000000180138078     PhysXFoundation_64:PhysXFoundation_64.dll
 0003:00001080       __imp_?atomicIncrement@shdfnd@physx@@YAHPECH@Z 0000000180138080     PhysXFoundation_64:PhysXFoundation_64.dll
 0003:00001088       \177PhysXFoundation_64_NULL_THUNK_DATA_DLA 0000000180138088     PhysXFoundation_64:PhysXFoundation_64.dll
 0003:00001e20       ?boxVertexTable@physx@@3QBT__m128@@B 0000000180138e20     GuConvexSupportTable.obj
 0003:00003970       __hmod__PhysXFoundation_64_dll 000000018013a970     PhysXFoundation_64:PhysXFoundation_64.dll
 0003:00003978       ?DloadKernel32@@3PEAUHINSTANCE__@@EA 000000018013a978     Delayimp:delayhlp.obj
 0003:00003980       ?DloadAcquireSRWLockExclusive@@3P6AXPEA_K@ZEA 000000018013a980     Delayimp:delayhlp.obj
 0003:00003988       ?DloadReleaseSRWLockExclusive@@3P6AXPEA_K@ZEA 000000018013a988     Delayimp:delayhlp.obj
 0003:00003990       ?DloadSrwLock@@3_KA        000000018013a990     Delayimp:delayhlp.obj
 0003:00003998       ?DloadSectionLockCount@@3KA 000000018013a998     Delayimp:delayhlp.obj
 0003:0000399c       ?DloadSectionOldProtection@@3KA 000000018013a99c     Delayimp:delayhlp.obj
 0003:000039a0       ?DloadSectionCommitPermanent@@3KA 000000018013a9a0     Delayimp:delayhlp.obj
 0003:000039b0       ?__type_info_root_node@@3U__type_info_node@@A 000000018013a9b0     MSVCRT:tncleanup.obj
 0003:000039c8       __castguard_check_failure_os_handled_fptr 000000018013a9c8     MSVCRT:guard_support.obj
 0003:000039d0       __favor                    000000018013a9d0     MSVCRT:cpu_disp.obj
 0003:000039d8       ?_OptionsStorage@?1??__local_stdio_printf_options@@9@4_KA 000000018013a9d8     MSVCRT:default_local_stdio_options.obj
 0003:000039e0       ?_OptionsStorage@?1??__local_stdio_scanf_options@@9@4_KA 000000018013a9e0     MSVCRT:default_local_stdio_options.obj
 0003:000039e8       __scrt_current_native_startup_state 000000018013a9e8     MSVCRT:utility.obj
 0003:000039f0       __scrt_native_startup_lock 000000018013a9f0     MSVCRT:utility.obj
 0003:00003a30       __scrt_debugger_hook_flag  000000018013aa30     MSVCRT:utility_desktop.obj
 0003:00003a38       __dyn_tls_init_callback    000000018013aa38     <common>
 0005:00000100       __common_ssin_reduction_data 0000000180141100     MSVCRT:svml_s_sin_data.obj
 0005:00000d00       __common_ssin_data         0000000180141d00     MSVCRT:svml_s_sin_data.obj

 entry point at        0001:00118508

 Static symbols

 0000:ffeb9000       .debug$S                   0000000180000000     PhysXCommon_64.exp
 0000:ffeb9000       .debug$S                   0000000180000000     vcruntime:VCRUNTIME140.dll
 0000:ffeb9000       .debug$S                   0000000180000000     vcruntime:VCRUNTIME140.dll
 0000:ffeb9000       .debug$S                   0000000180000000     vcruntime:VCRUNTIME140.dll
 0000:ffeb9000       .debug$S                   0000000180000000     vcruntime:VCRUNTIME140.dll
 0000:ffeb9000       .debug$S                   0000000180000000     vcruntime:VCRUNTIME140.dll
 0000:ffeb9000       .debug$S                   0000000180000000     vcruntime:VCRUNTIME140.dll
 0000:ffeb9000       .debug$S                   0000000180000000     vcruntime:VCRUNTIME140.dll
 0000:ffeb9000       .debug$S                   0000000180000000     vcruntime:VCRUNTIME140.dll
 0000:ffeb9000       .debug$S                   0000000180000000     vcruntime:VCRUNTIME140.dll
 0000:ffeb9000       .debug$S                   0000000180000000     ucrt:api-ms-win-crt-heap-l1-1-0.dll
 0000:ffeb9000       .debug$S                   0000000180000000     ucrt:api-ms-win-crt-math-l1-1-0.dll
 0000:ffeb9000       .debug$S                   0000000180000000     ucrt:api-ms-win-crt-math-l1-1-0.dll
 0000:ffeb9000       .debug$S                   0000000180000000     ucrt:api-ms-win-crt-math-l1-1-0.dll
 0000:ffeb9000       .debug$S                   0000000180000000     ucrt:api-ms-win-crt-math-l1-1-0.dll
 0000:ffeb9000       .debug$S                   0000000180000000     ucrt:api-ms-win-crt-math-l1-1-0.dll
 0000:ffeb9000       .debug$S                   0000000180000000     ucrt:api-ms-win-crt-runtime-l1-1-0.dll
 0000:ffeb9000       .debug$S                   0000000180000000     ucrt:api-ms-win-crt-runtime-l1-1-0.dll
 0000:ffeb9000       .debug$S                   0000000180000000     ucrt:api-ms-win-crt-runtime-l1-1-0.dll
 0000:ffeb9000       .debug$S                   0000000180000000     ucrt:api-ms-win-crt-runtime-l1-1-0.dll
 0000:ffeb9000       .debug$S                   0000000180000000     ucrt:api-ms-win-crt-runtime-l1-1-0.dll
 0000:ffeb9000       .debug$S                   0000000180000000     ucrt:api-ms-win-crt-runtime-l1-1-0.dll
 0000:ffeb9000       .debug$S                   0000000180000000     ucrt:api-ms-win-crt-runtime-l1-1-0.dll
 0000:ffeb9000       .debug$S                   0000000180000000     ucrt:api-ms-win-crt-runtime-l1-1-0.dll
 0000:ffeb9000       .debug$S                   0000000180000000     ucrt:api-ms-win-crt-runtime-l1-1-0.dll
 0000:ffeb9000       .debug$S                   0000000180000000     ucrt:api-ms-win-crt-runtime-l1-1-0.dll
 0000:ffeb9000       .debug$S                   0000000180000000     ucrt:api-ms-win-crt-runtime-l1-1-0.dll
 0000:ffeb9000       .debug$S                   0000000180000000     ucrt:api-ms-win-crt-runtime-l1-1-0.dll
 0000:ffeb9000       .debug$S                   0000000180000000     ucrt:api-ms-win-crt-string-l1-1-0.dll
 0000:ffeb9000       .debug$S                   0000000180000000     kernel32:KERNEL32.dll
 0000:ffeb9000       .debug$S                   0000000180000000     kernel32:KERNEL32.dll
 0000:ffeb9000       .debug$S                   0000000180000000     kernel32:KERNEL32.dll
 0000:ffeb9000       .debug$S                   0000000180000000     kernel32:KERNEL32.dll
 0000:ffeb9000       .debug$S                   0000000180000000     kernel32:KERNEL32.dll
 0000:ffeb9000       .debug$S                   0000000180000000     kernel32:KERNEL32.dll
 0000:ffeb9000       .debug$S                   0000000180000000     kernel32:KERNEL32.dll
 0000:ffeb9000       .debug$S                   0000000180000000     kernel32:KERNEL32.dll
 0000:ffeb9000       .debug$S                   0000000180000000     kernel32:KERNEL32.dll
 0000:ffeb9000       .debug$S                   0000000180000000     kernel32:KERNEL32.dll
 0000:ffeb9000       .debug$S                   0000000180000000     kernel32:KERNEL32.dll
 0000:ffeb9000       .debug$S                   0000000180000000     kernel32:KERNEL32.dll
 0000:ffeb9000       .debug$S                   0000000180000000     kernel32:KERNEL32.dll
 0000:ffeb9000       .debug$S                   0000000180000000     kernel32:KERNEL32.dll
 0000:ffeb9000       .debug$S                   0000000180000000     kernel32:KERNEL32.dll
 0000:ffeb9000       .debug$S                   0000000180000000     kernel32:KERNEL32.dll
 0000:ffeb9000       .debug$S                   0000000180000000     kernel32:KERNEL32.dll
 0000:ffeb9000       .debug$S                   0000000180000000     kernel32:KERNEL32.dll
 0000:ffeb9000       .debug$S                   0000000180000000     kernel32:KERNEL32.dll
 0000:ffeb9000       .debug$S                   0000000180000000     kernel32:KERNEL32.dll
 0000:ffeb9000       .debug$S                   0000000180000000     kernel32:KERNEL32.dll
 0000:ffeb9000       .debug$S                   0000000180000000     kernel32:KERNEL32.dll
 0000:ffeb9000       .debug$S                   0000000180000000     kernel32:KERNEL32.dll
 0000:ffeb9000       .debug$S                   0000000180000000     kernel32:KERNEL32.dll
 0000:ffeb9000       .debug$S                   0000000180000000     PhysXFoundation_64:PhysXFoundation_64.dll
 0000:ffeb9000       .debug$S                   0000000180000000     PhysXFoundation_64:PhysXFoundation_64.dll
 0000:ffeb9000       .debug$S                   0000000180000000     PhysXFoundation_64:PhysXFoundation_64.dll
 0000:ffeb9000       .debug$S                   0000000180000000     PhysXFoundation_64:PhysXFoundation_64.dll
 0000:ffeb9000       .debug$S                   0000000180000000     PhysXFoundation_64:PhysXFoundation_64.dll
 0000:ffeb9000       .debug$S                   0000000180000000     PhysXFoundation_64:PhysXFoundation_64.dll
 0000:ffeb9000       .debug$S                   0000000180000000     PhysXFoundation_64:PhysXFoundation_64.dll
 0000:ffeb9000       .debug$S                   0000000180000000     PhysXFoundation_64:PhysXFoundation_64.dll
 0000:ffeb9000       .debug$S                   0000000180000000     PhysXFoundation_64:PhysXFoundation_64.dll
 0000:ffeb9000       .debug$S                   0000000180000000     PhysXFoundation_64:PhysXFoundation_64.dll
 0000:ffeb9000       .debug$S                   0000000180000000     PhysXFoundation_64:PhysXFoundation_64.dll
 0000:ffeb9000       .debug$S                   0000000180000000     PhysXFoundation_64:PhysXFoundation_64.dll
 0000:ffeb9000       .debug$S                   0000000180000000     PhysXFoundation_64:PhysXFoundation_64.dll
 0000:ffeb9000       .debug$S                   0000000180000000     PhysXFoundation_64:PhysXFoundation_64.dll
 0000:ffeb9000       .debug$S                   0000000180000000     PhysXFoundation_64:PhysXFoundation_64.dll
 0000:ffeb9000       .debug$S                   0000000180000000     PhysXFoundation_64:PhysXFoundation_64.dll
 0001:00000000       ??__EmaxFError@_VecMathTests@aos@shdfnd@physx@@YAXXZ 0000000180001000 f   GuBounds.obj
 0001:00000010       ??__EmaxV3Error@_VecMathTests@aos@shdfnd@physx@@YAXXZ 0000000180001010 f   GuBounds.obj
 0001:00000020       ??__EmaxV4Error@_VecMathTests@aos@shdfnd@physx@@YAXXZ 0000000180001020 f   GuBounds.obj
 0001:00000030       ??__EminFError@_VecMathTests@aos@shdfnd@physx@@YAXXZ 0000000180001030 f   GuBounds.obj
 0001:00000040       ??__EminV3Error@_VecMathTests@aos@shdfnd@physx@@YAXXZ 0000000180001040 f   GuBounds.obj
 0001:00000050       ??__EminV4Error@_VecMathTests@aos@shdfnd@physx@@YAXXZ 0000000180001050 f   GuBounds.obj
 0001:00000060       ??__EmaxFError@_VecMathTests@aos@shdfnd@physx@@YAXXZ 0000000180001060 f   GuBox.obj
 0001:00000070       ??__EmaxV3Error@_VecMathTests@aos@shdfnd@physx@@YAXXZ 0000000180001070 f   GuBox.obj
 0001:00000080       ??__EmaxV4Error@_VecMathTests@aos@shdfnd@physx@@YAXXZ 0000000180001080 f   GuBox.obj
 0001:00000090       ??__EminFError@_VecMathTests@aos@shdfnd@physx@@YAXXZ 0000000180001090 f   GuBox.obj
 0001:000000a0       ??__EminV3Error@_VecMathTests@aos@shdfnd@physx@@YAXXZ 00000001800010a0 f   GuBox.obj
 0001:000000b0       ??__EminV4Error@_VecMathTests@aos@shdfnd@physx@@YAXXZ 00000001800010b0 f   GuBox.obj
 0001:000000c0       ??__EmaxFError@_VecMathTests@aos@shdfnd@physx@@YAXXZ 00000001800010c0 f   GuCCTSweepTests.obj
 0001:000000d0       ??__EmaxV3Error@_VecMathTests@aos@shdfnd@physx@@YAXXZ 00000001800010d0 f   GuCCTSweepTests.obj
 0001:000000e0       ??__EmaxV4Error@_VecMathTests@aos@shdfnd@physx@@YAXXZ 00000001800010e0 f   GuCCTSweepTests.obj
 0001:000000f0       ??__EminFError@_VecMathTests@aos@shdfnd@physx@@YAXXZ 00000001800010f0 f   GuCCTSweepTests.obj
 0001:00000100       ??__EminV3Error@_VecMathTests@aos@shdfnd@physx@@YAXXZ 0000000180001100 f   GuCCTSweepTests.obj
 0001:00000110       ??__EminV4Error@_VecMathTests@aos@shdfnd@physx@@YAXXZ 0000000180001110 f   GuCCTSweepTests.obj
 0001:00000120       ??__EmaxFError@_VecMathTests@aos@shdfnd@physx@@YAXXZ 0000000180001120 f   GuGeometryQuery.obj
 0001:00000130       ??__EmaxV3Error@_VecMathTests@aos@shdfnd@physx@@YAXXZ 0000000180001130 f   GuGeometryQuery.obj
 0001:00000140       ??__EmaxV4Error@_VecMathTests@aos@shdfnd@physx@@YAXXZ 0000000180001140 f   GuGeometryQuery.obj
 0001:00000150       ??__EminFError@_VecMathTests@aos@shdfnd@physx@@YAXXZ 0000000180001150 f   GuGeometryQuery.obj
 0001:00000160       ??__EminV3Error@_VecMathTests@aos@shdfnd@physx@@YAXXZ 0000000180001160 f   GuGeometryQuery.obj
 0001:00000170       ??__EminV4Error@_VecMathTests@aos@shdfnd@physx@@YAXXZ 0000000180001170 f   GuGeometryQuery.obj
 0001:00000180       ??__EmaxFError@_VecMathTests@aos@shdfnd@physx@@YAXXZ 0000000180001180 f   GuGeometryUnion.obj
 0001:00000190       ??__EmaxV3Error@_VecMathTests@aos@shdfnd@physx@@YAXXZ 0000000180001190 f   GuGeometryUnion.obj
 0001:000001a0       ??__EmaxV4Error@_VecMathTests@aos@shdfnd@physx@@YAXXZ 00000001800011a0 f   GuGeometryUnion.obj
 0001:000001b0       ??__EminFError@_VecMathTests@aos@shdfnd@physx@@YAXXZ 00000001800011b0 f   GuGeometryUnion.obj
 0001:000001c0       ??__EminV3Error@_VecMathTests@aos@shdfnd@physx@@YAXXZ 00000001800011c0 f   GuGeometryUnion.obj
 0001:000001d0       ??__EminV4Error@_VecMathTests@aos@shdfnd@physx@@YAXXZ 00000001800011d0 f   GuGeometryUnion.obj
 0001:000001e0       ??__EmaxFError@_VecMathTests@aos@shdfnd@physx@@YAXXZ 00000001800011e0 f   GuInternal.obj
 0001:000001f0       ??__EmaxV3Error@_VecMathTests@aos@shdfnd@physx@@YAXXZ 00000001800011f0 f   GuInternal.obj
 0001:00000200       ??__EmaxV4Error@_VecMathTests@aos@shdfnd@physx@@YAXXZ 0000000180001200 f   GuInternal.obj
 0001:00000210       ??__EminFError@_VecMathTests@aos@shdfnd@physx@@YAXXZ 0000000180001210 f   GuInternal.obj
 0001:00000220       ??__EminV3Error@_VecMathTests@aos@shdfnd@physx@@YAXXZ 0000000180001220 f   GuInternal.obj
 0001:00000230       ??__EminV4Error@_VecMathTests@aos@shdfnd@physx@@YAXXZ 0000000180001230 f   GuInternal.obj
 0001:00000240       ??__EmaxFError@_VecMathTests@aos@shdfnd@physx@@YAXXZ 0000000180001240 f   GuMeshFactory.obj
 0001:00000250       ??__EmaxV3Error@_VecMathTests@aos@shdfnd@physx@@YAXXZ 0000000180001250 f   GuMeshFactory.obj
 0001:00000260       ??__EmaxV4Error@_VecMathTests@aos@shdfnd@physx@@YAXXZ 0000000180001260 f   GuMeshFactory.obj
 0001:00000270       ??__EminFError@_VecMathTests@aos@shdfnd@physx@@YAXXZ 0000000180001270 f   GuMeshFactory.obj
 0001:00000280       ??__EminV3Error@_VecMathTests@aos@shdfnd@physx@@YAXXZ 0000000180001280 f   GuMeshFactory.obj
 0001:00000290       ??__EminV4Error@_VecMathTests@aos@shdfnd@physx@@YAXXZ 0000000180001290 f   GuMeshFactory.obj
 0001:000002a0       ??__EmaxFError@_VecMathTests@aos@shdfnd@physx@@YAXXZ 00000001800012a0 f   GuMetaData.obj
 0001:000002b0       ??__EmaxV3Error@_VecMathTests@aos@shdfnd@physx@@YAXXZ 00000001800012b0 f   GuMetaData.obj
 0001:000002c0       ??__EmaxV4Error@_VecMathTests@aos@shdfnd@physx@@YAXXZ 00000001800012c0 f   GuMetaData.obj
 0001:000002d0       ??__EminFError@_VecMathTests@aos@shdfnd@physx@@YAXXZ 00000001800012d0 f   GuMetaData.obj
 0001:000002e0       ??__EminV3Error@_VecMathTests@aos@shdfnd@physx@@YAXXZ 00000001800012e0 f   GuMetaData.obj
 0001:000002f0       ??__EminV4Error@_VecMathTests@aos@shdfnd@physx@@YAXXZ 00000001800012f0 f   GuMetaData.obj
 0001:00000300       ??__EmaxFError@_VecMathTests@aos@shdfnd@physx@@YAXXZ 0000000180001300 f   GuMTD.obj
 0001:00000310       ??__EmaxV3Error@_VecMathTests@aos@shdfnd@physx@@YAXXZ 0000000180001310 f   GuMTD.obj
 0001:00000320       ??__EmaxV4Error@_VecMathTests@aos@shdfnd@physx@@YAXXZ 0000000180001320 f   GuMTD.obj
 0001:00000330       ??__EminFError@_VecMathTests@aos@shdfnd@physx@@YAXXZ 0000000180001330 f   GuMTD.obj
 0001:00000340       ??__EminV3Error@_VecMathTests@aos@shdfnd@physx@@YAXXZ 0000000180001340 f   GuMTD.obj
 0001:00000350       ??__EminV4Error@_VecMathTests@aos@shdfnd@physx@@YAXXZ 0000000180001350 f   GuMTD.obj
 0001:00000360       ??__EmaxFError@_VecMathTests@aos@shdfnd@physx@@YAXXZ 0000000180001360 f   GuOverlapTests.obj
 0001:00000370       ??__EmaxV3Error@_VecMathTests@aos@shdfnd@physx@@YAXXZ 0000000180001370 f   GuOverlapTests.obj
 0001:00000380       ??__EmaxV4Error@_VecMathTests@aos@shdfnd@physx@@YAXXZ 0000000180001380 f   GuOverlapTests.obj
 0001:00000390       ??__EminFError@_VecMathTests@aos@shdfnd@physx@@YAXXZ 0000000180001390 f   GuOverlapTests.obj
 0001:000003a0       ??__EminV3Error@_VecMathTests@aos@shdfnd@physx@@YAXXZ 00000001800013a0 f   GuOverlapTests.obj
 0001:000003b0       ??__EminV4Error@_VecMathTests@aos@shdfnd@physx@@YAXXZ 00000001800013b0 f   GuOverlapTests.obj
 0001:000003c0       ??__EmaxFError@_VecMathTests@aos@shdfnd@physx@@YAXXZ 00000001800013c0 f   GuRaycastTests.obj
 0001:000003d0       ??__EmaxV3Error@_VecMathTests@aos@shdfnd@physx@@YAXXZ 00000001800013d0 f   GuRaycastTests.obj
 0001:000003e0       ??__EmaxV4Error@_VecMathTests@aos@shdfnd@physx@@YAXXZ 00000001800013e0 f   GuRaycastTests.obj
 0001:000003f0       ??__EminFError@_VecMathTests@aos@shdfnd@physx@@YAXXZ 00000001800013f0 f   GuRaycastTests.obj
 0001:00000400       ??__EminV3Error@_VecMathTests@aos@shdfnd@physx@@YAXXZ 0000000180001400 f   GuRaycastTests.obj
 0001:00000410       ??__EminV4Error@_VecMathTests@aos@shdfnd@physx@@YAXXZ 0000000180001410 f   GuRaycastTests.obj
 0001:00000420       ??__EmaxFError@_VecMathTests@aos@shdfnd@physx@@YAXXZ 0000000180001420 f   GuSweepMTD.obj
 0001:00000430       ??__EmaxV3Error@_VecMathTests@aos@shdfnd@physx@@YAXXZ 0000000180001430 f   GuSweepMTD.obj
 0001:00000440       ??__EmaxV4Error@_VecMathTests@aos@shdfnd@physx@@YAXXZ 0000000180001440 f   GuSweepMTD.obj
 0001:00000450       ??__EminFError@_VecMathTests@aos@shdfnd@physx@@YAXXZ 0000000180001450 f   GuSweepMTD.obj
 0001:00000460       ??__EminV3Error@_VecMathTests@aos@shdfnd@physx@@YAXXZ 0000000180001460 f   GuSweepMTD.obj
 0001:00000470       ??__EminV4Error@_VecMathTests@aos@shdfnd@physx@@YAXXZ 0000000180001470 f   GuSweepMTD.obj
 0001:00000480       ??__EmaxFError@_VecMathTests@aos@shdfnd@physx@@YAXXZ 0000000180001480 f   GuSweepSharedTests.obj
 0001:00000490       ??__EmaxV3Error@_VecMathTests@aos@shdfnd@physx@@YAXXZ 0000000180001490 f   GuSweepSharedTests.obj
 0001:000004a0       ??__EmaxV4Error@_VecMathTests@aos@shdfnd@physx@@YAXXZ 00000001800014a0 f   GuSweepSharedTests.obj
 0001:000004b0       ??__EminFError@_VecMathTests@aos@shdfnd@physx@@YAXXZ 00000001800014b0 f   GuSweepSharedTests.obj
 0001:000004c0       ??__EminV3Error@_VecMathTests@aos@shdfnd@physx@@YAXXZ 00000001800014c0 f   GuSweepSharedTests.obj
 0001:000004d0       ??__EminV4Error@_VecMathTests@aos@shdfnd@physx@@YAXXZ 00000001800014d0 f   GuSweepSharedTests.obj
 0001:000004e0       ??__EmaxFError@_VecMathTests@aos@shdfnd@physx@@YAXXZ 00000001800014e0 f   GuSweepTests.obj
 0001:000004f0       ??__EmaxV3Error@_VecMathTests@aos@shdfnd@physx@@YAXXZ 00000001800014f0 f   GuSweepTests.obj
 0001:00000500       ??__EmaxV4Error@_VecMathTests@aos@shdfnd@physx@@YAXXZ 0000000180001500 f   GuSweepTests.obj
 0001:00000510       ??__EminFError@_VecMathTests@aos@shdfnd@physx@@YAXXZ 0000000180001510 f   GuSweepTests.obj
 0001:00000520       ??__EminV3Error@_VecMathTests@aos@shdfnd@physx@@YAXXZ 0000000180001520 f   GuSweepTests.obj
 0001:00000530       ??__EminV4Error@_VecMathTests@aos@shdfnd@physx@@YAXXZ 0000000180001530 f   GuSweepTests.obj
 0001:00000540       ??__EmaxFError@_VecMathTests@aos@shdfnd@physx@@YAXXZ 0000000180001540 f   GuAABBTreeBuild.obj
 0001:00000550       ??__EmaxV3Error@_VecMathTests@aos@shdfnd@physx@@YAXXZ 0000000180001550 f   GuAABBTreeBuild.obj
 0001:00000560       ??__EmaxV4Error@_VecMathTests@aos@shdfnd@physx@@YAXXZ 0000000180001560 f   GuAABBTreeBuild.obj
 0001:00000570       ??__EminFError@_VecMathTests@aos@shdfnd@physx@@YAXXZ 0000000180001570 f   GuAABBTreeBuild.obj
 0001:00000580       ??__EminV3Error@_VecMathTests@aos@shdfnd@physx@@YAXXZ 0000000180001580 f   GuAABBTreeBuild.obj
 0001:00000590       ??__EminV4Error@_VecMathTests@aos@shdfnd@physx@@YAXXZ 0000000180001590 f   GuAABBTreeBuild.obj
 0001:000005a0       ??__EmaxFError@_VecMathTests@aos@shdfnd@physx@@YAXXZ 00000001800015a0 f   GuBVHStructure.obj
 0001:000005b0       ??__EmaxV3Error@_VecMathTests@aos@shdfnd@physx@@YAXXZ 00000001800015b0 f   GuBVHStructure.obj
 0001:000005c0       ??__EmaxV4Error@_VecMathTests@aos@shdfnd@physx@@YAXXZ 00000001800015c0 f   GuBVHStructure.obj
 0001:000005d0       ??__EminFError@_VecMathTests@aos@shdfnd@physx@@YAXXZ 00000001800015d0 f   GuBVHStructure.obj
 0001:000005e0       ??__EminV3Error@_VecMathTests@aos@shdfnd@physx@@YAXXZ 00000001800015e0 f   GuBVHStructure.obj
 0001:000005f0       ??__EminV4Error@_VecMathTests@aos@shdfnd@physx@@YAXXZ 00000001800015f0 f   GuBVHStructure.obj
 0001:00000600       ??__EmaxFError@_VecMathTests@aos@shdfnd@physx@@YAXXZ 0000000180001600 f   GuCCDSweepConvexMesh.obj
 0001:00000610       ??__EmaxV3Error@_VecMathTests@aos@shdfnd@physx@@YAXXZ 0000000180001610 f   GuCCDSweepConvexMesh.obj
 0001:00000620       ??__EmaxV4Error@_VecMathTests@aos@shdfnd@physx@@YAXXZ 0000000180001620 f   GuCCDSweepConvexMesh.obj
 0001:00000630       ??__EminFError@_VecMathTests@aos@shdfnd@physx@@YAXXZ 0000000180001630 f   GuCCDSweepConvexMesh.obj
 0001:00000640       ??__EminV3Error@_VecMathTests@aos@shdfnd@physx@@YAXXZ 0000000180001640 f   GuCCDSweepConvexMesh.obj
 0001:00000650       ??__EminV4Error@_VecMathTests@aos@shdfnd@physx@@YAXXZ 0000000180001650 f   GuCCDSweepConvexMesh.obj
 0001:00000660       ??__EmaxFError@_VecMathTests@aos@shdfnd@physx@@YAXXZ 0000000180001660 f   GuCCDSweepPrimitives.obj
 0001:00000670       ??__EmaxV3Error@_VecMathTests@aos@shdfnd@physx@@YAXXZ 0000000180001670 f   GuCCDSweepPrimitives.obj
 0001:00000680       ??__EmaxV4Error@_VecMathTests@aos@shdfnd@physx@@YAXXZ 0000000180001680 f   GuCCDSweepPrimitives.obj
 0001:00000690       ??__EminFError@_VecMathTests@aos@shdfnd@physx@@YAXXZ 0000000180001690 f   GuCCDSweepPrimitives.obj
 0001:000006a0       ??__EminV3Error@_VecMathTests@aos@shdfnd@physx@@YAXXZ 00000001800016a0 f   GuCCDSweepPrimitives.obj
 0001:000006b0       ??__EminV4Error@_VecMathTests@aos@shdfnd@physx@@YAXXZ 00000001800016b0 f   GuCCDSweepPrimitives.obj
 0001:000006c0       ??__EmaxFError@_VecMathTests@aos@shdfnd@physx@@YAXXZ 00000001800016c0 f   GuBarycentricCoordinates.obj
 0001:000006d0       ??__EmaxV3Error@_VecMathTests@aos@shdfnd@physx@@YAXXZ 00000001800016d0 f   GuBarycentricCoordinates.obj
 0001:000006e0       ??__EmaxV4Error@_VecMathTests@aos@shdfnd@physx@@YAXXZ 00000001800016e0 f   GuBarycentricCoordinates.obj
 0001:000006f0       ??__EminFError@_VecMathTests@aos@shdfnd@physx@@YAXXZ 00000001800016f0 f   GuBarycentricCoordinates.obj
 0001:00000700       ??__EminV3Error@_VecMathTests@aos@shdfnd@physx@@YAXXZ 0000000180001700 f   GuBarycentricCoordinates.obj
 0001:00000710       ??__EminV4Error@_VecMathTests@aos@shdfnd@physx@@YAXXZ 0000000180001710 f   GuBarycentricCoordinates.obj
 0001:00000720       ??__EmaxFError@_VecMathTests@aos@shdfnd@physx@@YAXXZ 0000000180001720 f   GuContactBoxBox.obj
 0001:00000730       ??__EmaxV3Error@_VecMathTests@aos@shdfnd@physx@@YAXXZ 0000000180001730 f   GuContactBoxBox.obj
 0001:00000740       ??__EmaxV4Error@_VecMathTests@aos@shdfnd@physx@@YAXXZ 0000000180001740 f   GuContactBoxBox.obj
 0001:00000750       ??__EminFError@_VecMathTests@aos@shdfnd@physx@@YAXXZ 0000000180001750 f   GuContactBoxBox.obj
 0001:00000760       ??__EminV3Error@_VecMathTests@aos@shdfnd@physx@@YAXXZ 0000000180001760 f   GuContactBoxBox.obj
 0001:00000770       ??__EminV4Error@_VecMathTests@aos@shdfnd@physx@@YAXXZ 0000000180001770 f   GuContactBoxBox.obj
 0001:00000780       ??__EmaxFError@_VecMathTests@aos@shdfnd@physx@@YAXXZ 0000000180001780 f   GuContactCapsuleBox.obj
 0001:00000790       ??__EmaxV3Error@_VecMathTests@aos@shdfnd@physx@@YAXXZ 0000000180001790 f   GuContactCapsuleBox.obj
 0001:000007a0       ??__EmaxV4Error@_VecMathTests@aos@shdfnd@physx@@YAXXZ 00000001800017a0 f   GuContactCapsuleBox.obj
 0001:000007b0       ??__EminFError@_VecMathTests@aos@shdfnd@physx@@YAXXZ 00000001800017b0 f   GuContactCapsuleBox.obj
 0001:000007c0       ??__EminV3Error@_VecMathTests@aos@shdfnd@physx@@YAXXZ 00000001800017c0 f   GuContactCapsuleBox.obj
 0001:000007d0       ??__EminV4Error@_VecMathTests@aos@shdfnd@physx@@YAXXZ 00000001800017d0 f   GuContactCapsuleBox.obj
 0001:000007e0       ??__EmaxFError@_VecMathTests@aos@shdfnd@physx@@YAXXZ 00000001800017e0 f   GuContactCapsuleCapsule.obj
 0001:000007f0       ??__EmaxV3Error@_VecMathTests@aos@shdfnd@physx@@YAXXZ 00000001800017f0 f   GuContactCapsuleCapsule.obj
 0001:00000800       ??__EmaxV4Error@_VecMathTests@aos@shdfnd@physx@@YAXXZ 0000000180001800 f   GuContactCapsuleCapsule.obj
 0001:00000810       ??__EminFError@_VecMathTests@aos@shdfnd@physx@@YAXXZ 0000000180001810 f   GuContactCapsuleCapsule.obj
 0001:00000820       ??__EminV3Error@_VecMathTests@aos@shdfnd@physx@@YAXXZ 0000000180001820 f   GuContactCapsuleCapsule.obj
 0001:00000830       ??__EminV4Error@_VecMathTests@aos@shdfnd@physx@@YAXXZ 0000000180001830 f   GuContactCapsuleCapsule.obj
 0001:00000840       ??__EmaxFError@_VecMathTests@aos@shdfnd@physx@@YAXXZ 0000000180001840 f   GuContactCapsuleConvex.obj
 0001:00000850       ??__EmaxV3Error@_VecMathTests@aos@shdfnd@physx@@YAXXZ 0000000180001850 f   GuContactCapsuleConvex.obj
 0001:00000860       ??__EmaxV4Error@_VecMathTests@aos@shdfnd@physx@@YAXXZ 0000000180001860 f   GuContactCapsuleConvex.obj
 0001:00000870       ??__EminFError@_VecMathTests@aos@shdfnd@physx@@YAXXZ 0000000180001870 f   GuContactCapsuleConvex.obj
 0001:00000880       ??__EminV3Error@_VecMathTests@aos@shdfnd@physx@@YAXXZ 0000000180001880 f   GuContactCapsuleConvex.obj
 0001:00000890       ??__EminV4Error@_VecMathTests@aos@shdfnd@physx@@YAXXZ 0000000180001890 f   GuContactCapsuleConvex.obj
 0001:000008a0       ??__EmaxFError@_VecMathTests@aos@shdfnd@physx@@YAXXZ 00000001800018a0 f   GuContactCapsuleMesh.obj
 0001:000008b0       ??__EmaxV3Error@_VecMathTests@aos@shdfnd@physx@@YAXXZ 00000001800018b0 f   GuContactCapsuleMesh.obj
 0001:000008c0       ??__EmaxV4Error@_VecMathTests@aos@shdfnd@physx@@YAXXZ 00000001800018c0 f   GuContactCapsuleMesh.obj
 0001:000008d0       ??__EminFError@_VecMathTests@aos@shdfnd@physx@@YAXXZ 00000001800018d0 f   GuContactCapsuleMesh.obj
 0001:000008e0       ??__EminV3Error@_VecMathTests@aos@shdfnd@physx@@YAXXZ 00000001800018e0 f   GuContactCapsuleMesh.obj
 0001:000008f0       ??__EminV4Error@_VecMathTests@aos@shdfnd@physx@@YAXXZ 00000001800018f0 f   GuContactCapsuleMesh.obj
 0001:00000900       ??__EmaxFError@_VecMathTests@aos@shdfnd@physx@@YAXXZ 0000000180001900 f   GuContactConvexConvex.obj
 0001:00000910       ??__EmaxV3Error@_VecMathTests@aos@shdfnd@physx@@YAXXZ 0000000180001910 f   GuContactConvexConvex.obj
 0001:00000920       ??__EmaxV4Error@_VecMathTests@aos@shdfnd@physx@@YAXXZ 0000000180001920 f   GuContactConvexConvex.obj
 0001:00000930       ??__EminFError@_VecMathTests@aos@shdfnd@physx@@YAXXZ 0000000180001930 f   GuContactConvexConvex.obj
 0001:00000940       ??__EminV3Error@_VecMathTests@aos@shdfnd@physx@@YAXXZ 0000000180001940 f   GuContactConvexConvex.obj
 0001:00000950       ??__EminV4Error@_VecMathTests@aos@shdfnd@physx@@YAXXZ 0000000180001950 f   GuContactConvexConvex.obj
 0001:00000960       ??__EmaxFError@_VecMathTests@aos@shdfnd@physx@@YAXXZ 0000000180001960 f   GuContactConvexMesh.obj
 0001:00000970       ??__EmaxV3Error@_VecMathTests@aos@shdfnd@physx@@YAXXZ 0000000180001970 f   GuContactConvexMesh.obj
 0001:00000980       ??__EmaxV4Error@_VecMathTests@aos@shdfnd@physx@@YAXXZ 0000000180001980 f   GuContactConvexMesh.obj
 0001:00000990       ??__EminFError@_VecMathTests@aos@shdfnd@physx@@YAXXZ 0000000180001990 f   GuContactConvexMesh.obj
 0001:000009a0       ??__EminV3Error@_VecMathTests@aos@shdfnd@physx@@YAXXZ 00000001800019a0 f   GuContactConvexMesh.obj
 0001:000009b0       ??__EminV4Error@_VecMathTests@aos@shdfnd@physx@@YAXXZ 00000001800019b0 f   GuContactConvexMesh.obj
 0001:000009c0       ??__EmaxFError@_VecMathTests@aos@shdfnd@physx@@YAXXZ 00000001800019c0 f   GuContactPlaneBox.obj
 0001:000009d0       ??__EmaxV3Error@_VecMathTests@aos@shdfnd@physx@@YAXXZ 00000001800019d0 f   GuContactPlaneBox.obj
 0001:000009e0       ??__EmaxV4Error@_VecMathTests@aos@shdfnd@physx@@YAXXZ 00000001800019e0 f   GuContactPlaneBox.obj
 0001:000009f0       ??__EminFError@_VecMathTests@aos@shdfnd@physx@@YAXXZ 00000001800019f0 f   GuContactPlaneBox.obj
 0001:00000a00       ??__EminV3Error@_VecMathTests@aos@shdfnd@physx@@YAXXZ 0000000180001a00 f   GuContactPlaneBox.obj
 0001:00000a10       ??__EminV4Error@_VecMathTests@aos@shdfnd@physx@@YAXXZ 0000000180001a10 f   GuContactPlaneBox.obj
 0001:00000a20       ??__EmaxFError@_VecMathTests@aos@shdfnd@physx@@YAXXZ 0000000180001a20 f   GuContactPlaneCapsule.obj
 0001:00000a30       ??__EmaxV3Error@_VecMathTests@aos@shdfnd@physx@@YAXXZ 0000000180001a30 f   GuContactPlaneCapsule.obj
 0001:00000a40       ??__EmaxV4Error@_VecMathTests@aos@shdfnd@physx@@YAXXZ 0000000180001a40 f   GuContactPlaneCapsule.obj
 0001:00000a50       ??__EminFError@_VecMathTests@aos@shdfnd@physx@@YAXXZ 0000000180001a50 f   GuContactPlaneCapsule.obj
 0001:00000a60       ??__EminV3Error@_VecMathTests@aos@shdfnd@physx@@YAXXZ 0000000180001a60 f   GuContactPlaneCapsule.obj
 0001:00000a70       ??__EminV4Error@_VecMathTests@aos@shdfnd@physx@@YAXXZ 0000000180001a70 f   GuContactPlaneCapsule.obj
 0001:00000a80       ??__EmaxFError@_VecMathTests@aos@shdfnd@physx@@YAXXZ 0000000180001a80 f   GuContactPlaneConvex.obj
 0001:00000a90       ??__EmaxV3Error@_VecMathTests@aos@shdfnd@physx@@YAXXZ 0000000180001a90 f   GuContactPlaneConvex.obj
 0001:00000aa0       ??__EmaxV4Error@_VecMathTests@aos@shdfnd@physx@@YAXXZ 0000000180001aa0 f   GuContactPlaneConvex.obj
 0001:00000ab0       ??__EminFError@_VecMathTests@aos@shdfnd@physx@@YAXXZ 0000000180001ab0 f   GuContactPlaneConvex.obj
 0001:00000ac0       ??__EminV3Error@_VecMathTests@aos@shdfnd@physx@@YAXXZ 0000000180001ac0 f   GuContactPlaneConvex.obj
 0001:00000ad0       ??__EminV4Error@_VecMathTests@aos@shdfnd@physx@@YAXXZ 0000000180001ad0 f   GuContactPlaneConvex.obj
 0001:00000ae0       ??__EmaxFError@_VecMathTests@aos@shdfnd@physx@@YAXXZ 0000000180001ae0 f   GuContactSphereBox.obj
 0001:00000af0       ??__EmaxV3Error@_VecMathTests@aos@shdfnd@physx@@YAXXZ 0000000180001af0 f   GuContactSphereBox.obj
 0001:00000b00       ??__EmaxV4Error@_VecMathTests@aos@shdfnd@physx@@YAXXZ 0000000180001b00 f   GuContactSphereBox.obj
 0001:00000b10       ??__EminFError@_VecMathTests@aos@shdfnd@physx@@YAXXZ 0000000180001b10 f   GuContactSphereBox.obj
 0001:00000b20       ??__EminV3Error@_VecMathTests@aos@shdfnd@physx@@YAXXZ 0000000180001b20 f   GuContactSphereBox.obj
 0001:00000b30       ??__EminV4Error@_VecMathTests@aos@shdfnd@physx@@YAXXZ 0000000180001b30 f   GuContactSphereBox.obj
 0001:00000b40       ??__EmaxFError@_VecMathTests@aos@shdfnd@physx@@YAXXZ 0000000180001b40 f   GuContactSphereCapsule.obj
 0001:00000b50       ??__EmaxV3Error@_VecMathTests@aos@shdfnd@physx@@YAXXZ 0000000180001b50 f   GuContactSphereCapsule.obj
 0001:00000b60       ??__EmaxV4Error@_VecMathTests@aos@shdfnd@physx@@YAXXZ 0000000180001b60 f   GuContactSphereCapsule.obj
 0001:00000b70       ??__EminFError@_VecMathTests@aos@shdfnd@physx@@YAXXZ 0000000180001b70 f   GuContactSphereCapsule.obj
 0001:00000b80       ??__EminV3Error@_VecMathTests@aos@shdfnd@physx@@YAXXZ 0000000180001b80 f   GuContactSphereCapsule.obj
 0001:00000b90       ??__EminV4Error@_VecMathTests@aos@shdfnd@physx@@YAXXZ 0000000180001b90 f   GuContactSphereCapsule.obj
 0001:00000ba0       ??__EmaxFError@_VecMathTests@aos@shdfnd@physx@@YAXXZ 0000000180001ba0 f   GuContactSphereMesh.obj
 0001:00000bb0       ??__EmaxV3Error@_VecMathTests@aos@shdfnd@physx@@YAXXZ 0000000180001bb0 f   GuContactSphereMesh.obj
 0001:00000bc0       ??__EmaxV4Error@_VecMathTests@aos@shdfnd@physx@@YAXXZ 0000000180001bc0 f   GuContactSphereMesh.obj
 0001:00000bd0       ??__EminFError@_VecMathTests@aos@shdfnd@physx@@YAXXZ 0000000180001bd0 f   GuContactSphereMesh.obj
 0001:00000be0       ??__EminV3Error@_VecMathTests@aos@shdfnd@physx@@YAXXZ 0000000180001be0 f   GuContactSphereMesh.obj
 0001:00000bf0       ??__EminV4Error@_VecMathTests@aos@shdfnd@physx@@YAXXZ 0000000180001bf0 f   GuContactSphereMesh.obj
 0001:00000c00       ??__EmaxFError@_VecMathTests@aos@shdfnd@physx@@YAXXZ 0000000180001c00 f   GuContactSpherePlane.obj
 0001:00000c10       ??__EmaxV3Error@_VecMathTests@aos@shdfnd@physx@@YAXXZ 0000000180001c10 f   GuContactSpherePlane.obj
 0001:00000c20       ??__EmaxV4Error@_VecMathTests@aos@shdfnd@physx@@YAXXZ 0000000180001c20 f   GuContactSpherePlane.obj
 0001:00000c30       ??__EminFError@_VecMathTests@aos@shdfnd@physx@@YAXXZ 0000000180001c30 f   GuContactSpherePlane.obj
 0001:00000c40       ??__EminV3Error@_VecMathTests@aos@shdfnd@physx@@YAXXZ 0000000180001c40 f   GuContactSpherePlane.obj
 0001:00000c50       ??__EminV4Error@_VecMathTests@aos@shdfnd@physx@@YAXXZ 0000000180001c50 f   GuContactSpherePlane.obj
 0001:00000c60       ??__EmaxFError@_VecMathTests@aos@shdfnd@physx@@YAXXZ 0000000180001c60 f   GuContactSphereSphere.obj
 0001:00000c70       ??__EmaxV3Error@_VecMathTests@aos@shdfnd@physx@@YAXXZ 0000000180001c70 f   GuContactSphereSphere.obj
 0001:00000c80       ??__EmaxV4Error@_VecMathTests@aos@shdfnd@physx@@YAXXZ 0000000180001c80 f   GuContactSphereSphere.obj
 0001:00000c90       ??__EminFError@_VecMathTests@aos@shdfnd@physx@@YAXXZ 0000000180001c90 f   GuContactSphereSphere.obj
 0001:00000ca0       ??__EminV3Error@_VecMathTests@aos@shdfnd@physx@@YAXXZ 0000000180001ca0 f   GuContactSphereSphere.obj
 0001:00000cb0       ??__EminV4Error@_VecMathTests@aos@shdfnd@physx@@YAXXZ 0000000180001cb0 f   GuContactSphereSphere.obj
 0001:00000cc0       ??__EmaxFError@_VecMathTests@aos@shdfnd@physx@@YAXXZ 0000000180001cc0 f   GuConvexHelper.obj
 0001:00000cd0       ??__EmaxV3Error@_VecMathTests@aos@shdfnd@physx@@YAXXZ 0000000180001cd0 f   GuConvexHelper.obj
 0001:00000ce0       ??__EmaxV4Error@_VecMathTests@aos@shdfnd@physx@@YAXXZ 0000000180001ce0 f   GuConvexHelper.obj
 0001:00000cf0       ??__EminFError@_VecMathTests@aos@shdfnd@physx@@YAXXZ 0000000180001cf0 f   GuConvexHelper.obj
 0001:00000d00       ??__EminV3Error@_VecMathTests@aos@shdfnd@physx@@YAXXZ 0000000180001d00 f   GuConvexHelper.obj
 0001:00000d10       ??__EminV4Error@_VecMathTests@aos@shdfnd@physx@@YAXXZ 0000000180001d10 f   GuConvexHelper.obj
 0001:00000d20       ??__EboxVertexTable@physx@@YAXXZ 0000000180001d20 f   GuConvexSupportTable.obj
 0001:00000da0       ??__EmaxFError@_VecMathTests@aos@shdfnd@physx@@YAXXZ 0000000180001da0 f   GuConvexSupportTable.obj
 0001:00000db0       ??__EmaxV3Error@_VecMathTests@aos@shdfnd@physx@@YAXXZ 0000000180001db0 f   GuConvexSupportTable.obj
 0001:00000dc0       ??__EmaxV4Error@_VecMathTests@aos@shdfnd@physx@@YAXXZ 0000000180001dc0 f   GuConvexSupportTable.obj
 0001:00000dd0       ??__EminFError@_VecMathTests@aos@shdfnd@physx@@YAXXZ 0000000180001dd0 f   GuConvexSupportTable.obj
 0001:00000de0       ??__EminV3Error@_VecMathTests@aos@shdfnd@physx@@YAXXZ 0000000180001de0 f   GuConvexSupportTable.obj
 0001:00000df0       ??__EminV4Error@_VecMathTests@aos@shdfnd@physx@@YAXXZ 0000000180001df0 f   GuConvexSupportTable.obj
 0001:00000e00       ??__EmaxFError@_VecMathTests@aos@shdfnd@physx@@YAXXZ 0000000180001e00 f   GuConvexUtilsInternal.obj
 0001:00000e10       ??__EmaxV3Error@_VecMathTests@aos@shdfnd@physx@@YAXXZ 0000000180001e10 f   GuConvexUtilsInternal.obj
 0001:00000e20       ??__EmaxV4Error@_VecMathTests@aos@shdfnd@physx@@YAXXZ 0000000180001e20 f   GuConvexUtilsInternal.obj
 0001:00000e30       ??__EminFError@_VecMathTests@aos@shdfnd@physx@@YAXXZ 0000000180001e30 f   GuConvexUtilsInternal.obj
 0001:00000e40       ??__EminV3Error@_VecMathTests@aos@shdfnd@physx@@YAXXZ 0000000180001e40 f   GuConvexUtilsInternal.obj
 0001:00000e50       ??__EminV4Error@_VecMathTests@aos@shdfnd@physx@@YAXXZ 0000000180001e50 f   GuConvexUtilsInternal.obj
 0001:00000e60       ??__EmaxFError@_VecMathTests@aos@shdfnd@physx@@YAXXZ 0000000180001e60 f   GuDistancePointTriangle.obj
 0001:00000e70       ??__EmaxV3Error@_VecMathTests@aos@shdfnd@physx@@YAXXZ 0000000180001e70 f   GuDistancePointTriangle.obj
 0001:00000e80       ??__EmaxV4Error@_VecMathTests@aos@shdfnd@physx@@YAXXZ 0000000180001e80 f   GuDistancePointTriangle.obj
 0001:00000e90       ??__EminFError@_VecMathTests@aos@shdfnd@physx@@YAXXZ 0000000180001e90 f   GuDistancePointTriangle.obj
 0001:00000ea0       ??__EminV3Error@_VecMathTests@aos@shdfnd@physx@@YAXXZ 0000000180001ea0 f   GuDistancePointTriangle.obj
 0001:00000eb0       ??__EminV4Error@_VecMathTests@aos@shdfnd@physx@@YAXXZ 0000000180001eb0 f   GuDistancePointTriangle.obj
 0001:00000ec0       ??__EmaxFError@_VecMathTests@aos@shdfnd@physx@@YAXXZ 0000000180001ec0 f   GuDistanceSegmentSegment.obj
 0001:00000ed0       ??__EmaxV3Error@_VecMathTests@aos@shdfnd@physx@@YAXXZ 0000000180001ed0 f   GuDistanceSegmentSegment.obj
 0001:00000ee0       ??__EmaxV4Error@_VecMathTests@aos@shdfnd@physx@@YAXXZ 0000000180001ee0 f   GuDistanceSegmentSegment.obj
 0001:00000ef0       ??__EminFError@_VecMathTests@aos@shdfnd@physx@@YAXXZ 0000000180001ef0 f   GuDistanceSegmentSegment.obj
 0001:00000f00       ??__EminV3Error@_VecMathTests@aos@shdfnd@physx@@YAXXZ 0000000180001f00 f   GuDistanceSegmentSegment.obj
 0001:00000f10       ??__EminV4Error@_VecMathTests@aos@shdfnd@physx@@YAXXZ 0000000180001f10 f   GuDistanceSegmentSegment.obj
 0001:00000f20       ??__EmaxFError@_VecMathTests@aos@shdfnd@physx@@YAXXZ 0000000180001f20 f   GuDistanceSegmentTriangle.obj
 0001:00000f30       ??__EmaxV3Error@_VecMathTests@aos@shdfnd@physx@@YAXXZ 0000000180001f30 f   GuDistanceSegmentTriangle.obj
 0001:00000f40       ??__EmaxV4Error@_VecMathTests@aos@shdfnd@physx@@YAXXZ 0000000180001f40 f   GuDistanceSegmentTriangle.obj
 0001:00000f50       ??__EminFError@_VecMathTests@aos@shdfnd@physx@@YAXXZ 0000000180001f50 f   GuDistanceSegmentTriangle.obj
 0001:00000f60       ??__EminV3Error@_VecMathTests@aos@shdfnd@physx@@YAXXZ 0000000180001f60 f   GuDistanceSegmentTriangle.obj
 0001:00000f70       ??__EminV4Error@_VecMathTests@aos@shdfnd@physx@@YAXXZ 0000000180001f70 f   GuDistanceSegmentTriangle.obj
 0001:00000f80       ??__EmaxFError@_VecMathTests@aos@shdfnd@physx@@YAXXZ 0000000180001f80 f   GuEPA.obj
 0001:00000f90       ??__EmaxV3Error@_VecMathTests@aos@shdfnd@physx@@YAXXZ 0000000180001f90 f   GuEPA.obj
 0001:00000fa0       ??__EmaxV4Error@_VecMathTests@aos@shdfnd@physx@@YAXXZ 0000000180001fa0 f   GuEPA.obj
 0001:00000fb0       ??__EminFError@_VecMathTests@aos@shdfnd@physx@@YAXXZ 0000000180001fb0 f   GuEPA.obj
 0001:00000fc0       ??__EminV3Error@_VecMathTests@aos@shdfnd@physx@@YAXXZ 0000000180001fc0 f   GuEPA.obj
 0001:00000fd0       ??__EminV4Error@_VecMathTests@aos@shdfnd@physx@@YAXXZ 0000000180001fd0 f   GuEPA.obj
 0001:00000fe0       ??__EmaxFError@_VecMathTests@aos@shdfnd@physx@@YAXXZ 0000000180001fe0 f   GuGJKSimplex.obj
 0001:00000ff0       ??__EmaxV3Error@_VecMathTests@aos@shdfnd@physx@@YAXXZ 0000000180001ff0 f   GuGJKSimplex.obj
 0001:00001000       ??__EmaxV4Error@_VecMathTests@aos@shdfnd@physx@@YAXXZ 0000000180002000 f   GuGJKSimplex.obj
 0001:00001010       ??__EminFError@_VecMathTests@aos@shdfnd@physx@@YAXXZ 0000000180002010 f   GuGJKSimplex.obj
 0001:00001020       ??__EminV3Error@_VecMathTests@aos@shdfnd@physx@@YAXXZ 0000000180002020 f   GuGJKSimplex.obj
 0001:00001030       ??__EminV4Error@_VecMathTests@aos@shdfnd@physx@@YAXXZ 0000000180002030 f   GuGJKSimplex.obj
 0001:00001040       ??__EmaxFError@_VecMathTests@aos@shdfnd@physx@@YAXXZ 0000000180002040 f   GuGJKTest.obj
 0001:00001050       ??__EmaxV3Error@_VecMathTests@aos@shdfnd@physx@@YAXXZ 0000000180002050 f   GuGJKTest.obj
 0001:00001060       ??__EmaxV4Error@_VecMathTests@aos@shdfnd@physx@@YAXXZ 0000000180002060 f   GuGJKTest.obj
 0001:00001070       ??__EminFError@_VecMathTests@aos@shdfnd@physx@@YAXXZ 0000000180002070 f   GuGJKTest.obj
 0001:00001080       ??__EminV3Error@_VecMathTests@aos@shdfnd@physx@@YAXXZ 0000000180002080 f   GuGJKTest.obj
 0001:00001090       ??__EminV4Error@_VecMathTests@aos@shdfnd@physx@@YAXXZ 0000000180002090 f   GuGJKTest.obj
 0001:000010a0       ??__EmaxFError@_VecMathTests@aos@shdfnd@physx@@YAXXZ 00000001800020a0 f   GuHeightFieldUtil.obj
 0001:000010b0       ??__EmaxV3Error@_VecMathTests@aos@shdfnd@physx@@YAXXZ 00000001800020b0 f   GuHeightFieldUtil.obj
 0001:000010c0       ??__EmaxV4Error@_VecMathTests@aos@shdfnd@physx@@YAXXZ 00000001800020c0 f   GuHeightFieldUtil.obj
 0001:000010d0       ??__EminFError@_VecMathTests@aos@shdfnd@physx@@YAXXZ 00000001800020d0 f   GuHeightFieldUtil.obj
 0001:000010e0       ??__EminV3Error@_VecMathTests@aos@shdfnd@physx@@YAXXZ 00000001800020e0 f   GuHeightFieldUtil.obj
 0001:000010f0       ??__EminV4Error@_VecMathTests@aos@shdfnd@physx@@YAXXZ 00000001800020f0 f   GuHeightFieldUtil.obj
 0001:00001100       ??__EmaxFError@_VecMathTests@aos@shdfnd@physx@@YAXXZ 0000000180002100 f   GuOverlapTestsHF.obj
 0001:00001110       ??__EmaxV3Error@_VecMathTests@aos@shdfnd@physx@@YAXXZ 0000000180002110 f   GuOverlapTestsHF.obj
 0001:00001120       ??__EmaxV4Error@_VecMathTests@aos@shdfnd@physx@@YAXXZ 0000000180002120 f   GuOverlapTestsHF.obj
 0001:00001130       ??__EminFError@_VecMathTests@aos@shdfnd@physx@@YAXXZ 0000000180002130 f   GuOverlapTestsHF.obj
 0001:00001140       ??__EminV3Error@_VecMathTests@aos@shdfnd@physx@@YAXXZ 0000000180002140 f   GuOverlapTestsHF.obj
 0001:00001150       ??__EminV4Error@_VecMathTests@aos@shdfnd@physx@@YAXXZ 0000000180002150 f   GuOverlapTestsHF.obj
 0001:00001160       ??__EmaxFError@_VecMathTests@aos@shdfnd@physx@@YAXXZ 0000000180002160 f   GuSweepsHF.obj
 0001:00001170       ??__EmaxV3Error@_VecMathTests@aos@shdfnd@physx@@YAXXZ 0000000180002170 f   GuSweepsHF.obj
 0001:00001180       ??__EmaxV4Error@_VecMathTests@aos@shdfnd@physx@@YAXXZ 0000000180002180 f   GuSweepsHF.obj
 0001:00001190       ??__EminFError@_VecMathTests@aos@shdfnd@physx@@YAXXZ 0000000180002190 f   GuSweepsHF.obj
 0001:000011a0       ??__EminV3Error@_VecMathTests@aos@shdfnd@physx@@YAXXZ 00000001800021a0 f   GuSweepsHF.obj
 0001:000011b0       ??__EminV4Error@_VecMathTests@aos@shdfnd@physx@@YAXXZ 00000001800021b0 f   GuSweepsHF.obj
 0001:000011c0       ??__EmaxFError@_VecMathTests@aos@shdfnd@physx@@YAXXZ 00000001800021c0 f   GuIntersectionRayBox.obj
 0001:000011d0       ??__EmaxV3Error@_VecMathTests@aos@shdfnd@physx@@YAXXZ 00000001800021d0 f   GuIntersectionRayBox.obj
 0001:000011e0       ??__EmaxV4Error@_VecMathTests@aos@shdfnd@physx@@YAXXZ 00000001800021e0 f   GuIntersectionRayBox.obj
 0001:000011f0       ??__EminFError@_VecMathTests@aos@shdfnd@physx@@YAXXZ 00000001800021f0 f   GuIntersectionRayBox.obj
 0001:00001200       ??__EminV3Error@_VecMathTests@aos@shdfnd@physx@@YAXXZ 0000000180002200 f   GuIntersectionRayBox.obj
 0001:00001210       ??__EminV4Error@_VecMathTests@aos@shdfnd@physx@@YAXXZ 0000000180002210 f   GuIntersectionRayBox.obj
 0001:00001220       ??__EmaxFError@_VecMathTests@aos@shdfnd@physx@@YAXXZ 0000000180002220 f   GuIntersectionTriangleBox.obj
 0001:00001230       ??__EmaxV3Error@_VecMathTests@aos@shdfnd@physx@@YAXXZ 0000000180002230 f   GuIntersectionTriangleBox.obj
 0001:00001240       ??__EmaxV4Error@_VecMathTests@aos@shdfnd@physx@@YAXXZ 0000000180002240 f   GuIntersectionTriangleBox.obj
 0001:00001250       ??__EminFError@_VecMathTests@aos@shdfnd@physx@@YAXXZ 0000000180002250 f   GuIntersectionTriangleBox.obj
 0001:00001260       ??__EminV3Error@_VecMathTests@aos@shdfnd@physx@@YAXXZ 0000000180002260 f   GuIntersectionTriangleBox.obj
 0001:00001270       ??__EminV4Error@_VecMathTests@aos@shdfnd@physx@@YAXXZ 0000000180002270 f   GuIntersectionTriangleBox.obj
 0001:00001280       ??__EsignV@@YAXXZ          0000000180002280 f   GuIntersectionTriangleBox.obj
 0001:00001290       ??__EmaxFError@_VecMathTests@aos@shdfnd@physx@@YAXXZ 0000000180002290 f   GuBV4.obj
 0001:000012a0       ??__EmaxV3Error@_VecMathTests@aos@shdfnd@physx@@YAXXZ 00000001800022a0 f   GuBV4.obj
 0001:000012b0       ??__EmaxV4Error@_VecMathTests@aos@shdfnd@physx@@YAXXZ 00000001800022b0 f   GuBV4.obj
 0001:000012c0       ??__EminFError@_VecMathTests@aos@shdfnd@physx@@YAXXZ 00000001800022c0 f   GuBV4.obj
 0001:000012d0       ??__EminV3Error@_VecMathTests@aos@shdfnd@physx@@YAXXZ 00000001800022d0 f   GuBV4.obj
 0001:000012e0       ??__EminV4Error@_VecMathTests@aos@shdfnd@physx@@YAXXZ 00000001800022e0 f   GuBV4.obj
 0001:000012f0       ??__EmaxFError@_VecMathTests@aos@shdfnd@physx@@YAXXZ 00000001800022f0 f   GuBV4Build.obj
 0001:00001300       ??__EmaxV3Error@_VecMathTests@aos@shdfnd@physx@@YAXXZ 0000000180002300 f   GuBV4Build.obj
 0001:00001310       ??__EmaxV4Error@_VecMathTests@aos@shdfnd@physx@@YAXXZ 0000000180002310 f   GuBV4Build.obj
 0001:00001320       ??__EminFError@_VecMathTests@aos@shdfnd@physx@@YAXXZ 0000000180002320 f   GuBV4Build.obj
 0001:00001330       ??__EminV3Error@_VecMathTests@aos@shdfnd@physx@@YAXXZ 0000000180002330 f   GuBV4Build.obj
 0001:00001340       ??__EminV4Error@_VecMathTests@aos@shdfnd@physx@@YAXXZ 0000000180002340 f   GuBV4Build.obj
 0001:00001350       ??__EepsFloat4@?A0xfd7bd042@@YAXXZ 0000000180002350 f   GuBV4_AABBSweep.obj
 0001:00001360       ??__EepsInflateFloat4@?A0xfd7bd042@@YAXXZ 0000000180002360 f   GuBV4_AABBSweep.obj
 0001:00001370       ??__EmaxFError@_VecMathTests@aos@shdfnd@physx@@YAXXZ 0000000180002370 f   GuBV4_AABBSweep.obj
 0001:00001380       ??__EmaxV3Error@_VecMathTests@aos@shdfnd@physx@@YAXXZ 0000000180002380 f   GuBV4_AABBSweep.obj
 0001:00001390       ??__EmaxV4Error@_VecMathTests@aos@shdfnd@physx@@YAXXZ 0000000180002390 f   GuBV4_AABBSweep.obj
 0001:000013a0       ??__EminFError@_VecMathTests@aos@shdfnd@physx@@YAXXZ 00000001800023a0 f   GuBV4_AABBSweep.obj
 0001:000013b0       ??__EminV3Error@_VecMathTests@aos@shdfnd@physx@@YAXXZ 00000001800023b0 f   GuBV4_AABBSweep.obj
 0001:000013c0       ??__EminV4Error@_VecMathTests@aos@shdfnd@physx@@YAXXZ 00000001800023c0 f   GuBV4_AABBSweep.obj
 0001:000013d0       ??__EsignMask@?A0xfd7bd042@@YAXXZ 00000001800023d0 f   GuBV4_AABBSweep.obj
 0001:000013e0       ??__Etwos@?A0xfd7bd042@@YAXXZ 00000001800023e0 f   GuBV4_AABBSweep.obj
 0001:000013f0       ??__Ezeroes@?A0xfd7bd042@@YAXXZ 00000001800023f0 f   GuBV4_AABBSweep.obj
 0001:00001400       ??__EmaxFError@_VecMathTests@aos@shdfnd@physx@@YAXXZ 0000000180002400 f   GuBV4_BoxOverlap.obj
 0001:00001410       ??__EmaxV3Error@_VecMathTests@aos@shdfnd@physx@@YAXXZ 0000000180002410 f   GuBV4_BoxOverlap.obj
 0001:00001420       ??__EmaxV4Error@_VecMathTests@aos@shdfnd@physx@@YAXXZ 0000000180002420 f   GuBV4_BoxOverlap.obj
 0001:00001430       ??__EminFError@_VecMathTests@aos@shdfnd@physx@@YAXXZ 0000000180002430 f   GuBV4_BoxOverlap.obj
 0001:00001440       ??__EminV3Error@_VecMathTests@aos@shdfnd@physx@@YAXXZ 0000000180002440 f   GuBV4_BoxOverlap.obj
 0001:00001450       ??__EminV4Error@_VecMathTests@aos@shdfnd@physx@@YAXXZ 0000000180002450 f   GuBV4_BoxOverlap.obj
 0001:00001460       ??__EmaxFError@_VecMathTests@aos@shdfnd@physx@@YAXXZ 0000000180002460 f   GuBV4_CapsuleSweep.obj
 0001:00001470       ??__EmaxV3Error@_VecMathTests@aos@shdfnd@physx@@YAXXZ 0000000180002470 f   GuBV4_CapsuleSweep.obj
 0001:00001480       ??__EmaxV4Error@_VecMathTests@aos@shdfnd@physx@@YAXXZ 0000000180002480 f   GuBV4_CapsuleSweep.obj
 0001:00001490       ??__EminFError@_VecMathTests@aos@shdfnd@physx@@YAXXZ 0000000180002490 f   GuBV4_CapsuleSweep.obj
 0001:000014a0       ??__EminV3Error@_VecMathTests@aos@shdfnd@physx@@YAXXZ 00000001800024a0 f   GuBV4_CapsuleSweep.obj
 0001:000014b0       ??__EminV4Error@_VecMathTests@aos@shdfnd@physx@@YAXXZ 00000001800024b0 f   GuBV4_CapsuleSweep.obj
 0001:000014c0       ??__EepsFloat4@?A0xf8c4922f@@YAXXZ 00000001800024c0 f   GuBV4_CapsuleSweepAA.obj
 0001:000014d0       ??__EepsInflateFloat4@?A0xf8c4922f@@YAXXZ 00000001800024d0 f   GuBV4_CapsuleSweepAA.obj
 0001:000014e0       ??__EmaxFError@_VecMathTests@aos@shdfnd@physx@@YAXXZ 00000001800024e0 f   GuBV4_CapsuleSweepAA.obj
 0001:000014f0       ??__EmaxV3Error@_VecMathTests@aos@shdfnd@physx@@YAXXZ 00000001800024f0 f   GuBV4_CapsuleSweepAA.obj
 0001:00001500       ??__EmaxV4Error@_VecMathTests@aos@shdfnd@physx@@YAXXZ 0000000180002500 f   GuBV4_CapsuleSweepAA.obj
 0001:00001510       ??__EminFError@_VecMathTests@aos@shdfnd@physx@@YAXXZ 0000000180002510 f   GuBV4_CapsuleSweepAA.obj
 0001:00001520       ??__EminV3Error@_VecMathTests@aos@shdfnd@physx@@YAXXZ 0000000180002520 f   GuBV4_CapsuleSweepAA.obj
 0001:00001530       ??__EminV4Error@_VecMathTests@aos@shdfnd@physx@@YAXXZ 0000000180002530 f   GuBV4_CapsuleSweepAA.obj
 0001:00001540       ??__EsignMask@?A0xf8c4922f@@YAXXZ 0000000180002540 f   GuBV4_CapsuleSweepAA.obj
 0001:00001550       ??__Etwos@?A0xf8c4922f@@YAXXZ 0000000180002550 f   GuBV4_CapsuleSweepAA.obj
 0001:00001560       ??__Ezeroes@?A0xf8c4922f@@YAXXZ 0000000180002560 f   GuBV4_CapsuleSweepAA.obj
 0001:00001570       ??__EmaxFError@_VecMathTests@aos@shdfnd@physx@@YAXXZ 0000000180002570 f   GuBV4_OBBSweep.obj
 0001:00001580       ??__EmaxV3Error@_VecMathTests@aos@shdfnd@physx@@YAXXZ 0000000180002580 f   GuBV4_OBBSweep.obj
 0001:00001590       ??__EmaxV4Error@_VecMathTests@aos@shdfnd@physx@@YAXXZ 0000000180002590 f   GuBV4_OBBSweep.obj
 0001:000015a0       ??__EminFError@_VecMathTests@aos@shdfnd@physx@@YAXXZ 00000001800025a0 f   GuBV4_OBBSweep.obj
 0001:000015b0       ??__EminV3Error@_VecMathTests@aos@shdfnd@physx@@YAXXZ 00000001800025b0 f   GuBV4_OBBSweep.obj
 0001:000015c0       ??__EminV4Error@_VecMathTests@aos@shdfnd@physx@@YAXXZ 00000001800025c0 f   GuBV4_OBBSweep.obj
 0001:000015d0       ??__EepsFloat4@?A0xcea15bf0@@YAXXZ 00000001800025d0 f   GuBV4_Raycast.obj
 0001:000015e0       ??__EepsInflateFloat4@?A0xcea15bf0@@YAXXZ 00000001800025e0 f   GuBV4_Raycast.obj
 0001:000015f0       ??__EmaxFError@_VecMathTests@aos@shdfnd@physx@@YAXXZ 00000001800025f0 f   GuBV4_Raycast.obj
 0001:00001600       ??__EmaxV3Error@_VecMathTests@aos@shdfnd@physx@@YAXXZ 0000000180002600 f   GuBV4_Raycast.obj
 0001:00001610       ??__EmaxV4Error@_VecMathTests@aos@shdfnd@physx@@YAXXZ 0000000180002610 f   GuBV4_Raycast.obj
 0001:00001620       ??__EminFError@_VecMathTests@aos@shdfnd@physx@@YAXXZ 0000000180002620 f   GuBV4_Raycast.obj
 0001:00001630       ??__EminV3Error@_VecMathTests@aos@shdfnd@physx@@YAXXZ 0000000180002630 f   GuBV4_Raycast.obj
 0001:00001640       ??__EminV4Error@_VecMathTests@aos@shdfnd@physx@@YAXXZ 0000000180002640 f   GuBV4_Raycast.obj
 0001:00001650       ??__EsignMask@?A0xcea15bf0@@YAXXZ 0000000180002650 f   GuBV4_Raycast.obj
 0001:00001660       ??__Etwos@?A0xcea15bf0@@YAXXZ 0000000180002660 f   GuBV4_Raycast.obj
 0001:00001670       ??__Ezeroes@?A0xcea15bf0@@YAXXZ 0000000180002670 f   GuBV4_Raycast.obj
 0001:00001680       ??__EmaxFError@_VecMathTests@aos@shdfnd@physx@@YAXXZ 0000000180002680 f   GuBV4_SphereOverlap.obj
 0001:00001690       ??__EmaxV3Error@_VecMathTests@aos@shdfnd@physx@@YAXXZ 0000000180002690 f   GuBV4_SphereOverlap.obj
 0001:000016a0       ??__EmaxV4Error@_VecMathTests@aos@shdfnd@physx@@YAXXZ 00000001800026a0 f   GuBV4_SphereOverlap.obj
 0001:000016b0       ??__EminFError@_VecMathTests@aos@shdfnd@physx@@YAXXZ 00000001800026b0 f   GuBV4_SphereOverlap.obj
 0001:000016c0       ??__EminV3Error@_VecMathTests@aos@shdfnd@physx@@YAXXZ 00000001800026c0 f   GuBV4_SphereOverlap.obj
 0001:000016d0       ??__EminV4Error@_VecMathTests@aos@shdfnd@physx@@YAXXZ 00000001800026d0 f   GuBV4_SphereOverlap.obj
 0001:000016e0       ??__EepsFloat4@?A0xfb2bdd08@@YAXXZ 00000001800026e0 f   GuBV4_SphereSweep.obj
 0001:000016f0       ??__EepsInflateFloat4@?A0xfb2bdd08@@YAXXZ 00000001800026f0 f   GuBV4_SphereSweep.obj
 0001:00001700       ??__EmaxFError@_VecMathTests@aos@shdfnd@physx@@YAXXZ 0000000180002700 f   GuBV4_SphereSweep.obj
 0001:00001710       ??__EmaxV3Error@_VecMathTests@aos@shdfnd@physx@@YAXXZ 0000000180002710 f   GuBV4_SphereSweep.obj
 0001:00001720       ??__EmaxV4Error@_VecMathTests@aos@shdfnd@physx@@YAXXZ 0000000180002720 f   GuBV4_SphereSweep.obj
 0001:00001730       ??__EminFError@_VecMathTests@aos@shdfnd@physx@@YAXXZ 0000000180002730 f   GuBV4_SphereSweep.obj
 0001:00001740       ??__EminV3Error@_VecMathTests@aos@shdfnd@physx@@YAXXZ 0000000180002740 f   GuBV4_SphereSweep.obj
 0001:00001750       ??__EminV4Error@_VecMathTests@aos@shdfnd@physx@@YAXXZ 0000000180002750 f   GuBV4_SphereSweep.obj
 0001:00001760       ??__EsignMask@?A0xfb2bdd08@@YAXXZ 0000000180002760 f   GuBV4_SphereSweep.obj
 0001:00001770       ??__Etwos@?A0xfb2bdd08@@YAXXZ 0000000180002770 f   GuBV4_SphereSweep.obj
 0001:00001780       ??__Ezeroes@?A0xfb2bdd08@@YAXXZ 0000000180002780 f   GuBV4_SphereSweep.obj
 0001:00001790       ??__EmaxFError@_VecMathTests@aos@shdfnd@physx@@YAXXZ 0000000180002790 f   GuMidphaseBV4.obj
 0001:000017a0       ??__EmaxV3Error@_VecMathTests@aos@shdfnd@physx@@YAXXZ 00000001800027a0 f   GuMidphaseBV4.obj
 0001:000017b0       ??__EmaxV4Error@_VecMathTests@aos@shdfnd@physx@@YAXXZ 00000001800027b0 f   GuMidphaseBV4.obj
 0001:000017c0       ??__EminFError@_VecMathTests@aos@shdfnd@physx@@YAXXZ 00000001800027c0 f   GuMidphaseBV4.obj
 0001:000017d0       ??__EminV3Error@_VecMathTests@aos@shdfnd@physx@@YAXXZ 00000001800027d0 f   GuMidphaseBV4.obj
 0001:000017e0       ??__EminV4Error@_VecMathTests@aos@shdfnd@physx@@YAXXZ 00000001800027e0 f   GuMidphaseBV4.obj
 0001:000017f0       ??__EmaxFError@_VecMathTests@aos@shdfnd@physx@@YAXXZ 00000001800027f0 f   GuMeshQuery.obj
 0001:00001800       ??__EmaxV3Error@_VecMathTests@aos@shdfnd@physx@@YAXXZ 0000000180002800 f   GuMeshQuery.obj
 0001:00001810       ??__EmaxV4Error@_VecMathTests@aos@shdfnd@physx@@YAXXZ 0000000180002810 f   GuMeshQuery.obj
 0001:00001820       ??__EminFError@_VecMathTests@aos@shdfnd@physx@@YAXXZ 0000000180002820 f   GuMeshQuery.obj
 0001:00001830       ??__EminV3Error@_VecMathTests@aos@shdfnd@physx@@YAXXZ 0000000180002830 f   GuMeshQuery.obj
 0001:00001840       ??__EminV4Error@_VecMathTests@aos@shdfnd@physx@@YAXXZ 0000000180002840 f   GuMeshQuery.obj
 0001:00001850       ??__EmaxFError@_VecMathTests@aos@shdfnd@physx@@YAXXZ 0000000180002850 f   GuMidphaseRTree.obj
 0001:00001860       ??__EmaxV3Error@_VecMathTests@aos@shdfnd@physx@@YAXXZ 0000000180002860 f   GuMidphaseRTree.obj
 0001:00001870       ??__EmaxV4Error@_VecMathTests@aos@shdfnd@physx@@YAXXZ 0000000180002870 f   GuMidphaseRTree.obj
 0001:00001880       ??__EminFError@_VecMathTests@aos@shdfnd@physx@@YAXXZ 0000000180002880 f   GuMidphaseRTree.obj
 0001:00001890       ??__EminV3Error@_VecMathTests@aos@shdfnd@physx@@YAXXZ 0000000180002890 f   GuMidphaseRTree.obj
 0001:000018a0       ??__EminV4Error@_VecMathTests@aos@shdfnd@physx@@YAXXZ 00000001800028a0 f   GuMidphaseRTree.obj
 0001:000018b0       ??__EmaxFError@_VecMathTests@aos@shdfnd@physx@@YAXXZ 00000001800028b0 f   GuOverlapTestsMesh.obj
 0001:000018c0       ??__EmaxV3Error@_VecMathTests@aos@shdfnd@physx@@YAXXZ 00000001800028c0 f   GuOverlapTestsMesh.obj
 0001:000018d0       ??__EmaxV4Error@_VecMathTests@aos@shdfnd@physx@@YAXXZ 00000001800028d0 f   GuOverlapTestsMesh.obj
 0001:000018e0       ??__EminFError@_VecMathTests@aos@shdfnd@physx@@YAXXZ 00000001800028e0 f   GuOverlapTestsMesh.obj
 0001:000018f0       ??__EminV3Error@_VecMathTests@aos@shdfnd@physx@@YAXXZ 00000001800028f0 f   GuOverlapTestsMesh.obj
 0001:00001900       ??__EminV4Error@_VecMathTests@aos@shdfnd@physx@@YAXXZ 0000000180002900 f   GuOverlapTestsMesh.obj
 0001:00001910       ??__EmaxFError@_VecMathTests@aos@shdfnd@physx@@YAXXZ 0000000180002910 f   GuRTree.obj
 0001:00001920       ??__EmaxV3Error@_VecMathTests@aos@shdfnd@physx@@YAXXZ 0000000180002920 f   GuRTree.obj
 0001:00001930       ??__EmaxV4Error@_VecMathTests@aos@shdfnd@physx@@YAXXZ 0000000180002930 f   GuRTree.obj
 0001:00001940       ??__EminFError@_VecMathTests@aos@shdfnd@physx@@YAXXZ 0000000180002940 f   GuRTree.obj
 0001:00001950       ??__EminV3Error@_VecMathTests@aos@shdfnd@physx@@YAXXZ 0000000180002950 f   GuRTree.obj
 0001:00001960       ??__EminV4Error@_VecMathTests@aos@shdfnd@physx@@YAXXZ 0000000180002960 f   GuRTree.obj
 0001:00001970       ??__EepsFloat4@?A0xba75b37c@@YAXXZ 0000000180002970 f   GuRTreeQueries.obj
 0001:00001980       ??__EepsInflateFloat4@?A0xba75b37c@@YAXXZ 0000000180002980 f   GuRTreeQueries.obj
 0001:00001990       ??__EmaxFError@_VecMathTests@aos@shdfnd@physx@@YAXXZ 0000000180002990 f   GuRTreeQueries.obj
 0001:000019a0       ??__EmaxV3Error@_VecMathTests@aos@shdfnd@physx@@YAXXZ 00000001800029a0 f   GuRTreeQueries.obj
 0001:000019b0       ??__EmaxV4Error@_VecMathTests@aos@shdfnd@physx@@YAXXZ 00000001800029b0 f   GuRTreeQueries.obj
 0001:000019c0       ??__EminFError@_VecMathTests@aos@shdfnd@physx@@YAXXZ 00000001800029c0 f   GuRTreeQueries.obj
 0001:000019d0       ??__EminV3Error@_VecMathTests@aos@shdfnd@physx@@YAXXZ 00000001800029d0 f   GuRTreeQueries.obj
 0001:000019e0       ??__EminV4Error@_VecMathTests@aos@shdfnd@physx@@YAXXZ 00000001800029e0 f   GuRTreeQueries.obj
 0001:000019f0       ??__EsignMask@?A0xba75b37c@@YAXXZ 00000001800029f0 f   GuRTreeQueries.obj
 0001:00001a00       ??__Etwos@?A0xba75b37c@@YAXXZ 0000000180002a00 f   GuRTreeQueries.obj
 0001:00001a10       ??__Ezeroes@?A0xba75b37c@@YAXXZ 0000000180002a10 f   GuRTreeQueries.obj
 0001:00001a20       ??__EmaxFError@_VecMathTests@aos@shdfnd@physx@@YAXXZ 0000000180002a20 f   GuSweepsMesh.obj
 0001:00001a30       ??__EmaxV3Error@_VecMathTests@aos@shdfnd@physx@@YAXXZ 0000000180002a30 f   GuSweepsMesh.obj
 0001:00001a40       ??__EmaxV4Error@_VecMathTests@aos@shdfnd@physx@@YAXXZ 0000000180002a40 f   GuSweepsMesh.obj
 0001:00001a50       ??__EminFError@_VecMathTests@aos@shdfnd@physx@@YAXXZ 0000000180002a50 f   GuSweepsMesh.obj
 0001:00001a60       ??__EminV3Error@_VecMathTests@aos@shdfnd@physx@@YAXXZ 0000000180002a60 f   GuSweepsMesh.obj
 0001:00001a70       ??__EminV4Error@_VecMathTests@aos@shdfnd@physx@@YAXXZ 0000000180002a70 f   GuSweepsMesh.obj
 0001:00001a80       ??__EmaxFError@_VecMathTests@aos@shdfnd@physx@@YAXXZ 0000000180002a80 f   GuTriangleMesh.obj
 0001:00001a90       ??__EmaxV3Error@_VecMathTests@aos@shdfnd@physx@@YAXXZ 0000000180002a90 f   GuTriangleMesh.obj
 0001:00001aa0       ??__EmaxV4Error@_VecMathTests@aos@shdfnd@physx@@YAXXZ 0000000180002aa0 f   GuTriangleMesh.obj
 0001:00001ab0       ??__EminFError@_VecMathTests@aos@shdfnd@physx@@YAXXZ 0000000180002ab0 f   GuTriangleMesh.obj
 0001:00001ac0       ??__EminV3Error@_VecMathTests@aos@shdfnd@physx@@YAXXZ 0000000180002ac0 f   GuTriangleMesh.obj
 0001:00001ad0       ??__EminV4Error@_VecMathTests@aos@shdfnd@physx@@YAXXZ 0000000180002ad0 f   GuTriangleMesh.obj
 0001:00001ae0       ??__EmaxFError@_VecMathTests@aos@shdfnd@physx@@YAXXZ 0000000180002ae0 f   GuTriangleMeshBV4.obj
 0001:00001af0       ??__EmaxV3Error@_VecMathTests@aos@shdfnd@physx@@YAXXZ 0000000180002af0 f   GuTriangleMeshBV4.obj
 0001:00001b00       ??__EmaxV4Error@_VecMathTests@aos@shdfnd@physx@@YAXXZ 0000000180002b00 f   GuTriangleMeshBV4.obj
 0001:00001b10       ??__EminFError@_VecMathTests@aos@shdfnd@physx@@YAXXZ 0000000180002b10 f   GuTriangleMeshBV4.obj
 0001:00001b20       ??__EminV3Error@_VecMathTests@aos@shdfnd@physx@@YAXXZ 0000000180002b20 f   GuTriangleMeshBV4.obj
 0001:00001b30       ??__EminV4Error@_VecMathTests@aos@shdfnd@physx@@YAXXZ 0000000180002b30 f   GuTriangleMeshBV4.obj
 0001:00001b40       ??__EmaxFError@_VecMathTests@aos@shdfnd@physx@@YAXXZ 0000000180002b40 f   GuTriangleMeshRTree.obj
 0001:00001b50       ??__EmaxV3Error@_VecMathTests@aos@shdfnd@physx@@YAXXZ 0000000180002b50 f   GuTriangleMeshRTree.obj
 0001:00001b60       ??__EmaxV4Error@_VecMathTests@aos@shdfnd@physx@@YAXXZ 0000000180002b60 f   GuTriangleMeshRTree.obj
 0001:00001b70       ??__EminFError@_VecMathTests@aos@shdfnd@physx@@YAXXZ 0000000180002b70 f   GuTriangleMeshRTree.obj
 0001:00001b80       ??__EminV3Error@_VecMathTests@aos@shdfnd@physx@@YAXXZ 0000000180002b80 f   GuTriangleMeshRTree.obj
 0001:00001b90       ??__EminV4Error@_VecMathTests@aos@shdfnd@physx@@YAXXZ 0000000180002b90 f   GuTriangleMeshRTree.obj
 0001:00001ba0       ??__EmaxFError@_VecMathTests@aos@shdfnd@physx@@YAXXZ 0000000180002ba0 f   GuBV32Build.obj
 0001:00001bb0       ??__EmaxV3Error@_VecMathTests@aos@shdfnd@physx@@YAXXZ 0000000180002bb0 f   GuBV32Build.obj
 0001:00001bc0       ??__EmaxV4Error@_VecMathTests@aos@shdfnd@physx@@YAXXZ 0000000180002bc0 f   GuBV32Build.obj
 0001:00001bd0       ??__EminFError@_VecMathTests@aos@shdfnd@physx@@YAXXZ 0000000180002bd0 f   GuBV32Build.obj
 0001:00001be0       ??__EminV3Error@_VecMathTests@aos@shdfnd@physx@@YAXXZ 0000000180002be0 f   GuBV32Build.obj
 0001:00001bf0       ??__EminV4Error@_VecMathTests@aos@shdfnd@physx@@YAXXZ 0000000180002bf0 f   GuBV32Build.obj
 0001:00001c00       ??__EmaxFError@_VecMathTests@aos@shdfnd@physx@@YAXXZ 0000000180002c00 f   GuPCMContactBoxBox.obj
 0001:00001c10       ??__EmaxV3Error@_VecMathTests@aos@shdfnd@physx@@YAXXZ 0000000180002c10 f   GuPCMContactBoxBox.obj
 0001:00001c20       ??__EmaxV4Error@_VecMathTests@aos@shdfnd@physx@@YAXXZ 0000000180002c20 f   GuPCMContactBoxBox.obj
 0001:00001c30       ??__EminFError@_VecMathTests@aos@shdfnd@physx@@YAXXZ 0000000180002c30 f   GuPCMContactBoxBox.obj
 0001:00001c40       ??__EminV3Error@_VecMathTests@aos@shdfnd@physx@@YAXXZ 0000000180002c40 f   GuPCMContactBoxBox.obj
 0001:00001c50       ??__EminV4Error@_VecMathTests@aos@shdfnd@physx@@YAXXZ 0000000180002c50 f   GuPCMContactBoxBox.obj
 0001:00001c60       ??__EmaxFError@_VecMathTests@aos@shdfnd@physx@@YAXXZ 0000000180002c60 f   GuPCMContactBoxConvex.obj
 0001:00001c70       ??__EmaxV3Error@_VecMathTests@aos@shdfnd@physx@@YAXXZ 0000000180002c70 f   GuPCMContactBoxConvex.obj
 0001:00001c80       ??__EmaxV4Error@_VecMathTests@aos@shdfnd@physx@@YAXXZ 0000000180002c80 f   GuPCMContactBoxConvex.obj
 0001:00001c90       ??__EminFError@_VecMathTests@aos@shdfnd@physx@@YAXXZ 0000000180002c90 f   GuPCMContactBoxConvex.obj
 0001:00001ca0       ??__EminV3Error@_VecMathTests@aos@shdfnd@physx@@YAXXZ 0000000180002ca0 f   GuPCMContactBoxConvex.obj
 0001:00001cb0       ??__EminV4Error@_VecMathTests@aos@shdfnd@physx@@YAXXZ 0000000180002cb0 f   GuPCMContactBoxConvex.obj
 0001:00001cc0       ??__EmaxFError@_VecMathTests@aos@shdfnd@physx@@YAXXZ 0000000180002cc0 f   GuPCMContactCapsuleBox.obj
 0001:00001cd0       ??__EmaxV3Error@_VecMathTests@aos@shdfnd@physx@@YAXXZ 0000000180002cd0 f   GuPCMContactCapsuleBox.obj
 0001:00001ce0       ??__EmaxV4Error@_VecMathTests@aos@shdfnd@physx@@YAXXZ 0000000180002ce0 f   GuPCMContactCapsuleBox.obj
 0001:00001cf0       ??__EminFError@_VecMathTests@aos@shdfnd@physx@@YAXXZ 0000000180002cf0 f   GuPCMContactCapsuleBox.obj
 0001:00001d00       ??__EminV3Error@_VecMathTests@aos@shdfnd@physx@@YAXXZ 0000000180002d00 f   GuPCMContactCapsuleBox.obj
 0001:00001d10       ??__EminV4Error@_VecMathTests@aos@shdfnd@physx@@YAXXZ 0000000180002d10 f   GuPCMContactCapsuleBox.obj
 0001:00001d20       ??__EmaxFError@_VecMathTests@aos@shdfnd@physx@@YAXXZ 0000000180002d20 f   GuPCMContactCapsuleCapsule.obj
 0001:00001d30       ??__EmaxV3Error@_VecMathTests@aos@shdfnd@physx@@YAXXZ 0000000180002d30 f   GuPCMContactCapsuleCapsule.obj
 0001:00001d40       ??__EmaxV4Error@_VecMathTests@aos@shdfnd@physx@@YAXXZ 0000000180002d40 f   GuPCMContactCapsuleCapsule.obj
 0001:00001d50       ??__EminFError@_VecMathTests@aos@shdfnd@physx@@YAXXZ 0000000180002d50 f   GuPCMContactCapsuleCapsule.obj
 0001:00001d60       ??__EminV3Error@_VecMathTests@aos@shdfnd@physx@@YAXXZ 0000000180002d60 f   GuPCMContactCapsuleCapsule.obj
 0001:00001d70       ??__EminV4Error@_VecMathTests@aos@shdfnd@physx@@YAXXZ 0000000180002d70 f   GuPCMContactCapsuleCapsule.obj
 0001:00001d80       ??__EmaxFError@_VecMathTests@aos@shdfnd@physx@@YAXXZ 0000000180002d80 f   GuPCMContactCapsuleConvex.obj
 0001:00001d90       ??__EmaxV3Error@_VecMathTests@aos@shdfnd@physx@@YAXXZ 0000000180002d90 f   GuPCMContactCapsuleConvex.obj
 0001:00001da0       ??__EmaxV4Error@_VecMathTests@aos@shdfnd@physx@@YAXXZ 0000000180002da0 f   GuPCMContactCapsuleConvex.obj
 0001:00001db0       ??__EminFError@_VecMathTests@aos@shdfnd@physx@@YAXXZ 0000000180002db0 f   GuPCMContactCapsuleConvex.obj
 0001:00001dc0       ??__EminV3Error@_VecMathTests@aos@shdfnd@physx@@YAXXZ 0000000180002dc0 f   GuPCMContactCapsuleConvex.obj
 0001:00001dd0       ??__EminV4Error@_VecMathTests@aos@shdfnd@physx@@YAXXZ 0000000180002dd0 f   GuPCMContactCapsuleConvex.obj
 0001:00001de0       ??__EmaxFError@_VecMathTests@aos@shdfnd@physx@@YAXXZ 0000000180002de0 f   GuPCMContactCapsuleHeightField.obj
 0001:00001df0       ??__EmaxV3Error@_VecMathTests@aos@shdfnd@physx@@YAXXZ 0000000180002df0 f   GuPCMContactCapsuleHeightField.obj
 0001:00001e00       ??__EmaxV4Error@_VecMathTests@aos@shdfnd@physx@@YAXXZ 0000000180002e00 f   GuPCMContactCapsuleHeightField.obj
 0001:00001e10       ??__EminFError@_VecMathTests@aos@shdfnd@physx@@YAXXZ 0000000180002e10 f   GuPCMContactCapsuleHeightField.obj
 0001:00001e20       ??__EminV3Error@_VecMathTests@aos@shdfnd@physx@@YAXXZ 0000000180002e20 f   GuPCMContactCapsuleHeightField.obj
 0001:00001e30       ??__EminV4Error@_VecMathTests@aos@shdfnd@physx@@YAXXZ 0000000180002e30 f   GuPCMContactCapsuleHeightField.obj
 0001:00001e40       ??__EmaxFError@_VecMathTests@aos@shdfnd@physx@@YAXXZ 0000000180002e40 f   GuPCMContactCapsuleMesh.obj
 0001:00001e50       ??__EmaxV3Error@_VecMathTests@aos@shdfnd@physx@@YAXXZ 0000000180002e50 f   GuPCMContactCapsuleMesh.obj
 0001:00001e60       ??__EmaxV4Error@_VecMathTests@aos@shdfnd@physx@@YAXXZ 0000000180002e60 f   GuPCMContactCapsuleMesh.obj
 0001:00001e70       ??__EminFError@_VecMathTests@aos@shdfnd@physx@@YAXXZ 0000000180002e70 f   GuPCMContactCapsuleMesh.obj
 0001:00001e80       ??__EminV3Error@_VecMathTests@aos@shdfnd@physx@@YAXXZ 0000000180002e80 f   GuPCMContactCapsuleMesh.obj
 0001:00001e90       ??__EminV4Error@_VecMathTests@aos@shdfnd@physx@@YAXXZ 0000000180002e90 f   GuPCMContactCapsuleMesh.obj
 0001:00001ea0       ??__EmaxFError@_VecMathTests@aos@shdfnd@physx@@YAXXZ 0000000180002ea0 f   GuPCMContactConvexCommon.obj
 0001:00001eb0       ??__EmaxV3Error@_VecMathTests@aos@shdfnd@physx@@YAXXZ 0000000180002eb0 f   GuPCMContactConvexCommon.obj
 0001:00001ec0       ??__EmaxV4Error@_VecMathTests@aos@shdfnd@physx@@YAXXZ 0000000180002ec0 f   GuPCMContactConvexCommon.obj
 0001:00001ed0       ??__EminFError@_VecMathTests@aos@shdfnd@physx@@YAXXZ 0000000180002ed0 f   GuPCMContactConvexCommon.obj
 0001:00001ee0       ??__EminV3Error@_VecMathTests@aos@shdfnd@physx@@YAXXZ 0000000180002ee0 f   GuPCMContactConvexCommon.obj
 0001:00001ef0       ??__EminV4Error@_VecMathTests@aos@shdfnd@physx@@YAXXZ 0000000180002ef0 f   GuPCMContactConvexCommon.obj
 0001:00001f00       ??__EmaxFError@_VecMathTests@aos@shdfnd@physx@@YAXXZ 0000000180002f00 f   GuPCMContactConvexConvex.obj
 0001:00001f10       ??__EmaxV3Error@_VecMathTests@aos@shdfnd@physx@@YAXXZ 0000000180002f10 f   GuPCMContactConvexConvex.obj
 0001:00001f20       ??__EmaxV4Error@_VecMathTests@aos@shdfnd@physx@@YAXXZ 0000000180002f20 f   GuPCMContactConvexConvex.obj
 0001:00001f30       ??__EminFError@_VecMathTests@aos@shdfnd@physx@@YAXXZ 0000000180002f30 f   GuPCMContactConvexConvex.obj
 0001:00001f40       ??__EminV3Error@_VecMathTests@aos@shdfnd@physx@@YAXXZ 0000000180002f40 f   GuPCMContactConvexConvex.obj
 0001:00001f50       ??__EminV4Error@_VecMathTests@aos@shdfnd@physx@@YAXXZ 0000000180002f50 f   GuPCMContactConvexConvex.obj
 0001:00001f60       ??__EmaxFError@_VecMathTests@aos@shdfnd@physx@@YAXXZ 0000000180002f60 f   GuPCMContactConvexHeightField.obj
 0001:00001f70       ??__EmaxV3Error@_VecMathTests@aos@shdfnd@physx@@YAXXZ 0000000180002f70 f   GuPCMContactConvexHeightField.obj
 0001:00001f80       ??__EmaxV4Error@_VecMathTests@aos@shdfnd@physx@@YAXXZ 0000000180002f80 f   GuPCMContactConvexHeightField.obj
 0001:00001f90       ??__EminFError@_VecMathTests@aos@shdfnd@physx@@YAXXZ 0000000180002f90 f   GuPCMContactConvexHeightField.obj
 0001:00001fa0       ??__EminV3Error@_VecMathTests@aos@shdfnd@physx@@YAXXZ 0000000180002fa0 f   GuPCMContactConvexHeightField.obj
 0001:00001fb0       ??__EminV4Error@_VecMathTests@aos@shdfnd@physx@@YAXXZ 0000000180002fb0 f   GuPCMContactConvexHeightField.obj
 0001:00001fc0       ??__EmaxFError@_VecMathTests@aos@shdfnd@physx@@YAXXZ 0000000180002fc0 f   GuPCMContactConvexMesh.obj
 0001:00001fd0       ??__EmaxV3Error@_VecMathTests@aos@shdfnd@physx@@YAXXZ 0000000180002fd0 f   GuPCMContactConvexMesh.obj
 0001:00001fe0       ??__EmaxV4Error@_VecMathTests@aos@shdfnd@physx@@YAXXZ 0000000180002fe0 f   GuPCMContactConvexMesh.obj
 0001:00001ff0       ??__EminFError@_VecMathTests@aos@shdfnd@physx@@YAXXZ 0000000180002ff0 f   GuPCMContactConvexMesh.obj
 0001:00002000       ??__EminV3Error@_VecMathTests@aos@shdfnd@physx@@YAXXZ 0000000180003000 f   GuPCMContactConvexMesh.obj
 0001:00002010       ??__EminV4Error@_VecMathTests@aos@shdfnd@physx@@YAXXZ 0000000180003010 f   GuPCMContactConvexMesh.obj
 0001:00002020       ??__EmaxFError@_VecMathTests@aos@shdfnd@physx@@YAXXZ 0000000180003020 f   GuPCMContactGenBoxConvex.obj
 0001:00002030       ??__EmaxV3Error@_VecMathTests@aos@shdfnd@physx@@YAXXZ 0000000180003030 f   GuPCMContactGenBoxConvex.obj
 0001:00002040       ??__EmaxV4Error@_VecMathTests@aos@shdfnd@physx@@YAXXZ 0000000180003040 f   GuPCMContactGenBoxConvex.obj
 0001:00002050       ??__EminFError@_VecMathTests@aos@shdfnd@physx@@YAXXZ 0000000180003050 f   GuPCMContactGenBoxConvex.obj
 0001:00002060       ??__EminV3Error@_VecMathTests@aos@shdfnd@physx@@YAXXZ 0000000180003060 f   GuPCMContactGenBoxConvex.obj
 0001:00002070       ??__EminV4Error@_VecMathTests@aos@shdfnd@physx@@YAXXZ 0000000180003070 f   GuPCMContactGenBoxConvex.obj
 0001:00002080       ??__EmaxFError@_VecMathTests@aos@shdfnd@physx@@YAXXZ 0000000180003080 f   GuPCMContactGenSphereCapsule.obj
 0001:00002090       ??__EmaxV3Error@_VecMathTests@aos@shdfnd@physx@@YAXXZ 0000000180003090 f   GuPCMContactGenSphereCapsule.obj
 0001:000020a0       ??__EmaxV4Error@_VecMathTests@aos@shdfnd@physx@@YAXXZ 00000001800030a0 f   GuPCMContactGenSphereCapsule.obj
 0001:000020b0       ??__EminFError@_VecMathTests@aos@shdfnd@physx@@YAXXZ 00000001800030b0 f   GuPCMContactGenSphereCapsule.obj
 0001:000020c0       ??__EminV3Error@_VecMathTests@aos@shdfnd@physx@@YAXXZ 00000001800030c0 f   GuPCMContactGenSphereCapsule.obj
 0001:000020d0       ??__EminV4Error@_VecMathTests@aos@shdfnd@physx@@YAXXZ 00000001800030d0 f   GuPCMContactGenSphereCapsule.obj
 0001:000020e0       ??__EmaxFError@_VecMathTests@aos@shdfnd@physx@@YAXXZ 00000001800030e0 f   GuPCMContactPlaneBox.obj
 0001:000020f0       ??__EmaxV3Error@_VecMathTests@aos@shdfnd@physx@@YAXXZ 00000001800030f0 f   GuPCMContactPlaneBox.obj
 0001:00002100       ??__EmaxV4Error@_VecMathTests@aos@shdfnd@physx@@YAXXZ 0000000180003100 f   GuPCMContactPlaneBox.obj
 0001:00002110       ??__EminFError@_VecMathTests@aos@shdfnd@physx@@YAXXZ 0000000180003110 f   GuPCMContactPlaneBox.obj
 0001:00002120       ??__EminV3Error@_VecMathTests@aos@shdfnd@physx@@YAXXZ 0000000180003120 f   GuPCMContactPlaneBox.obj
 0001:00002130       ??__EminV4Error@_VecMathTests@aos@shdfnd@physx@@YAXXZ 0000000180003130 f   GuPCMContactPlaneBox.obj
 0001:00002140       ??__EmaxFError@_VecMathTests@aos@shdfnd@physx@@YAXXZ 0000000180003140 f   GuPCMContactPlaneCapsule.obj
 0001:00002150       ??__EmaxV3Error@_VecMathTests@aos@shdfnd@physx@@YAXXZ 0000000180003150 f   GuPCMContactPlaneCapsule.obj
 0001:00002160       ??__EmaxV4Error@_VecMathTests@aos@shdfnd@physx@@YAXXZ 0000000180003160 f   GuPCMContactPlaneCapsule.obj
 0001:00002170       ??__EminFError@_VecMathTests@aos@shdfnd@physx@@YAXXZ 0000000180003170 f   GuPCMContactPlaneCapsule.obj
 0001:00002180       ??__EminV3Error@_VecMathTests@aos@shdfnd@physx@@YAXXZ 0000000180003180 f   GuPCMContactPlaneCapsule.obj
 0001:00002190       ??__EminV4Error@_VecMathTests@aos@shdfnd@physx@@YAXXZ 0000000180003190 f   GuPCMContactPlaneCapsule.obj
 0001:000021a0       ??__EmaxFError@_VecMathTests@aos@shdfnd@physx@@YAXXZ 00000001800031a0 f   GuPCMContactPlaneConvex.obj
 0001:000021b0       ??__EmaxV3Error@_VecMathTests@aos@shdfnd@physx@@YAXXZ 00000001800031b0 f   GuPCMContactPlaneConvex.obj
 0001:000021c0       ??__EmaxV4Error@_VecMathTests@aos@shdfnd@physx@@YAXXZ 00000001800031c0 f   GuPCMContactPlaneConvex.obj
 0001:000021d0       ??__EminFError@_VecMathTests@aos@shdfnd@physx@@YAXXZ 00000001800031d0 f   GuPCMContactPlaneConvex.obj
 0001:000021e0       ??__EminV3Error@_VecMathTests@aos@shdfnd@physx@@YAXXZ 00000001800031e0 f   GuPCMContactPlaneConvex.obj
 0001:000021f0       ??__EminV4Error@_VecMathTests@aos@shdfnd@physx@@YAXXZ 00000001800031f0 f   GuPCMContactPlaneConvex.obj
 0001:00002200       ??__EmaxFError@_VecMathTests@aos@shdfnd@physx@@YAXXZ 0000000180003200 f   GuPCMContactSphereBox.obj
 0001:00002210       ??__EmaxV3Error@_VecMathTests@aos@shdfnd@physx@@YAXXZ 0000000180003210 f   GuPCMContactSphereBox.obj
 0001:00002220       ??__EmaxV4Error@_VecMathTests@aos@shdfnd@physx@@YAXXZ 0000000180003220 f   GuPCMContactSphereBox.obj
 0001:00002230       ??__EminFError@_VecMathTests@aos@shdfnd@physx@@YAXXZ 0000000180003230 f   GuPCMContactSphereBox.obj
 0001:00002240       ??__EminV3Error@_VecMathTests@aos@shdfnd@physx@@YAXXZ 0000000180003240 f   GuPCMContactSphereBox.obj
 0001:00002250       ??__EminV4Error@_VecMathTests@aos@shdfnd@physx@@YAXXZ 0000000180003250 f   GuPCMContactSphereBox.obj
 0001:00002260       ??__EmaxFError@_VecMathTests@aos@shdfnd@physx@@YAXXZ 0000000180003260 f   GuPCMContactSphereCapsule.obj
 0001:00002270       ??__EmaxV3Error@_VecMathTests@aos@shdfnd@physx@@YAXXZ 0000000180003270 f   GuPCMContactSphereCapsule.obj
 0001:00002280       ??__EmaxV4Error@_VecMathTests@aos@shdfnd@physx@@YAXXZ 0000000180003280 f   GuPCMContactSphereCapsule.obj
 0001:00002290       ??__EminFError@_VecMathTests@aos@shdfnd@physx@@YAXXZ 0000000180003290 f   GuPCMContactSphereCapsule.obj
 0001:000022a0       ??__EminV3Error@_VecMathTests@aos@shdfnd@physx@@YAXXZ 00000001800032a0 f   GuPCMContactSphereCapsule.obj
 0001:000022b0       ??__EminV4Error@_VecMathTests@aos@shdfnd@physx@@YAXXZ 00000001800032b0 f   GuPCMContactSphereCapsule.obj
 0001:000022c0       ??__EmaxFError@_VecMathTests@aos@shdfnd@physx@@YAXXZ 00000001800032c0 f   GuPCMContactSphereConvex.obj
 0001:000022d0       ??__EmaxV3Error@_VecMathTests@aos@shdfnd@physx@@YAXXZ 00000001800032d0 f   GuPCMContactSphereConvex.obj
 0001:000022e0       ??__EmaxV4Error@_VecMathTests@aos@shdfnd@physx@@YAXXZ 00000001800032e0 f   GuPCMContactSphereConvex.obj
 0001:000022f0       ??__EminFError@_VecMathTests@aos@shdfnd@physx@@YAXXZ 00000001800032f0 f   GuPCMContactSphereConvex.obj
 0001:00002300       ??__EminV3Error@_VecMathTests@aos@shdfnd@physx@@YAXXZ 0000000180003300 f   GuPCMContactSphereConvex.obj
 0001:00002310       ??__EminV4Error@_VecMathTests@aos@shdfnd@physx@@YAXXZ 0000000180003310 f   GuPCMContactSphereConvex.obj
 0001:00002320       ??__EmaxFError@_VecMathTests@aos@shdfnd@physx@@YAXXZ 0000000180003320 f   GuPCMContactSphereHeightField.obj
 0001:00002330       ??__EmaxV3Error@_VecMathTests@aos@shdfnd@physx@@YAXXZ 0000000180003330 f   GuPCMContactSphereHeightField.obj
 0001:00002340       ??__EmaxV4Error@_VecMathTests@aos@shdfnd@physx@@YAXXZ 0000000180003340 f   GuPCMContactSphereHeightField.obj
 0001:00002350       ??__EminFError@_VecMathTests@aos@shdfnd@physx@@YAXXZ 0000000180003350 f   GuPCMContactSphereHeightField.obj
 0001:00002360       ??__EminV3Error@_VecMathTests@aos@shdfnd@physx@@YAXXZ 0000000180003360 f   GuPCMContactSphereHeightField.obj
 0001:00002370       ??__EminV4Error@_VecMathTests@aos@shdfnd@physx@@YAXXZ 0000000180003370 f   GuPCMContactSphereHeightField.obj
 0001:00002380       ??__EmaxFError@_VecMathTests@aos@shdfnd@physx@@YAXXZ 0000000180003380 f   GuPCMContactSphereMesh.obj
 0001:00002390       ??__EmaxV3Error@_VecMathTests@aos@shdfnd@physx@@YAXXZ 0000000180003390 f   GuPCMContactSphereMesh.obj
 0001:000023a0       ??__EmaxV4Error@_VecMathTests@aos@shdfnd@physx@@YAXXZ 00000001800033a0 f   GuPCMContactSphereMesh.obj
 0001:000023b0       ??__EminFError@_VecMathTests@aos@shdfnd@physx@@YAXXZ 00000001800033b0 f   GuPCMContactSphereMesh.obj
 0001:000023c0       ??__EminV3Error@_VecMathTests@aos@shdfnd@physx@@YAXXZ 00000001800033c0 f   GuPCMContactSphereMesh.obj
 0001:000023d0       ??__EminV4Error@_VecMathTests@aos@shdfnd@physx@@YAXXZ 00000001800033d0 f   GuPCMContactSphereMesh.obj
 0001:000023e0       ??__EmaxFError@_VecMathTests@aos@shdfnd@physx@@YAXXZ 00000001800033e0 f   GuPCMContactSpherePlane.obj
 0001:000023f0       ??__EmaxV3Error@_VecMathTests@aos@shdfnd@physx@@YAXXZ 00000001800033f0 f   GuPCMContactSpherePlane.obj
 0001:00002400       ??__EmaxV4Error@_VecMathTests@aos@shdfnd@physx@@YAXXZ 0000000180003400 f   GuPCMContactSpherePlane.obj
 0001:00002410       ??__EminFError@_VecMathTests@aos@shdfnd@physx@@YAXXZ 0000000180003410 f   GuPCMContactSpherePlane.obj
 0001:00002420       ??__EminV3Error@_VecMathTests@aos@shdfnd@physx@@YAXXZ 0000000180003420 f   GuPCMContactSpherePlane.obj
 0001:00002430       ??__EminV4Error@_VecMathTests@aos@shdfnd@physx@@YAXXZ 0000000180003430 f   GuPCMContactSpherePlane.obj
 0001:00002440       ??__EmaxFError@_VecMathTests@aos@shdfnd@physx@@YAXXZ 0000000180003440 f   GuPCMContactSphereSphere.obj
 0001:00002450       ??__EmaxV3Error@_VecMathTests@aos@shdfnd@physx@@YAXXZ 0000000180003450 f   GuPCMContactSphereSphere.obj
 0001:00002460       ??__EmaxV4Error@_VecMathTests@aos@shdfnd@physx@@YAXXZ 0000000180003460 f   GuPCMContactSphereSphere.obj
 0001:00002470       ??__EminFError@_VecMathTests@aos@shdfnd@physx@@YAXXZ 0000000180003470 f   GuPCMContactSphereSphere.obj
 0001:00002480       ??__EminV3Error@_VecMathTests@aos@shdfnd@physx@@YAXXZ 0000000180003480 f   GuPCMContactSphereSphere.obj
 0001:00002490       ??__EminV4Error@_VecMathTests@aos@shdfnd@physx@@YAXXZ 0000000180003490 f   GuPCMContactSphereSphere.obj
 0001:000024a0       ??__EmaxFError@_VecMathTests@aos@shdfnd@physx@@YAXXZ 00000001800034a0 f   GuPCMShapeConvex.obj
 0001:000024b0       ??__EmaxV3Error@_VecMathTests@aos@shdfnd@physx@@YAXXZ 00000001800034b0 f   GuPCMShapeConvex.obj
 0001:000024c0       ??__EmaxV4Error@_VecMathTests@aos@shdfnd@physx@@YAXXZ 00000001800034c0 f   GuPCMShapeConvex.obj
 0001:000024d0       ??__EminFError@_VecMathTests@aos@shdfnd@physx@@YAXXZ 00000001800034d0 f   GuPCMShapeConvex.obj
 0001:000024e0       ??__EminV3Error@_VecMathTests@aos@shdfnd@physx@@YAXXZ 00000001800034e0 f   GuPCMShapeConvex.obj
 0001:000024f0       ??__EminV4Error@_VecMathTests@aos@shdfnd@physx@@YAXXZ 00000001800034f0 f   GuPCMShapeConvex.obj
 0001:00002500       ??__EmaxFError@_VecMathTests@aos@shdfnd@physx@@YAXXZ 0000000180003500 f   GuPCMTriangleContactGen.obj
 0001:00002510       ??__EmaxV3Error@_VecMathTests@aos@shdfnd@physx@@YAXXZ 0000000180003510 f   GuPCMTriangleContactGen.obj
 0001:00002520       ??__EmaxV4Error@_VecMathTests@aos@shdfnd@physx@@YAXXZ 0000000180003520 f   GuPCMTriangleContactGen.obj
 0001:00002530       ??__EminFError@_VecMathTests@aos@shdfnd@physx@@YAXXZ 0000000180003530 f   GuPCMTriangleContactGen.obj
 0001:00002540       ??__EminV3Error@_VecMathTests@aos@shdfnd@physx@@YAXXZ 0000000180003540 f   GuPCMTriangleContactGen.obj
 0001:00002550       ??__EminV4Error@_VecMathTests@aos@shdfnd@physx@@YAXXZ 0000000180003550 f   GuPCMTriangleContactGen.obj
 0001:00002560       ??__EmaxFError@_VecMathTests@aos@shdfnd@physx@@YAXXZ 0000000180003560 f   GuPersistentContactManifold.obj
 0001:00002570       ??__EmaxV3Error@_VecMathTests@aos@shdfnd@physx@@YAXXZ 0000000180003570 f   GuPersistentContactManifold.obj
 0001:00002580       ??__EmaxV4Error@_VecMathTests@aos@shdfnd@physx@@YAXXZ 0000000180003580 f   GuPersistentContactManifold.obj
 0001:00002590       ??__EminFError@_VecMathTests@aos@shdfnd@physx@@YAXXZ 0000000180003590 f   GuPersistentContactManifold.obj
 0001:000025a0       ??__EminV3Error@_VecMathTests@aos@shdfnd@physx@@YAXXZ 00000001800035a0 f   GuPersistentContactManifold.obj
 0001:000025b0       ??__EminV4Error@_VecMathTests@aos@shdfnd@physx@@YAXXZ 00000001800035b0 f   GuPersistentContactManifold.obj
 0001:000025c0       ??__EmaxFError@_VecMathTests@aos@shdfnd@physx@@YAXXZ 00000001800035c0 f   GuSweepBoxBox.obj
 0001:000025d0       ??__EmaxV3Error@_VecMathTests@aos@shdfnd@physx@@YAXXZ 00000001800035d0 f   GuSweepBoxBox.obj
 0001:000025e0       ??__EmaxV4Error@_VecMathTests@aos@shdfnd@physx@@YAXXZ 00000001800035e0 f   GuSweepBoxBox.obj
 0001:000025f0       ??__EminFError@_VecMathTests@aos@shdfnd@physx@@YAXXZ 00000001800035f0 f   GuSweepBoxBox.obj
 0001:00002600       ??__EminV3Error@_VecMathTests@aos@shdfnd@physx@@YAXXZ 0000000180003600 f   GuSweepBoxBox.obj
 0001:00002610       ??__EminV4Error@_VecMathTests@aos@shdfnd@physx@@YAXXZ 0000000180003610 f   GuSweepBoxBox.obj
 0001:00002620       ??__EmaxFError@_VecMathTests@aos@shdfnd@physx@@YAXXZ 0000000180003620 f   GuSweepBoxSphere.obj
 0001:00002630       ??__EmaxV3Error@_VecMathTests@aos@shdfnd@physx@@YAXXZ 0000000180003630 f   GuSweepBoxSphere.obj
 0001:00002640       ??__EmaxV4Error@_VecMathTests@aos@shdfnd@physx@@YAXXZ 0000000180003640 f   GuSweepBoxSphere.obj
 0001:00002650       ??__EminFError@_VecMathTests@aos@shdfnd@physx@@YAXXZ 0000000180003650 f   GuSweepBoxSphere.obj
 0001:00002660       ??__EminV3Error@_VecMathTests@aos@shdfnd@physx@@YAXXZ 0000000180003660 f   GuSweepBoxSphere.obj
 0001:00002670       ??__EminV4Error@_VecMathTests@aos@shdfnd@physx@@YAXXZ 0000000180003670 f   GuSweepBoxSphere.obj
 0001:00002680       ??__EmaxFError@_VecMathTests@aos@shdfnd@physx@@YAXXZ 0000000180003680 f   GuSweepBoxTriangle_FeatureBased.obj
 0001:00002690       ??__EmaxV3Error@_VecMathTests@aos@shdfnd@physx@@YAXXZ 0000000180003690 f   GuSweepBoxTriangle_FeatureBased.obj
 0001:000026a0       ??__EmaxV4Error@_VecMathTests@aos@shdfnd@physx@@YAXXZ 00000001800036a0 f   GuSweepBoxTriangle_FeatureBased.obj
 0001:000026b0       ??__EminFError@_VecMathTests@aos@shdfnd@physx@@YAXXZ 00000001800036b0 f   GuSweepBoxTriangle_FeatureBased.obj
 0001:000026c0       ??__EminV3Error@_VecMathTests@aos@shdfnd@physx@@YAXXZ 00000001800036c0 f   GuSweepBoxTriangle_FeatureBased.obj
 0001:000026d0       ??__EminV4Error@_VecMathTests@aos@shdfnd@physx@@YAXXZ 00000001800036d0 f   GuSweepBoxTriangle_FeatureBased.obj
 0001:000026e0       ??__EmaxFError@_VecMathTests@aos@shdfnd@physx@@YAXXZ 00000001800036e0 f   GuSweepBoxTriangle_SAT.obj
 0001:000026f0       ??__EmaxV3Error@_VecMathTests@aos@shdfnd@physx@@YAXXZ 00000001800036f0 f   GuSweepBoxTriangle_SAT.obj
 0001:00002700       ??__EmaxV4Error@_VecMathTests@aos@shdfnd@physx@@YAXXZ 0000000180003700 f   GuSweepBoxTriangle_SAT.obj
 0001:00002710       ??__EminFError@_VecMathTests@aos@shdfnd@physx@@YAXXZ 0000000180003710 f   GuSweepBoxTriangle_SAT.obj
 0001:00002720       ??__EminV3Error@_VecMathTests@aos@shdfnd@physx@@YAXXZ 0000000180003720 f   GuSweepBoxTriangle_SAT.obj
 0001:00002730       ??__EminV4Error@_VecMathTests@aos@shdfnd@physx@@YAXXZ 0000000180003730 f   GuSweepBoxTriangle_SAT.obj
 0001:00002740       ??__EmaxFError@_VecMathTests@aos@shdfnd@physx@@YAXXZ 0000000180003740 f   GuSweepCapsuleBox.obj
 0001:00002750       ??__EmaxV3Error@_VecMathTests@aos@shdfnd@physx@@YAXXZ 0000000180003750 f   GuSweepCapsuleBox.obj
 0001:00002760       ??__EmaxV4Error@_VecMathTests@aos@shdfnd@physx@@YAXXZ 0000000180003760 f   GuSweepCapsuleBox.obj
 0001:00002770       ??__EminFError@_VecMathTests@aos@shdfnd@physx@@YAXXZ 0000000180003770 f   GuSweepCapsuleBox.obj
 0001:00002780       ??__EminV3Error@_VecMathTests@aos@shdfnd@physx@@YAXXZ 0000000180003780 f   GuSweepCapsuleBox.obj
 0001:00002790       ??__EminV4Error@_VecMathTests@aos@shdfnd@physx@@YAXXZ 0000000180003790 f   GuSweepCapsuleBox.obj
 0001:000027a0       ??__EmaxFError@_VecMathTests@aos@shdfnd@physx@@YAXXZ 00000001800037a0 f   GuSweepCapsuleTriangle.obj
 0001:000027b0       ??__EmaxV3Error@_VecMathTests@aos@shdfnd@physx@@YAXXZ 00000001800037b0 f   GuSweepCapsuleTriangle.obj
 0001:000027c0       ??__EmaxV4Error@_VecMathTests@aos@shdfnd@physx@@YAXXZ 00000001800037c0 f   GuSweepCapsuleTriangle.obj
 0001:000027d0       ??__EminFError@_VecMathTests@aos@shdfnd@physx@@YAXXZ 00000001800037d0 f   GuSweepCapsuleTriangle.obj
 0001:000027e0       ??__EminV3Error@_VecMathTests@aos@shdfnd@physx@@YAXXZ 00000001800037e0 f   GuSweepCapsuleTriangle.obj
 0001:000027f0       ??__EminV4Error@_VecMathTests@aos@shdfnd@physx@@YAXXZ 00000001800037f0 f   GuSweepCapsuleTriangle.obj
 0001:00002800       ??__EmaxFError@_VecMathTests@aos@shdfnd@physx@@YAXXZ 0000000180003800 f   GuSweepSphereTriangle.obj
 0001:00002810       ??__EmaxV3Error@_VecMathTests@aos@shdfnd@physx@@YAXXZ 0000000180003810 f   GuSweepSphereTriangle.obj
 0001:00002820       ??__EmaxV4Error@_VecMathTests@aos@shdfnd@physx@@YAXXZ 0000000180003820 f   GuSweepSphereTriangle.obj
 0001:00002830       ??__EminFError@_VecMathTests@aos@shdfnd@physx@@YAXXZ 0000000180003830 f   GuSweepSphereTriangle.obj
 0001:00002840       ??__EminV3Error@_VecMathTests@aos@shdfnd@physx@@YAXXZ 0000000180003840 f   GuSweepSphereTriangle.obj
 0001:00002850       ??__EminV4Error@_VecMathTests@aos@shdfnd@physx@@YAXXZ 0000000180003850 f   GuSweepSphereTriangle.obj
 0001:00002860       ??__EmaxFError@_VecMathTests@aos@shdfnd@physx@@YAXXZ 0000000180003860 f   GuSweepTriangleUtils.obj
 0001:00002870       ??__EmaxV3Error@_VecMathTests@aos@shdfnd@physx@@YAXXZ 0000000180003870 f   GuSweepTriangleUtils.obj
 0001:00002880       ??__EmaxV4Error@_VecMathTests@aos@shdfnd@physx@@YAXXZ 0000000180003880 f   GuSweepTriangleUtils.obj
 0001:00002890       ??__EminFError@_VecMathTests@aos@shdfnd@physx@@YAXXZ 0000000180003890 f   GuSweepTriangleUtils.obj
 0001:000028a0       ??__EminV3Error@_VecMathTests@aos@shdfnd@physx@@YAXXZ 00000001800038a0 f   GuSweepTriangleUtils.obj
 0001:000028b0       ??__EminV4Error@_VecMathTests@aos@shdfnd@physx@@YAXXZ 00000001800038b0 f   GuSweepTriangleUtils.obj
 0001:00009280       $LN24                      000000018000a280     CmWindowsDelayLoadHook.obj
 0001:0000a544       $LN727                     000000018000b544     GuBounds.obj
 0001:0000a718       $LN78                      000000018000b718     GuBounds.obj
 0001:0000a780       ?computeMeshBounds@@YAXAEBVPxVec3@physx@@AEBVPxMat33Padded@Gu@2@PEIBVCenterExtentsPadded@42@AEBVPxMeshScale@2@AEAVVec3p@42@4@Z 000000018000b780 f   GuBounds.obj
 0001:0000af20       ?computePlaneBounds@@YAXAEAVPxBounds3@physx@@AEBVPxTransform@2@MM@Z 000000018000bf20 f   GuBounds.obj
 0001:0000b1c0       ?computeScaledMatrix@@YAXAEAVPxMat33Padded@Gu@physx@@AEBVPxMeshScale@3@@Z 000000018000c1c0 f   GuBounds.obj
 0001:0000c700       ??_GLocalReport@?1??sweepBox_HeightFieldGeom_Precise@@YA_NAEBVPxGeometry@physx@@AEBVPxTransform@3@AEBVPxBoxGeometry@3@1AEBVBox@Gu@3@AEBVPxVec3@3@MAEAUPxSweepHit@3@V?$PxFlags@W4Enum@PxHitFlag@physx@@G@3@M@Z@UEAAPEAXI@Z 000000018000d700 f   GuCCTSweepTests.obj
 0001:0000c700       ??_GHfTrianglesEntityReport2@?A0x5a5668d3@@UEAAPEAXI@Z 000000018000d700 f   GuMeshQuery.obj
 0001:0000d350       ?onEvent@LocalReport@?1??sweepBox_HeightFieldGeom_Precise@@YA_NAEBVPxGeometry@physx@@AEBVPxTransform@4@AEBVPxBoxGeometry@4@1AEBVBox@Gu@4@AEBVPxVec3@4@MAEAUPxSweepHit@4@V?$PxFlags@W4Enum@PxHitFlag@physx@@G@4@M@Z@UEAA_NIPEAI@Z 000000018000e350 f   GuCCTSweepTests.obj
 0001:0000d640       ?sweepBoxVsTriangles@@YA_NIPEBVPxTriangle@physx@@AEBVBox@Gu@2@AEBVPxVec3@2@MAEAUPxSweepHit@2@V?$PxFlags@W4Enum@PxHitFlag@physx@@G@2@_NPEBI@Z 000000018000e640 f   GuCCTSweepTests.obj
 0001:000107a4       $LN46                      00000001800117a4     GuGeometryUnion.obj
 0001:00012990       ?loadMeshData@@YAPEAVTriangleMeshData@Gu@physx@@AEAVPxInputStream@3@@Z 0000000180013990 f   GuMeshFactory.obj
 0001:00015d50       ?getBinaryMetaData@ShadowConvexMeshGeometry@?1??0GeometryUnion@Gu@physx@@SAXAEAVPxOutputStream@4@@Z@SAX0@Z 0000000180016d50 f   GuMetaData.obj
 0001:00015fc0       ?getBinaryMetaData@ShadowHeightFieldGeometry@?1??0GeometryUnion@Gu@physx@@SAXAEAVPxOutputStream@4@@Z@SAX0@Z 0000000180016fc0 f   GuMetaData.obj
 0001:00016260       ?getBinaryMetaData@ShadowTriangleMeshGeometry@?1??0GeometryUnion@Gu@physx@@SAXAEAVPxOutputStream@4@@Z@SAX0@Z 0000000180017260 f   GuMetaData.obj
 0001:00016d30       ?getBinaryMetaData_BVDataPackedQ@@YAXAEAVPxOutputStream@physx@@@Z 0000000180017d30 f   GuMetaData.obj
 0001:00016fb0       ?getBinaryMetaData_BigConvexRawData@@YAXAEAVPxOutputStream@physx@@@Z 0000000180017fb0 f   GuMetaData.obj
 0001:000171e0       ?getBinaryMetaData_ConvexHullData@@YAXAEAVPxOutputStream@physx@@@Z 00000001800181e0 f   GuMetaData.obj
 0001:00017450       ?getBinaryMetaData_HeightFieldData@@YAXAEAVPxOutputStream@physx@@@Z 0000000180018450 f   GuMetaData.obj
 0001:00017780       ?getBinaryMetaData_RTreePage@@YAXAEAVPxOutputStream@physx@@@Z 0000000180018780 f   GuMetaData.obj
 0001:00018110       ?GeomMTDCallback_NotSupported@@YA_NAEAVPxVec3@physx@@AEAMAEBVPxGeometry@2@AEBVPxTransform@2@23@Z 0000000180019110 f   GuMTD.obj
 0001:00018110       ?GeomOverlapCallback_NotSupported@@YA_NAEBVPxGeometry@physx@@AEBVPxTransform@2@01PEAUTriggerCache@Gu@2@@Z 0000000180019110 f   GuOverlapTests.obj
 0001:00018120       ?GeomMTDCallback_SphereSphere@@YA_NAEAVPxVec3@physx@@AEAMAEBVPxGeometry@2@AEBVPxTransform@2@23@Z 0000000180019120 f   GuMTD.obj
 0001:00018200       ?GeomMTDCallback_SpherePlane@@YA_NAEAVPxVec3@physx@@AEAMAEBVPxGeometry@2@AEBVPxTransform@2@23@Z 0000000180019200 f   GuMTD.obj
 0001:000182d0       ?GeomMTDCallback_SphereCapsule@@YA_NAEAVPxVec3@physx@@AEAMAEBVPxGeometry@2@AEBVPxTransform@2@23@Z 00000001800192d0 f   GuMTD.obj
 0001:00018410       ?GeomMTDCallback_SphereBox@@YA_NAEAVPxVec3@physx@@AEAMAEBVPxGeometry@2@AEBVPxTransform@2@23@Z 0000000180019410 f   GuMTD.obj
 0001:00018540       ?GeomMTDCallback_SphereConvex@@YA_NAEAVPxVec3@physx@@AEAMAEBVPxGeometry@2@AEBVPxTransform@2@23@Z 0000000180019540 f   GuMTD.obj
 0001:000185a0       ?GeomMTDCallback_SphereMesh@@YA_NAEAVPxVec3@physx@@AEAMAEBVPxGeometry@2@AEBVPxTransform@2@23@Z 00000001800195a0 f   GuMTD.obj
 0001:00018710       ?GeomMTDCallback_PlaneCapsule@@YA_NAEAVPxVec3@physx@@AEAMAEBVPxGeometry@2@AEBVPxTransform@2@23@Z 0000000180019710 f   GuMTD.obj
 0001:000188f0       ?GeomMTDCallback_PlaneBox@@YA_NAEAVPxVec3@physx@@AEAMAEBVPxGeometry@2@AEBVPxTransform@2@23@Z 00000001800198f0 f   GuMTD.obj
 0001:00018a10       ?GeomMTDCallback_PlaneConvex@@YA_NAEAVPxVec3@physx@@AEAMAEBVPxGeometry@2@AEBVPxTransform@2@23@Z 0000000180019a10 f   GuMTD.obj
 0001:00018a60       ?GeomMTDCallback_CapsuleCapsule@@YA_NAEAVPxVec3@physx@@AEAMAEBVPxGeometry@2@AEBVPxTransform@2@23@Z 0000000180019a60 f   GuMTD.obj
 0001:00018c40       ?GeomMTDCallback_CapsuleBox@@YA_NAEAVPxVec3@physx@@AEAMAEBVPxGeometry@2@AEBVPxTransform@2@23@Z 0000000180019c40 f   GuMTD.obj
 0001:00018e20       ?GeomMTDCallback_CapsuleConvex@@YA_NAEAVPxVec3@physx@@AEAMAEBVPxGeometry@2@AEBVPxTransform@2@23@Z 0000000180019e20 f   GuMTD.obj
 0001:00018f30       ?GeomMTDCallback_CapsuleMesh@@YA_NAEAVPxVec3@physx@@AEAMAEBVPxGeometry@2@AEBVPxTransform@2@23@Z 0000000180019f30 f   GuMTD.obj
 0001:00019140       ?GeomMTDCallback_BoxBox@@YA_NAEAVPxVec3@physx@@AEAMAEBVPxGeometry@2@AEBVPxTransform@2@23@Z 000000018001a140 f   GuMTD.obj
 0001:00019320       ?GeomMTDCallback_BoxConvex@@YA_NAEAVPxVec3@physx@@AEAMAEBVPxGeometry@2@AEBVPxTransform@2@23@Z 000000018001a320 f   GuMTD.obj
 0001:00019420       ?GeomMTDCallback_BoxMesh@@YA_NAEAVPxVec3@physx@@AEAMAEBVPxGeometry@2@AEBVPxTransform@2@23@Z 000000018001a420 f   GuMTD.obj
 0001:00019690       ?GeomMTDCallback_ConvexConvex@@YA_NAEAVPxVec3@physx@@AEAMAEBVPxGeometry@2@AEBVPxTransform@2@23@Z 000000018001a690 f   GuMTD.obj
 0001:000196a0       ?GeomMTDCallback_ConvexMesh@@YA_NAEAVPxVec3@physx@@AEAMAEBVPxGeometry@2@AEBVPxTransform@2@23@Z 000000018001a6a0 f   GuMTD.obj
 0001:000197b0       ?GeomMTDCallback_SphereHeightField@@YA_NAEAVPxVec3@physx@@AEAMAEBVPxGeometry@2@AEBVPxTransform@2@23@Z 000000018001a7b0 f   GuMTD.obj
 0001:00019920       ?GeomMTDCallback_CapsuleHeightField@@YA_NAEAVPxVec3@physx@@AEAMAEBVPxGeometry@2@AEBVPxTransform@2@23@Z 000000018001a920 f   GuMTD.obj
 0001:00019b30       ?GeomMTDCallback_BoxHeightField@@YA_NAEAVPxVec3@physx@@AEAMAEBVPxGeometry@2@AEBVPxTransform@2@23@Z 000000018001ab30 f   GuMTD.obj
 0001:00019da0       ?GeomMTDCallback_ConvexHeightField@@YA_NAEAVPxVec3@physx@@AEAMAEBVPxGeometry@2@AEBVPxTransform@2@23@Z 000000018001ada0 f   GuMTD.obj
 0001:0001b480       ?PxcCapsuleOBBOverlap3@@YA_NAEBVSegment@Gu@physx@@MAEBVBox@23@PEAMPEAVPxVec3@3@@Z 000000018001c480 f   GuMTD.obj
 0001:0001b850       ?PxcTestAxis@@YA_NAEBVPxVec3@physx@@AEBVBox@Gu@2@1AEAM@Z 000000018001c850 f   GuMTD.obj
 0001:0001ba40       ?PxcTestAxis@@YA_NAEBVPxVec3@physx@@AEBVSegment@Gu@2@MAEBVBox@42@AEAM@Z 000000018001ca40 f   GuMTD.obj
 0001:0001bc40       ?computeMTD_BoxBox@@YA_NAEAVPxVec3@physx@@AEAMAEBVBox@Gu@2@2@Z 000000018001cc40 f   GuMTD.obj
 0001:0001c070       ?computeMTD_BoxConvex@@YA_NAEAVPxVec3@physx@@AEAMAEBVBox@Gu@2@AEBVPxConvexMeshGeometry@2@AEBVPxTransform@2@@Z 000000018001d070 f   GuMTD.obj
 0001:0001c850       ?computeMTD_CapsuleBox@@YA_NAEAVPxVec3@physx@@AEAMAEBVCapsule@Gu@2@AEBVBox@42@@Z 000000018001d850 f   GuMTD.obj
 0001:0001ca70       ?computeMTD_CapsuleCapsule@@YA_NAEAVPxVec3@physx@@AEAMAEBVCapsule@Gu@2@2@Z 000000018001da70 f   GuMTD.obj
 0001:0001cc90       ?computeMTD_CapsuleConvex@@YA_NAEAVPxVec3@physx@@AEAMAEBVCapsule@Gu@2@AEBVPxTransform@2@AEBVPxConvexMeshGeometry@2@3@Z 000000018001dc90 f   GuMTD.obj
 0001:0001d530       ?computeMTD_ConvexConvex@@YA_NAEAVPxVec3@physx@@AEAMAEBVPxConvexMeshGeometry@2@AEBVPxTransform@2@23@Z 000000018001e530 f   GuMTD.obj
 0001:0001df90       ?computeMTD_PlaneBox@@YA_NAEAVPxVec3@physx@@AEAMAEBVPxPlane@2@AEBVBox@Gu@2@@Z 000000018001ef90 f   GuMTD.obj
 0001:0001e1c0       ?computeMTD_PlaneConvex@@YA_NAEAVPxVec3@physx@@AEAMAEBVPxPlane@2@AEBVPxConvexMeshGeometry@2@AEBVPxTransform@2@@Z 000000018001f1c0 f   GuMTD.obj
 0001:0001ebb0       ?computeMTD_SphereBox@@YA_NAEAVPxVec3@physx@@AEAMAEBVSphere@Gu@2@AEBVBox@42@@Z 000000018001fbb0 f   GuMTD.obj
 0001:0001f180       ?computeMTD_SphereCapsule@@YA_NAEAVPxVec3@physx@@AEAMAEBVSphere@Gu@2@AEBVCapsule@42@@Z 0000000180020180 f   GuMTD.obj
 0001:0001f3e0       ?computeMTD_SphereConvex@@YA_NAEAVPxVec3@physx@@AEAMAEBVSphere@Gu@2@AEBVPxConvexMeshGeometry@2@AEBVPxTransform@2@@Z 00000001800203e0 f   GuMTD.obj
 0001:000206a0       ?processContacts@@YA_NAEAVPxVec3@physx@@AEAMIPEBUContactPoint@Gu@2@@Z 00000001800216a0 f   GuMTD.obj
 0001:00021600       ?GeomOverlapCallback_SphereSphere@@YA_NAEBVPxGeometry@physx@@AEBVPxTransform@2@01PEAUTriggerCache@Gu@2@@Z 0000000180022600 f   GuOverlapTests.obj
 0001:00021650       ?GeomOverlapCallback_SpherePlane@@YA_NAEBVPxGeometry@physx@@AEBVPxTransform@2@01PEAUTriggerCache@Gu@2@@Z 0000000180022650 f   GuOverlapTests.obj
 0001:000216b0       ?GeomOverlapCallback_SphereCapsule@@YA_NAEBVPxGeometry@physx@@AEBVPxTransform@2@01PEAUTriggerCache@Gu@2@@Z 00000001800226b0 f   GuOverlapTests.obj
 0001:00021880       ?GeomOverlapCallback_SphereBox@@YA_NAEBVPxGeometry@physx@@AEBVPxTransform@2@01PEAUTriggerCache@Gu@2@@Z 0000000180022880 f   GuOverlapTests.obj
 0001:00021990       ?GeomOverlapCallback_SphereConvex@@YA_NAEBVPxGeometry@physx@@AEBVPxTransform@2@01PEAUTriggerCache@Gu@2@@Z 0000000180022990 f   GuOverlapTests.obj
 0001:00021a40       ?GeomOverlapCallback_PlaneCapsule@@YA_NAEBVPxGeometry@physx@@AEBVPxTransform@2@01PEAUTriggerCache@Gu@2@@Z 0000000180022a40 f   GuOverlapTests.obj
 0001:00021bc0       ?GeomOverlapCallback_PlaneBox@@YA_NAEBVPxGeometry@physx@@AEBVPxTransform@2@01PEAUTriggerCache@Gu@2@@Z 0000000180022bc0 f   GuOverlapTests.obj
 0001:00021e80       ?GeomOverlapCallback_PlaneConvex@@YA_NAEBVPxGeometry@physx@@AEBVPxTransform@2@01PEAUTriggerCache@Gu@2@@Z 0000000180022e80 f   GuOverlapTests.obj
 0001:000224a0       ?GeomOverlapCallback_CapsuleCapsule@@YA_NAEBVPxGeometry@physx@@AEBVPxTransform@2@01PEAUTriggerCache@Gu@2@@Z 00000001800234a0 f   GuOverlapTests.obj
 0001:000226c0       ?GeomOverlapCallback_CapsuleBox@@YA_NAEBVPxGeometry@physx@@AEBVPxTransform@2@01PEAUTriggerCache@Gu@2@@Z 00000001800236c0 f   GuOverlapTests.obj
 0001:000229a0       ?GeomOverlapCallback_CapsuleConvex@@YA_NAEBVPxGeometry@physx@@AEBVPxTransform@2@01PEAUTriggerCache@Gu@2@@Z 00000001800239a0 f   GuOverlapTests.obj
 0001:00022a70       ?GeomOverlapCallback_BoxBox@@YA_NAEBVPxGeometry@physx@@AEBVPxTransform@2@01PEAUTriggerCache@Gu@2@@Z 0000000180023a70 f   GuOverlapTests.obj
 0001:00022bd0       ?GeomOverlapCallback_BoxConvex@@YA_NAEBVPxGeometry@physx@@AEBVPxTransform@2@01PEAUTriggerCache@Gu@2@@Z 0000000180023bd0 f   GuOverlapTests.obj
 0001:00022ca0       ?GeomOverlapCallback_ConvexConvex@@YA_NAEBVPxGeometry@physx@@AEBVPxTransform@2@01PEAUTriggerCache@Gu@2@@Z 0000000180023ca0 f   GuOverlapTests.obj
 0001:00023a60       ?GeomOverlapCallback_HeightfieldUnregistered@@YA_NAEBVPxGeometry@physx@@AEBVPxTransform@2@01PEAUTriggerCache@Gu@2@@Z 0000000180024a60 f   GuOverlapTests.obj
 0001:00025800       ?intersectBoxConvex@@YA_NAEBVPxBoxGeometry@physx@@AEBVPxTransform@2@AEBVConvexMesh@Gu@2@AEBVPxMeshScale@2@1PEAVPxVec3@2@@Z 0000000180026800 f   GuOverlapTests.obj
 0001:00026090       ?intersectCapsuleConvex@@YA_NAEBVPxCapsuleGeometry@physx@@AEBVPxTransform@2@AEBVConvexMesh@Gu@2@AEBVPxMeshScale@2@1PEAVPxVec3@2@@Z 0000000180027090 f   GuOverlapTests.obj
 0001:000268a0       ?intersectSphereConvex@@YA_NAEBVPxTransform@physx@@MAEBVConvexMesh@Gu@2@AEBVPxMeshScale@2@0PEAVPxVec3@2@@Z 00000001800278a0 f   GuOverlapTests.obj
 0001:00026f70       ?projectHull_@@YA?AVPxVec3@physx@@AEBUConvexHullData@Gu@2@AEAM1AEBV12@AEBVPxMat33@2@@Z 0000000180027f70 f   GuOverlapTests.obj
 0001:00028d10       ?raycast_heightField_unregistered@@YAIAEBVPxGeometry@physx@@AEBVPxTransform@2@AEBVPxVec3@2@2MV?$PxFlags@W4Enum@PxHitFlag@physx@@G@2@IPEIAUPxRaycastHit@2@@Z 0000000180029d10 f   GuRaycastTests.obj
 0001:00028d50       ??$traceSegment@UHFTraceSegmentCallback@?A0xe6f01d9c@@$0A@$0A@@HeightFieldTraceUtil@Gu@physx@@QEBAXAEBVPxVec3@2@0MPEAUHFTraceSegmentCallback@?A0xe6f01d9c@@AEBVPxBounds3@2@_NPEBV32@@Z 0000000180029d50 f   GuRaycastTests.obj
 0001:0002a700       ?faceHit@HFTraceSegmentCallback@?A0xe6f01d9c@@QEAA_NAEBVHeightFieldUtil@Gu@physx@@AEBVPxVec3@5@IMM@Z 000000018002b700 f   GuRaycastTests.obj
 0001:0003a630       ?computeSweepConvexPlane@@YAIAEBVPxConvexMeshGeometry@physx@@PEAUConvexHullData@Gu@2@AEBIAEBVPxTransform@2@AEBVPxVec3@2@4@Z 000000018003b630 f   GuSweepSharedTests.obj
 0001:00041e60       ?sweepCapsule_HeightfieldUnregistered@@YA_NAEBVPxGeometry@physx@@AEBVPxTransform@2@AEBVPxCapsuleGeometry@2@1AEBVCapsule@Gu@2@AEBVPxVec3@2@MAEAUPxSweepHit@2@V?$PxFlags@W4Enum@PxHitFlag@physx@@G@2@M@Z 0000000180042e60 f   GuSweepTests.obj
 0001:00041ea0       ?sweepBox_HeightfieldUnregistered@@YA_NAEBVPxGeometry@physx@@AEBVPxTransform@2@AEBVPxBoxGeometry@2@1AEBVBox@Gu@2@AEBVPxVec3@2@MAEAUPxSweepHit@2@V?$PxFlags@W4Enum@PxHitFlag@physx@@G@2@M@Z 0000000180042ea0 f   GuSweepTests.obj
 0001:00041ee0       ?sweepConvex_HeightfieldUnregistered@@YA_NAEBVPxGeometry@physx@@AEBVPxTransform@2@AEBVPxConvexMeshGeometry@2@1AEBVPxVec3@2@MAEAUPxSweepHit@2@V?$PxFlags@W4Enum@PxHitFlag@physx@@G@2@M@Z 0000000180042ee0 f   GuSweepTests.obj
 0001:000487d0       ?split@@YAIAEBVPxBounds3@physx@@IQEIAIIAEBVAABBTreeBuildParams@Gu@2@@Z 00000001800497d0 f   GuAABBTreeBuild.obj
 0001:0004a570       ??_GAccumCallback@?A0x96af2beb@Gu@physx@@UEAAPEAXI@Z 000000018004b570 f   GuCCDSweepConvexMesh.obj
 0001:0004a5a0       ??_GCB@?1??SweepEstimateAnyShapeMesh@Gu@physx@@YAMAEBUCCDShape@23@0AEBVPxTransform@3@111MM@Z@UEAAPEAXI@Z 000000018004b5a0 f   GuCCDSweepConvexMesh.obj
 0001:0004a5a0       ??_G?$IntersectCapsuleVsMeshCallback@$00@?A0x2d395c54@@UEAAPEAXI@Z 000000018004b5a0 f   GuMidphaseRTree.obj
 0001:0004a5a0       ??_G?$IntersectCapsuleVsMeshCallback@$0A@@?A0x2d395c54@@UEAAPEAXI@Z 000000018004b5a0 f   GuMidphaseRTree.obj
 0001:0004a5d0       ??_GEntityReportContainerCallback@?A0x96af2beb@Gu@physx@@UEAAPEAXI@Z 000000018004b5d0 f   GuCCDSweepConvexMesh.obj
 0001:0004d910       ?calcCenterAndBounds@ConvexTriangles@?A0x96af2beb@Gu@physx@@AEBAXAEBVPxTransform@4@@Z 000000018004e910 f   GuCCDSweepConvexMesh.obj
 0001:0004e0d0       ?getPolygonNormal@ConvexTriangles@?A0x96af2beb@Gu@physx@@QEBA?AVPxVec3@4@I@Z 000000018004f0d0 f   GuCCDSweepConvexMesh.obj
 0001:0004e5c0       ?onEvent@EntityReportContainerCallback@?A0x96af2beb@Gu@physx@@UEAA_NIPEAI@Z 000000018004f5c0 f   GuCCDSweepConvexMesh.obj
 0001:0004e640       ?processHit@AccumCallback@?A0x96af2beb@Gu@physx@@UEAA_NAEBUPxRaycastHit@4@AEBVPxVec3@4@11AEAMPEBI@Z 000000018004f640 f   GuCCDSweepConvexMesh.obj
 0001:0004e6a0       ?processHit@CB@?1??SweepEstimateAnyShapeMesh@Gu@physx@@YAMAEBUCCDShape@34@0AEBVPxTransform@4@111MM@Z@UEAA_NAEBUPxRaycastHit@4@AEBVPxVec3@4@33AEAMPEBI@Z 000000018004f6a0 f   GuCCDSweepConvexMesh.obj
 0001:00051650       ??$CCDSweep@VBoxV@Gu@physx@@V123@@Gu@physx@@YAMAEAVBoxV@01@0AEBVPxTransform@1@111AEBT__m128@@AEAVPxVec3@1@3M@Z 0000000180052650 f   GuCCDSweepPrimitives.obj
 0001:00051d30       ??$CCDSweep@VBoxV@Gu@physx@@VConvexHullV@23@@Gu@physx@@YAMAEAVBoxV@01@AEAVConvexHullV@01@AEBVPxTransform@1@222AEBT__m128@@AEAVPxVec3@1@4M@Z 0000000180052d30 f   GuCCDSweepPrimitives.obj
 0001:00052410       ??$CCDSweep@VCapsuleV@Gu@physx@@V123@@Gu@physx@@YAMAEAVCapsuleV@01@0AEBVPxTransform@1@111AEBT__m128@@AEAVPxVec3@1@3M@Z 0000000180053410 f   GuCCDSweepPrimitives.obj
 0001:00052af0       ??$CCDSweep@VCapsuleV@Gu@physx@@VBoxV@23@@Gu@physx@@YAMAEAVCapsuleV@01@AEAVBoxV@01@AEBVPxTransform@1@222AEBT__m128@@AEAVPxVec3@1@4M@Z 0000000180053af0 f   GuCCDSweepPrimitives.obj
 0001:000531d0       ??$CCDSweep@VCapsuleV@Gu@physx@@VConvexHullV@23@@Gu@physx@@YAMAEAVCapsuleV@01@AEAVConvexHullV@01@AEBVPxTransform@1@222AEBT__m128@@AEAVPxVec3@1@4M@Z 00000001800541d0 f   GuCCDSweepPrimitives.obj
 0001:000538b0       ??$CCDSweep@VConvexHullV@Gu@physx@@V123@@Gu@physx@@YAMAEAVConvexHullV@01@0AEBVPxTransform@1@111AEBT__m128@@AEAVPxVec3@1@3M@Z 00000001800548b0 f   GuCCDSweepPrimitives.obj
 0001:00053f90       ??$CCDSweep@VTriangleV@Gu@physx@@VBoxV@23@@Gu@physx@@YAMAEAVTriangleV@01@AEAVBoxV@01@AEBVPxTransform@1@222AEBT__m128@@AEAVPxVec3@1@4M@Z 0000000180054f90 f   GuCCDSweepPrimitives.obj
 0001:00054670       ??$CCDSweep@VTriangleV@Gu@physx@@VCapsuleV@23@@Gu@physx@@YAMAEAVTriangleV@01@AEAVCapsuleV@01@AEBVPxTransform@1@222AEBT__m128@@AEAVPxVec3@1@4M@Z 0000000180055670 f   GuCCDSweepPrimitives.obj
 0001:00054d50       ??$CCDSweep@VTriangleV@Gu@physx@@VConvexHullV@23@@Gu@physx@@YAMAEAVTriangleV@01@AEAVConvexHullV@01@AEBVPxTransform@1@222AEBT__m128@@AEAVPxVec3@1@4M@Z 0000000180055d50 f   GuCCDSweepPrimitives.obj
 0001:00062ce0       ?doBoxBoxContactGeneration@@YAHAEAVContactBuffer@Gu@physx@@AEBVPxVec3@3@1AEAIAEBVMatrix34@Cm@3@3M@Z 0000000180063ce0 f   GuContactBoxBox.obj
 0001:00064170       $LN527                     0000000180065170     GuContactBoxBox.obj
 0001:00064190       ?generateContacts@@YAHAEAVContactBuffer@Gu@physx@@AEBVPxVec3@3@MM1AEBVMatrix34@Cm@3@2M@Z 0000000180065190 f   GuContactBoxBox.obj
 0001:000656b0       ?GuCapsuleOBBOverlap3@@YA_NAEBVSegment@Gu@physx@@MAEBVBox@23@PEAMPEAVPxVec3@3@@Z 00000001800666b0 f   GuContactCapsuleBox.obj
 0001:00065a70       ?GuGenerateEEContacts2@@YAXAEAVContactBuffer@Gu@physx@@AEBVSegment@23@MAEBVBox@23@AEBVPxVec3@3@M@Z 0000000180066a70 f   GuContactCapsuleBox.obj
 0001:000662c0       ?GuGenerateEEContacts@@YAXAEAVContactBuffer@Gu@physx@@AEBVSegment@23@MAEBVBox@23@AEBVPxVec3@3@@Z 00000001800672c0 f   GuContactCapsuleBox.obj
 0001:00066a90       ?GuGenerateVFContacts@@YAXAEAVContactBuffer@Gu@physx@@AEBVSegment@23@MAEBVBox@23@AEBVPxVec3@3@M@Z 0000000180067a90 f   GuContactCapsuleBox.obj
 0001:00066d30       ?GuTestAxis@@YA_NAEBVPxVec3@physx@@AEBVSegment@Gu@2@MAEBVBox@42@AEAM@Z 0000000180067d30 f   GuContactCapsuleBox.obj
 0001:00067e30       ?GuCapsuleConvexOverlap@@YA_NAEBVSegment@Gu@physx@@MAEBUPolygonalData@23@AEBVFastVertex2ShapeScaling@Cm@3@AEBVPxTransform@3@PEAMPEAVPxVec3@3@_N@Z 0000000180068e30 f   GuContactCapsuleConvex.obj
 0001:000686a0       ?GuGenerateEEContacts2b@@YAXAEAVContactBuffer@Gu@physx@@AEBVSegment@23@MAEBVMatrix34@Cm@3@AEBUPolygonalData@23@AEBVFastVertex2ShapeScaling@63@AEBVPxVec3@3@M@Z 00000001800696a0 f   GuContactCapsuleConvex.obj
 0001:00068f20       ?GuGenerateEEContacts@@YAXAEAVContactBuffer@Gu@physx@@AEBVSegment@23@MMAEBUPolygonalData@23@AEBVPxTransform@3@AEBVFastVertex2ShapeScaling@Cm@3@AEBVPxVec3@3@@Z 0000000180069f20 f   GuContactCapsuleConvex.obj
 0001:00069820       ?GuGenerateVFContacts2@@YAXAEAVContactBuffer@Gu@physx@@AEBVPxTransform@3@AEBUPolygonalData@23@AEBVPxMeshScale@3@IPEIBVPxVec3@3@MAEBV73@M@Z 000000018006a820 f   GuContactCapsuleConvex.obj
 0001:0006ac30       ??0CapsuleMeshContactGeneration@?A0xbd241c00@@QEAA@AEAVContactBuffer@Gu@physx@@AEBVPxTransform@4@AEBVSegment@34@MMM@Z 000000018006bc30 f   GuContactCapsuleMesh.obj
 0001:0006ae80       ??_GCapsuleHeightfieldContactGenerationCallback@?A0xbd241c00@@UEAAPEAXI@Z 000000018006be80 f   GuContactCapsuleMesh.obj
 0001:0006aeb0       ??_GCapsuleMeshContactGenerationCallback_NoScale@?A0xbd241c00@@UEAAPEAXI@Z 000000018006beb0 f   GuContactCapsuleMesh.obj
 0001:0006aee0       ??_GCapsuleMeshContactGenerationCallback_Scale@?A0xbd241c00@@UEAAPEAXI@Z 000000018006bee0 f   GuContactCapsuleMesh.obj
 0001:0006af10       ?PxcCapsuleTriOverlap3@@YA_NEAEBVSegment@Gu@physx@@MPEIBVPxVec3@3@PEIAMPEIAV43@@Z 000000018006bf10 f   GuContactCapsuleMesh.obj
 0001:0006b410       ?PxcGenerateEEContacts2@@YAXAEBVMatrix34@Cm@physx@@AEAVContactBuffer@Gu@3@AEBVSegment@53@MPEIBVPxVec3@3@AEBV73@IM@Z 000000018006c410 f   GuContactCapsuleMesh.obj
 0001:0006b800       ?PxcGenerateEEContacts@@YAXAEBVMatrix34@Cm@physx@@AEAVContactBuffer@Gu@3@AEBVSegment@53@MPEIBVPxVec3@3@AEBV73@I@Z 000000018006c800 f   GuContactCapsuleMesh.obj
 0001:0006bc10       ?PxcGenerateVFContacts@@YAXAEBVMatrix34@Cm@physx@@AEAVContactBuffer@Gu@3@AEBVSegment@53@MPEIBVPxVec3@3@AEBV73@IM@Z 000000018006cc10 f   GuContactCapsuleMesh.obj
 0001:0006c140       ?PxcTestAxis@@YA_NAEBVPxVec3@physx@@AEBVSegment@Gu@2@MPEIBV12@AEAM@Z 000000018006d140 f   GuContactCapsuleMesh.obj
 0001:0006cde0       ?onEvent@CapsuleHeightfieldContactGenerationCallback@?A0xbd241c00@@UEAA_NIPEAI@Z 000000018006dde0 f   GuContactCapsuleMesh.obj
 0001:0006d1f0       ?processHit@CapsuleMeshContactGenerationCallback_NoScale@?A0xbd241c00@@UEAA_NAEBUPxRaycastHit@physx@@AEBVPxVec3@4@11AEAMPEBI@Z 000000018006e1f0 f   GuContactCapsuleMesh.obj
 0001:0006d2b0       ?processHit@CapsuleMeshContactGenerationCallback_Scale@?A0xbd241c00@@UEAA_NAEBUPxRaycastHit@physx@@AEBVPxVec3@4@11AEAMPEBI@Z 000000018006e2b0 f   GuContactCapsuleMesh.obj
 0001:0006d4e0       ?processTriangle@CapsuleMeshContactGeneration@?A0xbd241c00@@QEAAXIAEBVTrianglePadded@Gu@physx@@E@Z 000000018006e4e0 f   GuContactCapsuleMesh.obj
 0001:0006dfe0       ?GuContactHullHull@@YA_NAEBUPolygonalData@Gu@physx@@0AEBVPxBounds3@3@1AEBVPxTransform@3@2AEBUNarrowPhaseParams@23@AEAVContactBuffer@23@AEBVFastVertex2ShapeScaling@Cm@3@5_N6@Z 000000018006efe0 f   GuContactConvexConvex.obj
 0001:00070060       ?GuTestFacesSepAxesBackfaceRoughPass@@YA_NAEBUPolygonalData@Gu@physx@@0AEBVMatrix34@Cm@3@1AEBVFastVertex2ShapeScaling@53@21AEBVPxVec3@3@3AEAMAEAV73@AEAIMM3@Z 0000000180071060 f   GuContactConvexConvex.obj
 0001:00070730       ?PxcBruteForceOverlapBackface@@YA_NAEBVPxBounds3@physx@@0AEBUPolygonalData@Gu@2@1AEBVMatrix34@Cm@2@2AEBVFastVertex2ShapeScaling@62@322AEBVPxVec3@2@AEAI5AEAMAEAV82@AEAW4PxcSepAxisType@42@MM@Z 0000000180071730 f   GuContactConvexConvex.obj
 0001:00071100       ?PxcFindSeparatingAxes@@YAXAEAVSeparatingAxes@Gu@physx@@PEIBIIAEBUPolygonalData@23@AEBVMatrix34@Cm@3@AEBVPxPlane@3@3AEBVPxBounds3@3@MAEBVFastVertex2ShapeScaling@63@@Z 0000000180072100 f   GuContactConvexConvex.obj
 0001:000715f0       ?PxcSegmentAABBIntersect@@YA_NAEBVPxVec3@physx@@000AEBVMatrix34@Cm@2@@Z 00000001800725f0 f   GuContactConvexConvex.obj
 0001:00071980       ?PxcTestFacesSepAxesBackface@@YA_NAEBUPolygonalData@Gu@physx@@0AEBVMatrix34@Cm@3@1AEBVFastVertex2ShapeScaling@53@21AEBVPxVec3@3@AEAMAEAV73@AEAIPEIAI6MM3@Z 0000000180072980 f   GuContactConvexConvex.obj
 0001:000723c0       ?prepareData@@YAXAEAVPxPlane@physx@@0AEAVPxBounds3@2@1AEBV32@2AEBV12@3AEBVFastVertex2ShapeScaling@Cm@2@4AEBVMatrix34@52@5M@Z 00000001800733c0 f   GuContactConvexConvex.obj
 0001:00072930       ??0ConvexMeshContactGeneration@?A0xf10ed24e@@QEAA@AEAV?$InlineArray@I$0EEA@V?$ReflectionAllocator@I@shdfnd@physx@@@shdfnd@physx@@AEBVPxTransform@4@1AEBUPolygonalData@Gu@4@AEBVMatrix34@Cm@4@3AEBVFastVertex2ShapeScaling@94@MM_NM11AEAVContactBuffer@74@@Z 0000000180073930 f   GuContactConvexMesh.obj
 0001:00072e70       ??_GConvexVsHeightfieldContactGenerationCallback@?A0xf10ed24e@@UEAAPEAXI@Z 0000000180073e70 f   GuContactConvexMesh.obj
 0001:00073010       ?computeFeatureCode@@YA?AW4FeatureCode@@AEBVPxVec3@physx@@PEBV23@@Z 0000000180074010 f   GuContactConvexMesh.obj
 0001:00073930       ?contactHullHeightfield2@@YA_NAEBUPolygonalData@Gu@physx@@AEBVPxBounds3@3@AEBVPxHeightFieldGeometry@3@AEBVPxTransform@3@3AEBUNarrowPhaseParams@23@AEAVContactBuffer@23@AEBVFastVertex2ShapeScaling@Cm@3@_N@Z 0000000180074930 f   GuContactConvexMesh.obj
 0001:00074050       ?contactHullMesh2@@YA_NAEBUPolygonalData@Gu@physx@@AEBVPxBounds3@3@AEBUPxTriangleMeshGeometryLL@3@AEBVPxTransform@3@3AEBUNarrowPhaseParams@23@AEAVContactBuffer@23@AEBVFastVertex2ShapeScaling@Cm@3@6_N7@Z 0000000180075050 f   GuContactConvexMesh.obj
 0001:000747d0       ?generateContacts@ConvexMeshContactGeneration@?A0xf10ed24e@@QEBA_NAEBVPxPlane@physx@@PEIBVPxVec3@4@AEBV54@AEAV54@MI@Z 00000001800757d0 f   GuContactConvexMesh.obj
 0001:000756a0       ?generateLastContacts@ConvexMeshContactGeneration@?A0xf10ed24e@@QEAAXXZ 00000001800766a0 f   GuContactConvexMesh.obj
 0001:00075bf0       $LN197                     0000000180076bf0     GuContactConvexMesh.obj
 0001:00075c10       ?onEvent@ConvexVsHeightfieldContactGenerationCallback@?A0xf10ed24e@@UEAA_NIPEAI@Z 0000000180076c10 f   GuContactConvexMesh.obj
 0001:00076040       ?performEETests@@YA_NAEBUPolygonalData@Gu@physx@@EAEBVMatrix34@Cm@3@1PEIBVPxVec3@3@IPEIBIAEBVPxPlane@3@AEBVFastVertex2ShapeScaling@53@AEAV63@AEAMMMII@Z 0000000180077040 f   GuContactConvexMesh.obj
 0001:00077240       ?processTriangle@ConvexMeshContactGeneration@?A0xf10ed24e@@QEAAXPEBVPxVec3@physx@@IEPEBI@Z 0000000180078240 f   GuContactConvexMesh.obj
 0001:00077870       ?testFacesSepAxesBackface@@YA_NAEBUPolygonalData@Gu@physx@@AEBVMatrix34@Cm@3@11AEBVPxVec3@3@PEIBV63@AEBVFastVertex2ShapeScaling@53@AEAIPEAIAEAMAEAV63@5M_N@Z 0000000180078870 f   GuContactConvexMesh.obj
 0001:00078380       ?triangleConvexTest@@YA_NAEBUPolygonalData@Gu@physx@@EIPEIBVPxVec3@3@AEBVPxPlane@3@AEBV43@AEBVMatrix34@Cm@3@444AEBVFastVertex2ShapeScaling@73@MMAEAV43@AEAMAEA_N_N@Z 0000000180079380 f   GuContactConvexMesh.obj
 0001:0007a300       ?ContactReductionAllIn@@YAXAEAVContactBuffer@Gu@physx@@IIAEBVPxMat33@3@PEIBVPxVec3@3@PEIBE@Z 000000018007b300 f   GuContactPolygonPolygon.obj
 0001:0007b580       ?PointInConvexPolygon2D_OutCodes@@YA_NPEIBMIMMMMAEAE@Z 000000018007c580 f   GuContactPolygonPolygon.obj
 0001:0007d160       ?transformVertices@@YAXAEAM000PEIAMIPEIBVPxVec3@physx@@PEIBEAEBVPxMat33@2@@Z 000000018007e160 f   GuContactPolygonPolygon.obj
 0001:0007e2d0       ??$sort@USortKey@@U?$Less@USortKey@@@shdfnd@physx@@VNullAllocator@?A0x0bb4fe5a@@@shdfnd@physx@@YAXPEAUSortKey@@IAEBU?$Less@USortKey@@@01@AEBVNullAllocator@?A0x0bb4fe5a@@I@Z 000000018007f2d0 f   GuContactSphereMesh.obj
 0001:0007e6b0       ??_GSphereHeightfieldContactGenerationCallback@?A0x0bb4fe5a@@UEAAPEAXI@Z 000000018007f6b0 f   GuContactSphereMesh.obj
 0001:0007e6e0       ??_GSphereMeshContactGenerationCallback_NoScale@?A0x0bb4fe5a@@UEAAPEAXI@Z 000000018007f6e0 f   GuContactSphereMesh.obj
 0001:0007e730       ??_GSphereMeshContactGenerationCallback_Scale@?A0x0bb4fe5a@@UEAAPEAXI@Z 000000018007f730 f   GuContactSphereMesh.obj
 0001:0007e780       ?closestPtPointTriangle@@YA?AVPxVec3@physx@@AEBV12@000AEAM1AEAW4FeatureCode@Gu@2@@Z 000000018007f780 f   GuContactSphereMesh.obj
 0001:0007f6b8       $LN256                     00000001800806b8     GuContactSphereMesh.obj
 0001:000807e0       $LN513                     00000001800817e0     GuContactSphereMesh.obj
 0001:000807f8       $LN512                     00000001800817f8     GuContactSphereMesh.obj
 0001:00080810       ?generateLastContacts@SphereMeshContactGeneration@?A0x0bb4fe5a@@QEAAXXZ 0000000180081810 f   GuContactSphereMesh.obj
 0001:00080f7c       $LN199                     0000000180081f7c     GuContactSphereMesh.obj
 0001:00080fa0       ?onEvent@SphereHeightfieldContactGenerationCallback@?A0x0bb4fe5a@@UEAA_NIPEAI@Z 0000000180081fa0 f   GuContactSphereMesh.obj
 0001:00081060       ?processHit@SphereMeshContactGenerationCallback_NoScale@?A0x0bb4fe5a@@UEAA_NAEBUPxRaycastHit@physx@@AEBVPxVec3@4@11AEAMPEBI@Z 0000000180082060 f   GuContactSphereMesh.obj
 0001:00081090       ?processHit@SphereMeshContactGenerationCallback_Scale@?A0x0bb4fe5a@@UEAA_NAEBUPxRaycastHit@physx@@AEBVPxVec3@4@11AEAMPEBI@Z 0000000180082090 f   GuContactSphereMesh.obj
 0001:00081320       ?processTriangle@SphereMeshContactGeneration@?A0x0bb4fe5a@@QEAAXIAEBVPxVec3@physx@@00PEBI@Z 0000000180082320 f   GuContactSphereMesh.obj
 0001:00082ce0       ?convexHullLoad@@YA_NAEAUConvexHullData@Gu@physx@@AEAVPxInputStream@3@AEAV?$PxBitAndDataT@I$0IAAAAAAA@@3@@Z 0000000180083ce0 f   GuConvexMesh.obj
 0001:00085530       ?HullProjectionCB_BigConvex@@YAXAEBUPolygonalData@Gu@physx@@AEBVPxVec3@3@AEBVMatrix34@Cm@3@AEBVFastVertex2ShapeScaling@63@AEAM4@Z 0000000180086530 f   GuShapeConvex.obj
 0001:000858c0       ?HullProjectionCB_Box@@YAXAEBUPolygonalData@Gu@physx@@AEBVPxVec3@3@AEBVMatrix34@Cm@3@AEBVFastVertex2ShapeScaling@63@AEAM4@Z 00000001800868c0 f   GuShapeConvex.obj
 0001:00085a00       ?HullProjectionCB_SmallConvex@@YAXAEBUPolygonalData@Gu@physx@@AEBVPxVec3@3@AEBVMatrix34@Cm@3@AEBVFastVertex2ShapeScaling@63@AEAM4@Z 0000000180086a00 f   GuShapeConvex.obj
 0001:00085bc0       ?SelectClosestEdgeCB_Box@@YAIAEBUPolygonalData@Gu@physx@@AEBVFastVertex2ShapeScaling@Cm@3@AEBVPxVec3@3@@Z 0000000180086bc0 f   GuShapeConvex.obj
 0001:000861a0       ?SelectClosestEdgeCB_Convex@@YAIAEBUPolygonalData@Gu@physx@@AEBVFastVertex2ShapeScaling@Cm@3@AEBVPxVec3@3@@Z 00000001800871a0 f   GuShapeConvex.obj
 0001:00087460       ?case0@@YAXIIIAEAVPxVec3@physx@@AEBV12@1PEAMAEAM@Z 0000000180088460 f   GuDistanceSegmentBox.obj
 0001:000876e0       ?distanceLineBoxSquared@@YAMAEBVPxVec3@physx@@000AEBVPxMat33@2@PEAMPEAV12@@Z 00000001800886e0 f   GuDistanceSegmentBox.obj
 0001:00087ed0       ?face@@YAXIIIAEAVPxVec3@physx@@AEBV12@11PEAMAEAM@Z 0000000180088ed0 f   GuDistanceSegmentBox.obj
 0001:0008bfa0       ?calculateContactInformation@Gu@physx@@YAXPEIBT__m128@@0PEAVFacet@12@AEBUGjkConvex@12@2_NAEAUGjkOutput@12@@Z 000000018008cfa0 f   GuEPA.obj
 0001:0008d520       ?getClosestPtPointTriangle@Gu@physx@@YA?AT__m128@@PEIAT3@AEBT3@PEAIAEAI@Z 000000018008e520 f   GuGJKSimplex.obj
 0001:00096e10       ?intersectHeightFieldBox@@YA_NAEBVHeightFieldTraceUtil@Gu@physx@@AEBVBox@23@@Z 0000000180097e10 f   GuOverlapTestsHF.obj
 0001:00097930       ?intersectHeightFieldCapsule@@YA_NAEBVHeightFieldUtil@Gu@physx@@AEBVPxCapsuleGeometry@3@AEBVPxTransform@3@@Z 0000000180098930 f   GuOverlapTestsHF.obj
 0001:00098050       ?intersectHeightFieldConvex@@YA_NAEBVHeightFieldTraceUtil@Gu@physx@@AEBVPxTransform@3@AEBVConvexMesh@23@1AEBVPxMeshScale@3@@Z 0000000180099050 f   GuOverlapTestsHF.obj
 0001:00099530       ?intersectHeightFieldSphere@@YA_NAEBVHeightFieldUtil@Gu@physx@@AEBVSphere@23@@Z 000000018009a530 f   GuOverlapTestsHF.obj
 0001:00099900       ?multiplyInverseRTLeft@@YA?AVMatrix34@Cm@physx@@AEBV123@0@Z 000000018009a900 f   GuOverlapTestsHF.obj
 0001:000a3d60       ?BuildBV4FromRoot@@YA_NAEAVBV4Tree@Gu@physx@@PEAUBV4Node@@AEAUBV4BuildParams@@_NM@Z 00000001800a4d60 f   GuBV4Build.obj
 0001:000a42a0       ?_BuildBV4@@YAXAEBVAABBTree@Gu@physx@@PEAUBV4Node@@PEBVAABBTreeNode@23@AEAUBV4BuildParams@@@Z 00000001800a52a0 f   GuBV4Build.obj
 0001:000a45e0       ?_Check@Local@?5??BuildBV32Internal@@YA_NAEAVBV32Tree@Gu@physx@@AEBVAABBTree@45@PEAVSourceMesh@45@M@Z@SAXPEAVAABBTreeNode@45@@Z 00000001800a55e0 f   GuBV32Build.obj
 0001:000a45e0       ?_Check@Local@?4??BuildBV4Internal@@YA_NAEAVBV4Tree@Gu@physx@@AEBVAABBTree@45@PEAVSourceMesh@45@M_N@Z@SAXPEAVAABBTreeNode@45@@Z 00000001800a55e0 f   GuBV4Build.obj
 0001:000a4760       ?_CheckMD@Local@?5??BuildBV32Internal@@YA_NAEAVBV32Tree@Gu@physx@@AEBVAABBTree@45@PEAVSourceMesh@45@M@Z@SAXPEBVAABBTreeNode@45@AEAI4@Z 00000001800a5760 f   GuBV32Build.obj
 0001:000a4760       ?_CheckMD@Local@?4??BuildBV4Internal@@YA_NAEAVBV4Tree@Gu@physx@@AEBVAABBTree@45@PEAVSourceMesh@45@M_N@Z@SAXPEBVAABBTreeNode@45@AEAI5@Z 00000001800a5760 f   GuBV4Build.obj
 0001:000a47d0       ?_ComputeMaxValues@@YAXPEBUBV4Node@@AEAVPxVec3@physx@@1@Z 00000001800a57d0 f   GuBV4Build.obj
 0001:000a4910       ?_FlattenQ@@YAXQEAU?$BVDataPackedT@VQuantizedAABB@Gu@physx@@@Gu@physx@@IAEAIPEBUBV4Node@@11AEBVPxVec3@3@333@Z 00000001800a5910 f   GuBV4Build.obj
 0001:000a4e00       ?_Walk@Local@?1??walk@AABBTree@Gu@physx@@QEBAIP6A_NPEBVAABBTreeNode@45@IPEAX@Z1@Z@SAX0AEAI321@Z 00000001800a5e00 f   GuBV4Build.obj
 0001:000a53f0       ?gReorderCallback@@YA_NPEBVAABBTreeNode@Gu@physx@@IPEAX@Z 00000001800a63f0 f   GuBV4Build.obj
 0001:000a5440       ?local_BuildHierarchy@@YAXPEIAVAABBTreeNode@Gu@physx@@PEIBVPxBounds3@3@PEIBVPxVec3@3@AEAUBuildStats@23@QEIBV123@I@Z 00000001800a6440 f   GuBV4Build.obj
 0001:000a5500       ?local_Split@@YAIPEIBVAABBTreeNode@Gu@physx@@PEIBVPxBounds3@3@PEIBVPxVec3@3@I@Z 00000001800a6500 f   GuBV4Build.obj
 0001:000a5660       ?local_Subdivide@@YA_NPEIAVAABBTreeNode@Gu@physx@@PEIBVPxBounds3@3@PEIBVPxVec3@3@AEAUBuildStats@23@QEIBV123@I@Z 00000001800a6660 f   GuBV4Build.obj
 0001:000a5980       ?precomputeNodeSorting@@YAIAEBVPxBounds3@physx@@0@Z 00000001800a6980 f   GuBV4Build.obj
 0001:000a5cb0       ?setNode@@YAPEAUBV4Node@@AEBVAABBTree@Gu@physx@@PEAU1@IPEBVAABBTreeNode@34@AEAUBV4BuildParams@@@Z 00000001800a6cb0 f   GuBV4Build.obj
 0001:000a5df0       ?setPrimitive@@YAXAEBVAABBTree@Gu@physx@@PEAUBV4Node@@IPEBVAABBTreeNode@23@M@Z 00000001800a6df0 f   GuBV4Build.obj
 0001:000a5fd0       ??$BV4_ProcessStreamKajiyaNoOrderQ@$00VLeafFunction_BoxSweepAny@?A0xfd7bd042@@UBoxSweepParams@2@@@YAHPEIBU?$BVDataPackedT@VQuantizedAABB@Gu@physx@@@Gu@physx@@IPEIAUBoxSweepParams@?A0xfd7bd042@@@Z 00000001800a6fd0 f   GuBV4_AABBSweep.obj
 0001:000a6460       ??$BV4_ProcessStreamKajiyaNoOrderQ@$00VLeafFunction_BoxSweepAnyCB@?A0xfd7bd042@@UGenericSweepParamsCB@2@@@YAHPEIBU?$BVDataPackedT@VQuantizedAABB@Gu@physx@@@Gu@physx@@IPEIAUGenericSweepParamsCB@?A0xfd7bd042@@@Z 00000001800a7460 f   GuBV4_AABBSweep.obj
 0001:000a6b10       ??$BV4_ProcessStreamKajiyaOrderedQ@$00VLeafFunction_BoxSweepClosest@?A0xfd7bd042@@UBoxSweepParams@2@@@YAXPEIBU?$BVDataPackedT@VQuantizedAABB@Gu@physx@@@Gu@physx@@IPEIAUBoxSweepParams@?A0xfd7bd042@@@Z 00000001800a7b10 f   GuBV4_AABBSweep.obj
 0001:000a72a0       ??$BV4_ProcessStreamKajiyaOrderedQ@$00VLeafFunction_BoxSweepClosestCB@?A0xfd7bd042@@UGenericSweepParamsCB@2@@@YAXPEIBU?$BVDataPackedT@VQuantizedAABB@Gu@physx@@@Gu@physx@@IPEIAUGenericSweepParamsCB@?A0xfd7bd042@@@Z 00000001800a82a0 f   GuBV4_AABBSweep.obj
 0001:000a7f00       ??$doBruteForceTests@VLeafFunction_BoxSweepAnyCB@?A0xfd7bd042@@VLeafFunction_BoxSweepClosestCB@2@UGenericSweepParamsCB@2@@Gu@physx@@YAXIPEIAUGenericSweepParamsCB@?A0xfd7bd042@@@Z 00000001800a8f00 f   GuBV4_AABBSweep.obj
 0001:000a87b0       ?prepareSweepData@@YAXAEBVBox@Gu@physx@@AEBVPxVec3@3@MPEIAUBoxSweepParams@?A0xfd7bd042@@@Z 00000001800a97b0 f   GuBV4_AABBSweep.obj
 0001:000a87b0       ?prepareSweepData@@YAXAEBVBox@Gu@physx@@AEBVPxVec3@3@MPEIAUBoxSweepParams@?A0xf8c4922f@@@Z 00000001800a97b0 f   GuBV4_CapsuleSweepAA.obj
 0001:000a8eb0       ?triBoxSweep@@YA_NPEIAUBoxSweepParams@?A0xfd7bd042@@I_N@Z 00000001800a9eb0 f   GuBV4_AABBSweep.obj
 0001:000a9ab0       ??$BV4_ProcessStreamSwizzledNoOrderQ@VLeafFunction_BoxOverlapAll@?A0xed018f01@@UOBBParamsAll@@@@YAHPEIBU?$BVDataPackedT@VQuantizedAABB@Gu@physx@@@Gu@physx@@IPEIAUOBBParamsAll@@@Z 00000001800aaab0 f   GuBV4_BoxOverlap.obj
 0001:000aa340       ??$BV4_ProcessStreamSwizzledNoOrderQ@VLeafFunction_BoxOverlapAny@?A0xed018f01@@UOBBParams@@@@YAHPEIBU?$BVDataPackedT@VQuantizedAABB@Gu@physx@@@Gu@physx@@IPEIAUOBBParams@@@Z 00000001800ab340 f   GuBV4_BoxOverlap.obj
 0001:000aab40       ??$BV4_ProcessStreamSwizzledNoOrderQ@VLeafFunction_BoxOverlapCB@?A0xed018f01@@UOBBParamsCB@@@@YAHPEIBU?$BVDataPackedT@VQuantizedAABB@Gu@physx@@@Gu@physx@@IPEIAUOBBParamsCB@@@Z 00000001800abb40 f   GuBV4_BoxOverlap.obj
 0001:000ab520       ??$BV4_ProcessStreamSwizzledNoOrderQ@VLeafFunction_CapsuleOverlapAll@?A0xed018f01@@UCapsuleParamsAll@@@@YAHPEIBU?$BVDataPackedT@VQuantizedAABB@Gu@physx@@@Gu@physx@@IPEIAUCapsuleParamsAll@@@Z 00000001800ac520 f   GuBV4_BoxOverlap.obj
 0001:000abd30       ??$BV4_ProcessStreamSwizzledNoOrderQ@VLeafFunction_CapsuleOverlapAny@?A0xed018f01@@UCapsuleParamsAny@@@@YAHPEIBU?$BVDataPackedT@VQuantizedAABB@Gu@physx@@@Gu@physx@@IPEIAUCapsuleParamsAny@@@Z 00000001800acd30 f   GuBV4_BoxOverlap.obj
 0001:000ae6e0       ?CapsuleVsTriangle_SAT@@YA_NAEBVPxVec3@physx@@00PEIBUCapsuleParamsAny@@@Z 00000001800af6e0 f   GuBV4_BoxOverlap.obj
 0001:000af390       ??$BV4_ProcessStreamSwizzledNoOrderQ@VLeafFunction_CapsuleSweepAny@?A0xa7738ed2@@UCapsuleSweepParams@2@@@YAHPEIBU?$BVDataPackedT@VQuantizedAABB@Gu@physx@@@Gu@physx@@IPEIAUCapsuleSweepParams@?A0xa7738ed2@@@Z 00000001800b0390 f   GuBV4_CapsuleSweep.obj
 0001:000af960       ??$BV4_ProcessStreamSwizzledOrderedQ@VLeafFunction_CapsuleSweepClosest@?A0xa7738ed2@@UCapsuleSweepParams@2@@@YAXPEIBU?$BVDataPackedT@VQuantizedAABB@Gu@physx@@@Gu@physx@@IPEIAUCapsuleSweepParams@?A0xa7738ed2@@@Z 00000001800b0960 f   GuBV4_CapsuleSweep.obj
 0001:000b07b0       ?computeBoxAroundCapsule@@YAXAEBVCapsule@Gu@physx@@AEAVBox@23@AEAVPxVec3@3@@Z 00000001800b17b0 f   GuBV4_CapsuleSweep.obj
 0001:000b07b0       ?computeBoxAroundCapsule@@YAXAEBVCapsule@Gu@physx@@AEAVBox@23@AEAVPxVec3@3@@Z 00000001800b17b0 f   GuBV4_CapsuleSweepAA.obj
 0001:000b0940       ?prepareSweepData@@YAXAEBVBox@Gu@physx@@AEBVPxVec3@3@MPEIAUBoxSweepParams@?A0xa7738ed2@@@Z 00000001800b1940 f   GuBV4_CapsuleSweep.obj
 0001:000b0940       ?prepareSweepData@@YAXAEBVBox@Gu@physx@@AEBVPxVec3@3@MPEIAUBoxSweepParams@?A0xcc6c65a1@@@Z 00000001800b1940 f   GuBV4_OBBSweep.obj
 0001:000b13d0       ?testQuad@@YAXPEIBUCapsuleSweepParams@?A0xa7738ed2@@AEBVPxVec3@physx@@11111MMAEAMAEA_N@Z 00000001800b23d0 f   GuBV4_CapsuleSweep.obj
 0001:000b1890       ?testTri@@YA_NPEIBUCapsuleSweepParams@?A0xa7738ed2@@AEBVPxVec3@physx@@1111MMAEAMAEA_N@Z 00000001800b2890 f   GuBV4_CapsuleSweep.obj
 0001:000b1cd0       ?triCapsuleSweep@@YA_NPEIAUCapsuleSweepParams@?A0xa7738ed2@@I_N@Z 00000001800b2cd0 f   GuBV4_CapsuleSweep.obj
 0001:000b2a50       ??$BV4_ProcessStreamKajiyaNoOrderQ@$00VLeafFunction_CapsuleSweepAny@?A0xf8c4922f@@UCapsuleSweepParams@2@@@YAHPEIBU?$BVDataPackedT@VQuantizedAABB@Gu@physx@@@Gu@physx@@IPEIAUCapsuleSweepParams@?A0xf8c4922f@@@Z 00000001800b3a50 f   GuBV4_CapsuleSweepAA.obj
 0001:000b2ed0       ??$BV4_ProcessStreamKajiyaOrderedQ@$00VLeafFunction_CapsuleSweepClosest@?A0xf8c4922f@@UCapsuleSweepParams@2@@@YAXPEIBU?$BVDataPackedT@VQuantizedAABB@Gu@physx@@@Gu@physx@@IPEIAUCapsuleSweepParams@?A0xf8c4922f@@@Z 00000001800b3ed0 f   GuBV4_CapsuleSweepAA.obj
 0001:000b3d40       ?testQuad@@YAXPEIBUCapsuleSweepParams@?A0xf8c4922f@@AEBVPxVec3@physx@@11111MMAEAMAEA_N@Z 00000001800b4d40 f   GuBV4_CapsuleSweepAA.obj
 0001:000b4200       ?testTri@@YA_NPEIBUCapsuleSweepParams@?A0xf8c4922f@@AEBVPxVec3@physx@@1111MMAEAMAEA_N@Z 00000001800b5200 f   GuBV4_CapsuleSweepAA.obj
 0001:000b4640       ?triCapsuleSweep@@YA_NPEIAUCapsuleSweepParams@?A0xf8c4922f@@I_N@Z 00000001800b5640 f   GuBV4_CapsuleSweepAA.obj
 0001:000b5230       ??$BV4_ProcessStreamSwizzledNoOrderQ@VLeafFunction_BoxSweepAny@?A0xcc6c65a1@@UBoxSweepParams@2@@@YAHPEIBU?$BVDataPackedT@VQuantizedAABB@Gu@physx@@@Gu@physx@@IPEIAUBoxSweepParams@?A0xcc6c65a1@@@Z 00000001800b6230 f   GuBV4_OBBSweep.obj
 0001:000b5800       ??$BV4_ProcessStreamSwizzledNoOrderQ@VLeafFunction_BoxSweepAnyCB@?A0xcc6c65a1@@UGenericSweepParamsCB@2@@@YAHPEIBU?$BVDataPackedT@VQuantizedAABB@Gu@physx@@@Gu@physx@@IPEIAUGenericSweepParamsCB@?A0xcc6c65a1@@@Z 00000001800b6800 f   GuBV4_OBBSweep.obj
 0001:000b6020       ??$BV4_ProcessStreamSwizzledOrderedQ@VLeafFunction_BoxSweepClosest@?A0xcc6c65a1@@UBoxSweepParams@2@@@YAXPEIBU?$BVDataPackedT@VQuantizedAABB@Gu@physx@@@Gu@physx@@IPEIAUBoxSweepParams@?A0xcc6c65a1@@@Z 00000001800b7020 f   GuBV4_OBBSweep.obj
 0001:000b6830       ??$BV4_ProcessStreamSwizzledOrderedQ@VLeafFunction_BoxSweepClosestCB@?A0xcc6c65a1@@UGenericSweepParamsCB@2@@@YAXPEIBU?$BVDataPackedT@VQuantizedAABB@Gu@physx@@@Gu@physx@@IPEIAUGenericSweepParamsCB@?A0xcc6c65a1@@@Z 00000001800b7830 f   GuBV4_OBBSweep.obj
 0001:000b7a90       ??$doBruteForceTests@VLeafFunction_BoxSweepAnyCB@?A0xcc6c65a1@@VLeafFunction_BoxSweepClosestCB@2@UGenericSweepParamsCB@2@@Gu@physx@@YAXIPEIAUGenericSweepParamsCB@?A0xcc6c65a1@@@Z 00000001800b8a90 f   GuBV4_OBBSweep.obj
 0001:000b8cb0       ?triBoxSweep@@YA_NPEIAUBoxSweepParams@?A0xcc6c65a1@@I_N@Z 00000001800b9cb0 f   GuBV4_OBBSweep.obj
 0001:000b9a30       ??$BV4_ProcessStreamKajiyaNoOrderQ@$0A@VLeafFunction_RaycastAny@?A0xcea15bf0@@URayParams@@@@YAHPEIBU?$BVDataPackedT@VQuantizedAABB@Gu@physx@@@Gu@physx@@IPEIAURayParams@@@Z 00000001800baa30 f   GuBV4_Raycast.obj
 0001:000b9dd0       ??$BV4_ProcessStreamKajiyaNoOrderQ@$0A@VLeafFunction_RaycastCB@?A0xcea15bf0@@URayParamsCB@2@@@YAHPEIBU?$BVDataPackedT@VQuantizedAABB@Gu@physx@@@Gu@physx@@IPEIAURayParamsCB@?A0xcea15bf0@@@Z 00000001800badd0 f   GuBV4_Raycast.obj
 0001:000ba170       ??$BV4_ProcessStreamKajiyaOrderedQ@$0A@VLeafFunction_RaycastClosest@?A0xcea15bf0@@URayParams@@@@YAXPEIBU?$BVDataPackedT@VQuantizedAABB@Gu@physx@@@Gu@physx@@IPEIAURayParams@@@Z 00000001800bb170 f   GuBV4_Raycast.obj
 0001:000bb0c0       ?doLeafTest@LeafFunction_RaycastAny@?A0xcea15bf0@@SAHPEIAURayParams@@I@Z 00000001800bc0c0 f   GuBV4_Raycast.obj
 0001:000bb5b0       ?doLeafTest@LeafFunction_RaycastCB@?A0xcea15bf0@@SAHPEIAURayParamsCB@2@I@Z 00000001800bc5b0 f   GuBV4_Raycast.obj
 0001:000bba40       ?doLeafTest@LeafFunction_RaycastClosest@?A0xcea15bf0@@SAHPEIAURayParams@@I@Z 00000001800bca40 f   GuBV4_Raycast.obj
 0001:000bbef0       ??$BV4_ProcessStreamSwizzledNoOrderQ@VLeafFunction_SphereOverlapAll@?A0x92d246f3@@USphereParamsAll@@@@YAHPEIBU?$BVDataPackedT@VQuantizedAABB@Gu@physx@@@Gu@physx@@IPEIAUSphereParamsAll@@@Z 00000001800bcef0 f   GuBV4_SphereOverlap.obj
 0001:000bc410       ??$BV4_ProcessStreamSwizzledNoOrderQ@VLeafFunction_SphereOverlapAny@?A0x92d246f3@@USphereParams@@@@YAHPEIBU?$BVDataPackedT@VQuantizedAABB@Gu@physx@@@Gu@physx@@IPEIAUSphereParams@@@Z 00000001800bd410 f   GuBV4_SphereOverlap.obj
 0001:000bcea0       ?__SphereTriangle@@YAHPEIBUSphereParams@@I@Z 00000001800bdea0 f   GuBV4_SphereOverlap.obj
 0001:000bd3e0       ??$BV4_ProcessStreamKajiyaNoOrderQ@$00VLeafFunction_SphereSweepAny@?A0xfb2bdd08@@USphereSweepParams@2@@@YAHPEIBU?$BVDataPackedT@VQuantizedAABB@Gu@physx@@@Gu@physx@@IPEIAUSphereSweepParams@?A0xfb2bdd08@@@Z 00000001800be3e0 f   GuBV4_SphereSweep.obj
 0001:000bd860       ??$BV4_ProcessStreamKajiyaOrderedQ@$00VExLeafTestSweepCB@?A0xfb2bdd08@@UBoxSweepParamsCB@2@@@YAXPEIBU?$BVDataPackedT@VQuantizedAABB@Gu@physx@@@Gu@physx@@IPEIAUBoxSweepParamsCB@?A0xfb2bdd08@@@Z 00000001800be860 f   GuBV4_SphereSweep.obj
 0001:000be260       ??$BV4_ProcessStreamKajiyaOrderedQ@$00VLeafFunction_SphereSweepClosest@?A0xfb2bdd08@@USphereSweepParams@2@@@YAXPEIBU?$BVDataPackedT@VQuantizedAABB@Gu@physx@@@Gu@physx@@IPEIAUSphereSweepParams@?A0xfb2bdd08@@@Z 00000001800bf260 f   GuBV4_SphereSweep.obj
 0001:000bf4d0       ?triSphereSweep@@YA_NPEIAUSphereSweepParams@?A0xfb2bdd08@@I_N@Z 00000001800c04d0 f   GuBV4_SphereSweep.obj
 0001:000bf8a0       ?boxSweepVsMesh@@YAHAEAVSweepHit@Gu@physx@@AEBVBV4Tree@23@PEBM2AEBVBox@23@AEBVPxVec3@3@M_N55@Z 00000001800c08a0 f   GuMidphaseBV4.obj
 0001:000bfb30       ?capsuleSweepVsMesh@@YA_NAEAVSweepHit@Gu@physx@@AEBVBV4Tree@23@AEBVCapsule@23@AEBVPxVec3@3@MPEBVPxMat44@3@I@Z 00000001800c0b30 f   GuMidphaseBV4.obj
 0001:000c0440       ?gBoxMeshSweepCallback@@YA_NPEAXAEBVPxVec3@physx@@11IAEAM@Z 00000001800c1440 f   GuMidphaseBV4.obj
 0001:000c04c0       ?gBoxVsMeshCallback@@YA_NPEAXAEBVPxVec3@physx@@11IPEBI@Z 00000001800c14c0 f   GuMidphaseBV4.obj
 0001:000c07a0       ?gCapsuleMeshSweepCallback@@YA_NPEAXAEBVPxVec3@physx@@11IAEAM@Z 00000001800c17a0 f   GuMidphaseBV4.obj
 0001:000c0820       ?gCapsuleVsMeshCallback@@YA_NPEAXAEBVPxVec3@physx@@11IPEBI@Z 00000001800c1820 f   GuMidphaseBV4.obj
 0001:000c0b90       ?gConvexVsMeshSweepCallback@@YA_NPEAXAEBVPxVec3@physx@@11IAEAM@Z 00000001800c1b90 f   GuMidphaseBV4.obj
 0001:000c0be0       ?gRayCallback@@YA?AW4HitCode@Gu@physx@@PEAXAEBVPxVec3@3@11IMMM@Z 00000001800c1be0 f   GuMidphaseBV4.obj
 0001:000c1220       ?gSphereVsMeshCallback@@YA_NPEAXAEBVPxVec3@physx@@11IPEBI@Z 00000001800c2220 f   GuMidphaseBV4.obj
 0001:000c1500       ?gVolumeCallback@@YA_NPEAXAEBVPxVec3@physx@@11IPEBI@Z 00000001800c2500 f   GuMidphaseBV4.obj
 0001:000c697c       $LN271                     00000001800c797c     GuMeshQuery.obj
 0001:000c70f0       ?onEvent@HfTrianglesEntityReport2@?A0x5a5668d3@@UEAA_NIPEAI@Z 00000001800c80f0 f   GuMeshQuery.obj
 0001:000c7e20       ??$intersectAnyVsMesh@$0A@@@YA_NPEBVSphere@Gu@physx@@PEBVCapsule@12@PEBVBox@12@AEBVTriangleMesh@12@AEBVPxTransform@2@AEBVPxMeshScale@2@PEAULimitedResults@12@@Z 00000001800c8e20 f   GuMidphaseRTree.obj
 0001:000c80d0       ??$intersectAnyVsMeshT@$00$00@@YA_NPEBVSphere@Gu@physx@@PEBVCapsule@12@PEBVBox@12@AEBVTriangleMesh@12@AEBVPxTransform@2@AEBVPxMeshScale@2@PEAULimitedResults@12@@Z 00000001800c90d0 f   GuMidphaseRTree.obj
 0001:000c8490       ??$intersectAnyVsMeshT@$00$0A@@@YA_NPEBVSphere@Gu@physx@@PEBVCapsule@12@PEBVBox@12@AEBVTriangleMesh@12@AEBVPxTransform@2@AEBVPxMeshScale@2@PEAULimitedResults@12@@Z 00000001800c9490 f   GuMidphaseRTree.obj
 0001:000c8b30       ??$intersectAnyVsMeshT@$01$00@@YA_NPEBVSphere@Gu@physx@@PEBVCapsule@12@PEBVBox@12@AEBVTriangleMesh@12@AEBVPxTransform@2@AEBVPxMeshScale@2@PEAULimitedResults@12@@Z 00000001800c9b30 f   GuMidphaseRTree.obj
 0001:000c8f60       ??$intersectAnyVsMeshT@$01$0A@@@YA_NPEBVSphere@Gu@physx@@PEBVCapsule@12@PEBVBox@12@AEBVTriangleMesh@12@AEBVPxTransform@2@AEBVPxMeshScale@2@PEAULimitedResults@12@@Z 00000001800c9f60 f   GuMidphaseRTree.obj
 0001:000c9880       ??$intersectAnyVsMeshT@$0A@$0A@@@YA_NPEBVSphere@Gu@physx@@PEBVCapsule@12@PEBVBox@12@AEBVTriangleMesh@12@AEBVPxTransform@2@AEBVPxMeshScale@2@PEAULimitedResults@12@@Z 00000001800ca880 f   GuMidphaseRTree.obj
 0001:000ca140       ??_G?$IntersectBoxVsMeshCallback@$00@?A0x2d395c54@@UEAAPEAXI@Z 00000001800cb140 f   GuMidphaseRTree.obj
 0001:000ca140       ??_G?$IntersectBoxVsMeshCallback@$0A@@?A0x2d395c54@@UEAAPEAXI@Z 00000001800cb140 f   GuMidphaseRTree.obj
 0001:000ca170       ??_G?$IntersectSphereVsMeshCallback@$00@?A0x2d395c54@@UEAAPEAXI@Z 00000001800cb170 f   GuMidphaseRTree.obj
 0001:000ca170       ??_G?$IntersectSphereVsMeshCallback@$0A@@?A0x2d395c54@@UEAAPEAXI@Z 00000001800cb170 f   GuMidphaseRTree.obj
 0001:000ca5c0       ?computeSweptAABBAroundOBB@@YAXAEBVBox@Gu@physx@@AEAVPxVec3@3@11AEAM@Z 00000001800cb5c0 f   GuMidphaseRTree.obj
 0001:000ca910       ?processHit@?$IntersectBoxVsMeshCallback@$00@?A0x2d395c54@@UEAA_NAEBUPxRaycastHit@physx@@AEBVPxVec3@4@11AEAMPEBI@Z 00000001800cb910 f   GuMidphaseRTree.obj
 0001:000cabd0       ?processHit@?$IntersectBoxVsMeshCallback@$0A@@?A0x2d395c54@@UEAA_NAEBUPxRaycastHit@physx@@AEBVPxVec3@4@11AEAMPEBI@Z 00000001800cbbd0 f   GuMidphaseRTree.obj
 0001:000caed0       ?processHit@?$IntersectCapsuleVsMeshCallback@$00@?A0x2d395c54@@UEAA_NAEBUPxRaycastHit@physx@@AEBVPxVec3@4@11AEAMPEBI@Z 00000001800cbed0 f   GuMidphaseRTree.obj
 0001:000caff0       ?processHit@?$IntersectCapsuleVsMeshCallback@$0A@@?A0x2d395c54@@UEAA_NAEBUPxRaycastHit@physx@@AEBVPxVec3@4@11AEAMPEBI@Z 00000001800cbff0 f   GuMidphaseRTree.obj
 0001:000cb390       ?processHit@?$IntersectSphereVsMeshCallback@$00@?A0x2d395c54@@UEAA_NAEBUPxRaycastHit@physx@@AEBVPxVec3@4@11AEAMPEBI@Z 00000001800cc390 f   GuMidphaseRTree.obj
 0001:000cb4b0       ?processHit@?$IntersectSphereVsMeshCallback@$0A@@?A0x2d395c54@@UEAA_NAEBUPxRaycastHit@physx@@AEBVPxVec3@4@11AEAMPEBI@Z 00000001800cc4b0 f   GuMidphaseRTree.obj
 0001:000d7700       ?sweepSphereTriangle@@YA_NAEBVPxTriangle@physx@@AEBVPxVec3@2@M1MAEAUPxSweepHit@2@AEAV32@V?$PxFlags@W4Enum@PxHitFlag@physx@@G@2@_N@Z 00000001800d8700 f   GuSweepsMesh.obj
 0001:000da030       ?BuildBV32Internal@@YA_NAEAVBV32Tree@Gu@physx@@AEBVAABBTree@23@PEAVSourceMesh@23@M@Z 00000001800db030 f   GuBV32Build.obj
 0001:000da4d0       ?_BuildBV32@@YAXAEBVAABBTree@Gu@physx@@PEAUBV32Node@@PEBVAABBTreeNode@23@MAEAI@Z 00000001800db4d0 f   GuBV32Build.obj
 0001:000da670       ?_Flatten@Local@?8??BuildBV32Internal@@YA_NAEAVBV32Tree@Gu@physx@@AEBVAABBTree@45@PEAVSourceMesh@45@M@Z@SAXQEAUBV32Data@45@IAEAIPEBUBV32Node@@44I@Z 00000001800db670 f   GuBV32Build.obj
 0001:000da890       ?fillInNodes@@YAXPEBVAABBTreeNode@Gu@physx@@IIPEAPEBV123@AEAI@Z 00000001800db890 f   GuBV32Build.obj
 0001:000da950       ?gReorderCallback@@YA_NPEBVAABBTreeNode@Gu@physx@@IPEAX@Z 00000001800db950 f   GuBV32Build.obj
 0001:000da9a0       ?setNode@@YAPEAUBV32Node@@AEBVAABBTree@Gu@physx@@PEAU1@IPEBVAABBTreeNode@34@M@Z 00000001800db9a0 f   GuBV32Build.obj
 0001:000dabf0       ?calculateContacts@Gu@physx@@YAXAEBT__m128@@0PEAT3@00PEAVPersistentContact@12@AEAI0@Z 00000001800dbbf0 f   GuPCMContactBoxBox.obj
 0001:000db8f0       ?doBoxBoxGenerateContacts@Gu@physx@@YAIAEBT__m128@@0AEBVPsMatTransformV@aos@shdfnd@2@10PEAVPersistentContact@12@AEAI@Z 00000001800dc8f0 f   GuPCMContactBoxBox.obj
 0001:000dd454       $LN1847                    00000001800de454     GuPCMContactBoxBox.obj
 0001:000dd470       ?getIncidentPolygon@Gu@physx@@YAXPEAT__m128@@AEAT3@AEBT3@AEBVPsMatTransformV@aos@shdfnd@2@2@Z 00000001800de470 f   GuPCMContactBoxBox.obj
 0001:000dfa00       ?fullContactsGenerationBoxConvex@Gu@physx@@YA_NPEBUGjkConvex@12@0AEBVPsTransformV@aos@shdfnd@2@1PEAVPersistentContact@12@AEAVContactBuffer@12@AEAVPersistentContactManifold@12@AEAT__m128@@AEBT__m128@@66_N7PEAVRenderOutput@Cm@2@M@Z 00000001800e0a00 f   GuPCMContactBoxConvex.obj
 0001:000dfd70       ?generateOrProcessContactsBoxConvex@Gu@physx@@YA_NPEBUGjkConvex@12@0AEBVPsTransformV@aos@shdfnd@2@1AEBVPsMatTransformV@562@W4GjkStatus@12@AEAUGjkOutput@12@AEAVPersistentContactManifold@12@AEAVContactBuffer@12@IT__m128@@7_NMPEAVRenderOutput@Cm@2@@Z 00000001800e0d70 f   GuPCMContactBoxConvex.obj
 0001:000e3ce0       ?fullContactsGenerationCapsuleConvex@Gu@physx@@YA_NAEBVCapsuleV@12@AEBVConvexHullV@12@AEBVPsMatTransformV@aos@shdfnd@2@AEBVPsTransformV@672@3PEAVPersistentContact@12@AEAVContactBuffer@12@_NAEAVPersistentContactManifold@12@AEAT__m128@@AEBT__m128@@M96PEAVRenderOutput@Cm@2@M@Z 00000001800e4ce0 f   GuPCMContactCapsuleConvex.obj
 0001:000eab20       ?pcmDistancePointTriangleSquared@Gu@physx@@YA?AT__m128@@AEBT3@000EAEAT3@AEA_N2@Z 00000001800ebb20 f   GuPCMContactConvexCommon.obj
 0001:000f16e0       ?convexHullHasScale0@Gu@physx@@YA_NAEBVConvexHullV@12@0AEBVPsTransformV@aos@shdfnd@2@1AEBVPsMatTransformV@562@AEAUGjkOutput@12@AEAVPersistentContactManifold@12@AEAVContactBuffer@12@IT__m128@@6_NMPEAVRenderOutput@Cm@2@@Z 00000001800f26e0 f   GuPCMContactConvexConvex.obj
 0001:000f18c0       ?convexHullNoScale0@Gu@physx@@YA_NAEBVConvexHullV@12@0AEBVPsTransformV@aos@shdfnd@2@1AEBVPsMatTransformV@562@AEAUGjkOutput@12@AEAVPersistentContactManifold@12@AEAVContactBuffer@12@IT__m128@@6_NMPEAVRenderOutput@Cm@2@@Z 00000001800f28c0 f   GuPCMContactConvexConvex.obj
 0001:000f1aa0       ?fullContactsGenerationConvexConvex@Gu@physx@@YA_NPEBUGjkConvex@12@0AEBVPsTransformV@aos@shdfnd@2@1_N2PEAVPersistentContact@12@AEAVContactBuffer@12@AEAVPersistentContactManifold@12@AEAT__m128@@AEBT__m128@@772PEAVRenderOutput@Cm@2@M@Z 00000001800f2aa0 f   GuPCMContactConvexConvex.obj
 0001:000f1dc0       ?generateOrProcessContactsConvexConvex@Gu@physx@@YA_NPEBUGjkConvex@12@0AEBVPsTransformV@aos@shdfnd@2@1AEBVPsMatTransformV@562@W4GjkStatus@12@AEAUGjkOutput@12@AEAVPersistentContactManifold@12@AEAVContactBuffer@12@IT__m128@@7_N8MPEAVRenderOutput@Cm@2@@Z 00000001800f2dc0 f   GuPCMContactConvexConvex.obj
 0001:000f9ad0       ?testEdgeNormal@Gu@physx@@YA_NAEBUPolygonalData@12@0PEAVSupportLocal@12@1AEBVPsMatTransformV@aos@shdfnd@2@2AEBT__m128@@AEAT8@4W4FeatureStatus@12@AEAW4912@@Z 00000001800faad0 f   GuPCMContactGenBoxConvex.obj
 0001:000fa030       ?testFaceNormal@Gu@physx@@YA_NAEBUPolygonalData@12@0PEAVSupportLocal@12@1AEBVPsMatTransformV@aos@shdfnd@2@2AEBT__m128@@AEAT8@AEAI4W4FeatureStatus@12@AEAW4912@@Z 00000001800fb030 f   GuPCMContactGenBoxConvex.obj
 0001:000fc5c0       ?generatedFaceContacts@Gu@physx@@YAXAEBVCapsuleV@12@AEAUPolygonalData@12@PEAVSupportLocal@12@AEBVPsMatTransformV@aos@shdfnd@2@PEAVPersistentContact@12@AEAIAEBT__m128@@6@Z 00000001800fd5c0 f   GuPCMContactGenSphereCapsule.obj
 0001:000fca40       ?testSATCapsulePoly@Gu@physx@@YA_NAEBVCapsuleV@12@AEBUPolygonalData@12@PEAVSupportLocal@12@AEBT__m128@@AEAT6@4@Z 00000001800fda40 f   GuPCMContactGenSphereCapsule.obj
 0001:000ff200       ?fullContactsGenerationSphereConvex@Gu@physx@@YA_NAEBVCapsuleV@12@AEBVConvexHullV@12@AEBVPsTransformV@aos@shdfnd@2@2PEAVPersistentContact@12@AEAVContactBuffer@12@_NAEAVPersistentContactManifold@12@AEAT__m128@@AEBT__m128@@_NPEAVRenderOutput@Cm@2@@Z 0000000180100200 f   GuPCMContactSphereConvex.obj
 0001:00103940       ?generatedPolyContacts@physx@@YAXAEBUPolygonalData@Gu@1@AEBUHullPolygonData@31@AEBVTriangleV@31@IEPEAVSupportLocal@31@PEAVMeshPersistentContact@31@AEAIAEBT__m128@@6PEAVRenderOutput@Cm@1@@Z 0000000180104940 f   GuPCMTriangleContactGen.obj
 0001:001045e0       ?generatedTriangleContacts@physx@@YAXAEBVTriangleV@Gu@1@IEAEBUPolygonalData@31@AEBUHullPolygonData@31@PEAVSupportLocal@31@PEAVMeshPersistentContact@31@AEAIAEBT__m128@@6PEAVRenderOutput@Cm@1@@Z 00000001801055e0 f   GuPCMTriangleContactGen.obj
 0001:00105370       ?testPolyEdgeNormal@physx@@YA_NAEBVTriangleV@Gu@1@EAEBUPolygonalData@31@PEAV?$SupportLocalImpl@VTriangleV@Gu@physx@@@31@PEAVSupportLocal@31@AEBT__m128@@AEAT7@5W4FeatureStatus@31@AEAW4831@@Z 0000000180106370 f   GuPCMTriangleContactGen.obj
 0001:00105890       ?testPolyFaceNormal@physx@@YA_NAEBVTriangleV@Gu@1@AEBUPolygonalData@31@PEAV?$SupportLocalImpl@VTriangleV@Gu@physx@@@31@PEAVSupportLocal@31@AEBT__m128@@AEAT7@AEAI5W4FeatureStatus@31@AEAW4831@@Z 0000000180106890 f   GuPCMTriangleContactGen.obj
 0001:00105d30       ?addBatchManifoldContactsToSingleManifold@@YA?AT__m128@@PEAVSinglePersistentContactManifold@Gu@physx@@PEAVMeshPersistentContact@34@IPEAUPCMContactPatch@34@AEBT1@E@Z 0000000180106d30 f   GuPersistentContactManifold.obj
 0001:00106fb0       ?distancePointTriangleSquaredLocal@Gu@physx@@YA?AT__m128@@AEBT3@000@Z 0000000180107fb0 f   GuPersistentContactManifold.obj
 0001:00107560       ?drawManifoldPoint@@YAXAEBVPersistentContact@Gu@physx@@AEBVPsTransformV@aos@shdfnd@3@1AEAVRenderOutput@Cm@3@I@Z 0000000180108560 f   GuPersistentContactManifold.obj
 0001:0010c5e0       ?inflateTriangle@@YA?AVPxTriangle@physx@@AEBV12@M@Z 000000018010d5e0 f   GuSweepBoxTriangle_FeatureBased.obj
 0001:0010e760       ?extrudeBox@@YAIAEBVPxBounds3@physx@@PEBVPxTransform@2@AEBVPxVec3@2@PEAVPxTriangle@2@2@Z 000000018010f760 f   GuSweepCapsuleBox.obj
 0001:0010ecc0       ?extrudeMesh@@YAIIPEBVPxTriangle@physx@@AEBVPxVec3@2@PEAV12@PEAI1@Z 000000018010fcc0 f   GuSweepCapsuleBox.obj
 0001:0010fbb0       ?edgeEdgeDist@@YAXAEAVPxVec3@physx@@0AEBV12@111@Z 0000000180110bb0 f   GuSweepCapsuleCapsule.obj
 0001:001176c0       ?runBackupProcedure@@YA_NAEAVPxVec3@physx@@0AEBV12@1AEBVPxTriangle@2@@Z 00000001801186c0 f   GuSweepTriangleUtils.obj
 0001:00118100       $$000000                   0000000180119100     MSVCRT:chkstk.obj
 0001:00118170       $$000000                   0000000180119170     MSVCRT:svml_ssinf4_dispatch.obj
 0001:001181e8       ?dllmain_crt_dispatch@@YAHQEAUHINSTANCE__@@KQEAX@Z 00000001801191e8 f   MSVCRT:dll_dllmain.obj
 0001:00118238       ?dllmain_crt_process_attach@@YAHQEAUHINSTANCE__@@QEAX@Z 0000000180119238 f   MSVCRT:dll_dllmain.obj
 0001:00118350       ?dllmain_crt_process_detach@@YAH_N@Z 0000000180119350 f   MSVCRT:dll_dllmain.obj
 0001:001183d4       ?dllmain_dispatch@@YAHQEAUHINSTANCE__@@KQEAX@Z 00000001801193d4 f   MSVCRT:dll_dllmain.obj
 0001:001186f0       $$000000                   00000001801196f0     MSVCRT:svml_ssinf4_sse2.obj
 0001:00119030       $$000000                   000000018011a030     MSVCRT:svml_ssinf4_sse4.obj
 0001:00119da0       $$000000                   000000018011ada0     MSVCRT:svml_s_sin_cout.obj
 0001:00119ea0       $$000000                   000000018011aea0     MSVCRT:guard_dispatch.obj
 0001:00119ec0       $$000000                   000000018011aec0     MSVCRT:guard_xfg_dispatch.obj
 0001:00119ed6       ?fin$0@?0??dllmain_crt_process_attach@@YAHQEAUHINSTANCE__@@QEAX@Z@4HA 000000018011aed6 f   MSVCRT:dll_dllmain.obj
 0001:00119eed       ?fin$0@?0??dllmain_crt_process_detach@@YAH_N@Z@4HA 000000018011aeed f   MSVCRT:dll_dllmain.obj
 0001:00119f06       ?fin$1@?0??dllmain_crt_process_detach@@YAH_N@Z@4HA 000000018011af06 f   MSVCRT:dll_dllmain.obj
 0001:00119f1a       ?filt$0@?0??dllmain_dispatch@@YAHQEAUHINSTANCE__@@KQEAX@Z@4HA 000000018011af1a f   MSVCRT:dll_dllmain.obj
 0001:00119f50       __scrt_is_nonwritable_in_current_image$filt$0 000000018011af50 f   MSVCRT:utility.obj
 0002:000001b8       ?minFError$initializer$@_VecMathTests@aos@shdfnd@physx@@3P6AXXZEA 000000018011b1b8     GuBounds.obj
 0002:000001c0       ?maxFError$initializer$@_VecMathTests@aos@shdfnd@physx@@3P6AXXZEA 000000018011b1c0     GuBounds.obj
 0002:000001c8       ?minV3Error$initializer$@_VecMathTests@aos@shdfnd@physx@@3P6AXXZEA 000000018011b1c8     GuBounds.obj
 0002:000001d0       ?maxV3Error$initializer$@_VecMathTests@aos@shdfnd@physx@@3P6AXXZEA 000000018011b1d0     GuBounds.obj
 0002:000001d8       ?minV4Error$initializer$@_VecMathTests@aos@shdfnd@physx@@3P6AXXZEA 000000018011b1d8     GuBounds.obj
 0002:000001e0       ?maxV4Error$initializer$@_VecMathTests@aos@shdfnd@physx@@3P6AXXZEA 000000018011b1e0     GuBounds.obj
 0002:000001e8       ?minFError$initializer$@_VecMathTests@aos@shdfnd@physx@@3P6AXXZEA 000000018011b1e8     GuBox.obj
 0002:000001f0       ?maxFError$initializer$@_VecMathTests@aos@shdfnd@physx@@3P6AXXZEA 000000018011b1f0     GuBox.obj
 0002:000001f8       ?minV3Error$initializer$@_VecMathTests@aos@shdfnd@physx@@3P6AXXZEA 000000018011b1f8     GuBox.obj
 0002:00000200       ?maxV3Error$initializer$@_VecMathTests@aos@shdfnd@physx@@3P6AXXZEA 000000018011b200     GuBox.obj
 0002:00000208       ?minV4Error$initializer$@_VecMathTests@aos@shdfnd@physx@@3P6AXXZEA 000000018011b208     GuBox.obj
 0002:00000210       ?maxV4Error$initializer$@_VecMathTests@aos@shdfnd@physx@@3P6AXXZEA 000000018011b210     GuBox.obj
 0002:00000218       ?minFError$initializer$@_VecMathTests@aos@shdfnd@physx@@3P6AXXZEA 000000018011b218     GuCCTSweepTests.obj
 0002:00000220       ?maxFError$initializer$@_VecMathTests@aos@shdfnd@physx@@3P6AXXZEA 000000018011b220     GuCCTSweepTests.obj
 0002:00000228       ?minV3Error$initializer$@_VecMathTests@aos@shdfnd@physx@@3P6AXXZEA 000000018011b228     GuCCTSweepTests.obj
 0002:00000230       ?maxV3Error$initializer$@_VecMathTests@aos@shdfnd@physx@@3P6AXXZEA 000000018011b230     GuCCTSweepTests.obj
 0002:00000238       ?minV4Error$initializer$@_VecMathTests@aos@shdfnd@physx@@3P6AXXZEA 000000018011b238     GuCCTSweepTests.obj
 0002:00000240       ?maxV4Error$initializer$@_VecMathTests@aos@shdfnd@physx@@3P6AXXZEA 000000018011b240     GuCCTSweepTests.obj
 0002:00000248       ?minFError$initializer$@_VecMathTests@aos@shdfnd@physx@@3P6AXXZEA 000000018011b248     GuGeometryQuery.obj
 0002:00000250       ?maxFError$initializer$@_VecMathTests@aos@shdfnd@physx@@3P6AXXZEA 000000018011b250     GuGeometryQuery.obj
 0002:00000258       ?minV3Error$initializer$@_VecMathTests@aos@shdfnd@physx@@3P6AXXZEA 000000018011b258     GuGeometryQuery.obj
 0002:00000260       ?maxV3Error$initializer$@_VecMathTests@aos@shdfnd@physx@@3P6AXXZEA 000000018011b260     GuGeometryQuery.obj
 0002:00000268       ?minV4Error$initializer$@_VecMathTests@aos@shdfnd@physx@@3P6AXXZEA 000000018011b268     GuGeometryQuery.obj
 0002:00000270       ?maxV4Error$initializer$@_VecMathTests@aos@shdfnd@physx@@3P6AXXZEA 000000018011b270     GuGeometryQuery.obj
 0002:00000278       ?minFError$initializer$@_VecMathTests@aos@shdfnd@physx@@3P6AXXZEA 000000018011b278     GuGeometryUnion.obj
 0002:00000280       ?maxFError$initializer$@_VecMathTests@aos@shdfnd@physx@@3P6AXXZEA 000000018011b280     GuGeometryUnion.obj
 0002:00000288       ?minV3Error$initializer$@_VecMathTests@aos@shdfnd@physx@@3P6AXXZEA 000000018011b288     GuGeometryUnion.obj
 0002:00000290       ?maxV3Error$initializer$@_VecMathTests@aos@shdfnd@physx@@3P6AXXZEA 000000018011b290     GuGeometryUnion.obj
 0002:00000298       ?minV4Error$initializer$@_VecMathTests@aos@shdfnd@physx@@3P6AXXZEA 000000018011b298     GuGeometryUnion.obj
 0002:000002a0       ?maxV4Error$initializer$@_VecMathTests@aos@shdfnd@physx@@3P6AXXZEA 000000018011b2a0     GuGeometryUnion.obj
 0002:000002a8       ?minFError$initializer$@_VecMathTests@aos@shdfnd@physx@@3P6AXXZEA 000000018011b2a8     GuInternal.obj
 0002:000002b0       ?maxFError$initializer$@_VecMathTests@aos@shdfnd@physx@@3P6AXXZEA 000000018011b2b0     GuInternal.obj
 0002:000002b8       ?minV3Error$initializer$@_VecMathTests@aos@shdfnd@physx@@3P6AXXZEA 000000018011b2b8     GuInternal.obj
 0002:000002c0       ?maxV3Error$initializer$@_VecMathTests@aos@shdfnd@physx@@3P6AXXZEA 000000018011b2c0     GuInternal.obj
 0002:000002c8       ?minV4Error$initializer$@_VecMathTests@aos@shdfnd@physx@@3P6AXXZEA 000000018011b2c8     GuInternal.obj
 0002:000002d0       ?maxV4Error$initializer$@_VecMathTests@aos@shdfnd@physx@@3P6AXXZEA 000000018011b2d0     GuInternal.obj
 0002:000002d8       ?minFError$initializer$@_VecMathTests@aos@shdfnd@physx@@3P6AXXZEA 000000018011b2d8     GuMeshFactory.obj
 0002:000002e0       ?maxFError$initializer$@_VecMathTests@aos@shdfnd@physx@@3P6AXXZEA 000000018011b2e0     GuMeshFactory.obj
 0002:000002e8       ?minV3Error$initializer$@_VecMathTests@aos@shdfnd@physx@@3P6AXXZEA 000000018011b2e8     GuMeshFactory.obj
 0002:000002f0       ?maxV3Error$initializer$@_VecMathTests@aos@shdfnd@physx@@3P6AXXZEA 000000018011b2f0     GuMeshFactory.obj
 0002:000002f8       ?minV4Error$initializer$@_VecMathTests@aos@shdfnd@physx@@3P6AXXZEA 000000018011b2f8     GuMeshFactory.obj
 0002:00000300       ?maxV4Error$initializer$@_VecMathTests@aos@shdfnd@physx@@3P6AXXZEA 000000018011b300     GuMeshFactory.obj
 0002:00000308       ?minFError$initializer$@_VecMathTests@aos@shdfnd@physx@@3P6AXXZEA 000000018011b308     GuMetaData.obj
 0002:00000310       ?maxFError$initializer$@_VecMathTests@aos@shdfnd@physx@@3P6AXXZEA 000000018011b310     GuMetaData.obj
 0002:00000318       ?minV3Error$initializer$@_VecMathTests@aos@shdfnd@physx@@3P6AXXZEA 000000018011b318     GuMetaData.obj
 0002:00000320       ?maxV3Error$initializer$@_VecMathTests@aos@shdfnd@physx@@3P6AXXZEA 000000018011b320     GuMetaData.obj
 0002:00000328       ?minV4Error$initializer$@_VecMathTests@aos@shdfnd@physx@@3P6AXXZEA 000000018011b328     GuMetaData.obj
 0002:00000330       ?maxV4Error$initializer$@_VecMathTests@aos@shdfnd@physx@@3P6AXXZEA 000000018011b330     GuMetaData.obj
 0002:00000338       ?minFError$initializer$@_VecMathTests@aos@shdfnd@physx@@3P6AXXZEA 000000018011b338     GuMTD.obj
 0002:00000340       ?maxFError$initializer$@_VecMathTests@aos@shdfnd@physx@@3P6AXXZEA 000000018011b340     GuMTD.obj
 0002:00000348       ?minV3Error$initializer$@_VecMathTests@aos@shdfnd@physx@@3P6AXXZEA 000000018011b348     GuMTD.obj
 0002:00000350       ?maxV3Error$initializer$@_VecMathTests@aos@shdfnd@physx@@3P6AXXZEA 000000018011b350     GuMTD.obj
 0002:00000358       ?minV4Error$initializer$@_VecMathTests@aos@shdfnd@physx@@3P6AXXZEA 000000018011b358     GuMTD.obj
 0002:00000360       ?maxV4Error$initializer$@_VecMathTests@aos@shdfnd@physx@@3P6AXXZEA 000000018011b360     GuMTD.obj
 0002:00000368       ?minFError$initializer$@_VecMathTests@aos@shdfnd@physx@@3P6AXXZEA 000000018011b368     GuOverlapTests.obj
 0002:00000370       ?maxFError$initializer$@_VecMathTests@aos@shdfnd@physx@@3P6AXXZEA 000000018011b370     GuOverlapTests.obj
 0002:00000378       ?minV3Error$initializer$@_VecMathTests@aos@shdfnd@physx@@3P6AXXZEA 000000018011b378     GuOverlapTests.obj
 0002:00000380       ?maxV3Error$initializer$@_VecMathTests@aos@shdfnd@physx@@3P6AXXZEA 000000018011b380     GuOverlapTests.obj
 0002:00000388       ?minV4Error$initializer$@_VecMathTests@aos@shdfnd@physx@@3P6AXXZEA 000000018011b388     GuOverlapTests.obj
 0002:00000390       ?maxV4Error$initializer$@_VecMathTests@aos@shdfnd@physx@@3P6AXXZEA 000000018011b390     GuOverlapTests.obj
 0002:00000398       ?minFError$initializer$@_VecMathTests@aos@shdfnd@physx@@3P6AXXZEA 000000018011b398     GuRaycastTests.obj
 0002:000003a0       ?maxFError$initializer$@_VecMathTests@aos@shdfnd@physx@@3P6AXXZEA 000000018011b3a0     GuRaycastTests.obj
 0002:000003a8       ?minV3Error$initializer$@_VecMathTests@aos@shdfnd@physx@@3P6AXXZEA 000000018011b3a8     GuRaycastTests.obj
 0002:000003b0       ?maxV3Error$initializer$@_VecMathTests@aos@shdfnd@physx@@3P6AXXZEA 000000018011b3b0     GuRaycastTests.obj
 0002:000003b8       ?minV4Error$initializer$@_VecMathTests@aos@shdfnd@physx@@3P6AXXZEA 000000018011b3b8     GuRaycastTests.obj
 0002:000003c0       ?maxV4Error$initializer$@_VecMathTests@aos@shdfnd@physx@@3P6AXXZEA 000000018011b3c0     GuRaycastTests.obj
 0002:000003c8       ?minFError$initializer$@_VecMathTests@aos@shdfnd@physx@@3P6AXXZEA 000000018011b3c8     GuSweepMTD.obj
 0002:000003d0       ?maxFError$initializer$@_VecMathTests@aos@shdfnd@physx@@3P6AXXZEA 000000018011b3d0     GuSweepMTD.obj
 0002:000003d8       ?minV3Error$initializer$@_VecMathTests@aos@shdfnd@physx@@3P6AXXZEA 000000018011b3d8     GuSweepMTD.obj
 0002:000003e0       ?maxV3Error$initializer$@_VecMathTests@aos@shdfnd@physx@@3P6AXXZEA 000000018011b3e0     GuSweepMTD.obj
 0002:000003e8       ?minV4Error$initializer$@_VecMathTests@aos@shdfnd@physx@@3P6AXXZEA 000000018011b3e8     GuSweepMTD.obj
 0002:000003f0       ?maxV4Error$initializer$@_VecMathTests@aos@shdfnd@physx@@3P6AXXZEA 000000018011b3f0     GuSweepMTD.obj
 0002:000003f8       ?minFError$initializer$@_VecMathTests@aos@shdfnd@physx@@3P6AXXZEA 000000018011b3f8     GuSweepSharedTests.obj
 0002:00000400       ?maxFError$initializer$@_VecMathTests@aos@shdfnd@physx@@3P6AXXZEA 000000018011b400     GuSweepSharedTests.obj
 0002:00000408       ?minV3Error$initializer$@_VecMathTests@aos@shdfnd@physx@@3P6AXXZEA 000000018011b408     GuSweepSharedTests.obj
 0002:00000410       ?maxV3Error$initializer$@_VecMathTests@aos@shdfnd@physx@@3P6AXXZEA 000000018011b410     GuSweepSharedTests.obj
 0002:00000418       ?minV4Error$initializer$@_VecMathTests@aos@shdfnd@physx@@3P6AXXZEA 000000018011b418     GuSweepSharedTests.obj
 0002:00000420       ?maxV4Error$initializer$@_VecMathTests@aos@shdfnd@physx@@3P6AXXZEA 000000018011b420     GuSweepSharedTests.obj
 0002:00000428       ?minFError$initializer$@_VecMathTests@aos@shdfnd@physx@@3P6AXXZEA 000000018011b428     GuSweepTests.obj
 0002:00000430       ?maxFError$initializer$@_VecMathTests@aos@shdfnd@physx@@3P6AXXZEA 000000018011b430     GuSweepTests.obj
 0002:00000438       ?minV3Error$initializer$@_VecMathTests@aos@shdfnd@physx@@3P6AXXZEA 000000018011b438     GuSweepTests.obj
 0002:00000440       ?maxV3Error$initializer$@_VecMathTests@aos@shdfnd@physx@@3P6AXXZEA 000000018011b440     GuSweepTests.obj
 0002:00000448       ?minV4Error$initializer$@_VecMathTests@aos@shdfnd@physx@@3P6AXXZEA 000000018011b448     GuSweepTests.obj
 0002:00000450       ?maxV4Error$initializer$@_VecMathTests@aos@shdfnd@physx@@3P6AXXZEA 000000018011b450     GuSweepTests.obj
 0002:00000458       ?minFError$initializer$@_VecMathTests@aos@shdfnd@physx@@3P6AXXZEA 000000018011b458     GuAABBTreeBuild.obj
 0002:00000460       ?maxFError$initializer$@_VecMathTests@aos@shdfnd@physx@@3P6AXXZEA 000000018011b460     GuAABBTreeBuild.obj
 0002:00000468       ?minV3Error$initializer$@_VecMathTests@aos@shdfnd@physx@@3P6AXXZEA 000000018011b468     GuAABBTreeBuild.obj
 0002:00000470       ?maxV3Error$initializer$@_VecMathTests@aos@shdfnd@physx@@3P6AXXZEA 000000018011b470     GuAABBTreeBuild.obj
 0002:00000478       ?minV4Error$initializer$@_VecMathTests@aos@shdfnd@physx@@3P6AXXZEA 000000018011b478     GuAABBTreeBuild.obj
 0002:00000480       ?maxV4Error$initializer$@_VecMathTests@aos@shdfnd@physx@@3P6AXXZEA 000000018011b480     GuAABBTreeBuild.obj
 0002:00000488       ?minFError$initializer$@_VecMathTests@aos@shdfnd@physx@@3P6AXXZEA 000000018011b488     GuBVHStructure.obj
 0002:00000490       ?maxFError$initializer$@_VecMathTests@aos@shdfnd@physx@@3P6AXXZEA 000000018011b490     GuBVHStructure.obj
 0002:00000498       ?minV3Error$initializer$@_VecMathTests@aos@shdfnd@physx@@3P6AXXZEA 000000018011b498     GuBVHStructure.obj
 0002:000004a0       ?maxV3Error$initializer$@_VecMathTests@aos@shdfnd@physx@@3P6AXXZEA 000000018011b4a0     GuBVHStructure.obj
 0002:000004a8       ?minV4Error$initializer$@_VecMathTests@aos@shdfnd@physx@@3P6AXXZEA 000000018011b4a8     GuBVHStructure.obj
 0002:000004b0       ?maxV4Error$initializer$@_VecMathTests@aos@shdfnd@physx@@3P6AXXZEA 000000018011b4b0     GuBVHStructure.obj
 0002:000004b8       ?minFError$initializer$@_VecMathTests@aos@shdfnd@physx@@3P6AXXZEA 000000018011b4b8     GuCCDSweepConvexMesh.obj
 0002:000004c0       ?maxFError$initializer$@_VecMathTests@aos@shdfnd@physx@@3P6AXXZEA 000000018011b4c0     GuCCDSweepConvexMesh.obj
 0002:000004c8       ?minV3Error$initializer$@_VecMathTests@aos@shdfnd@physx@@3P6AXXZEA 000000018011b4c8     GuCCDSweepConvexMesh.obj
 0002:000004d0       ?maxV3Error$initializer$@_VecMathTests@aos@shdfnd@physx@@3P6AXXZEA 000000018011b4d0     GuCCDSweepConvexMesh.obj
 0002:000004d8       ?minV4Error$initializer$@_VecMathTests@aos@shdfnd@physx@@3P6AXXZEA 000000018011b4d8     GuCCDSweepConvexMesh.obj
 0002:000004e0       ?maxV4Error$initializer$@_VecMathTests@aos@shdfnd@physx@@3P6AXXZEA 000000018011b4e0     GuCCDSweepConvexMesh.obj
 0002:000004e8       ?minFError$initializer$@_VecMathTests@aos@shdfnd@physx@@3P6AXXZEA 000000018011b4e8     GuCCDSweepPrimitives.obj
 0002:000004f0       ?maxFError$initializer$@_VecMathTests@aos@shdfnd@physx@@3P6AXXZEA 000000018011b4f0     GuCCDSweepPrimitives.obj
 0002:000004f8       ?minV3Error$initializer$@_VecMathTests@aos@shdfnd@physx@@3P6AXXZEA 000000018011b4f8     GuCCDSweepPrimitives.obj
 0002:00000500       ?maxV3Error$initializer$@_VecMathTests@aos@shdfnd@physx@@3P6AXXZEA 000000018011b500     GuCCDSweepPrimitives.obj
 0002:00000508       ?minV4Error$initializer$@_VecMathTests@aos@shdfnd@physx@@3P6AXXZEA 000000018011b508     GuCCDSweepPrimitives.obj
 0002:00000510       ?maxV4Error$initializer$@_VecMathTests@aos@shdfnd@physx@@3P6AXXZEA 000000018011b510     GuCCDSweepPrimitives.obj
 0002:00000518       ?minFError$initializer$@_VecMathTests@aos@shdfnd@physx@@3P6AXXZEA 000000018011b518     GuBarycentricCoordinates.obj
 0002:00000520       ?maxFError$initializer$@_VecMathTests@aos@shdfnd@physx@@3P6AXXZEA 000000018011b520     GuBarycentricCoordinates.obj
 0002:00000528       ?minV3Error$initializer$@_VecMathTests@aos@shdfnd@physx@@3P6AXXZEA 000000018011b528     GuBarycentricCoordinates.obj
 0002:00000530       ?maxV3Error$initializer$@_VecMathTests@aos@shdfnd@physx@@3P6AXXZEA 000000018011b530     GuBarycentricCoordinates.obj
 0002:00000538       ?minV4Error$initializer$@_VecMathTests@aos@shdfnd@physx@@3P6AXXZEA 000000018011b538     GuBarycentricCoordinates.obj
 0002:00000540       ?maxV4Error$initializer$@_VecMathTests@aos@shdfnd@physx@@3P6AXXZEA 000000018011b540     GuBarycentricCoordinates.obj
 0002:00000548       ?minFError$initializer$@_VecMathTests@aos@shdfnd@physx@@3P6AXXZEA 000000018011b548     GuContactBoxBox.obj
 0002:00000550       ?maxFError$initializer$@_VecMathTests@aos@shdfnd@physx@@3P6AXXZEA 000000018011b550     GuContactBoxBox.obj
 0002:00000558       ?minV3Error$initializer$@_VecMathTests@aos@shdfnd@physx@@3P6AXXZEA 000000018011b558     GuContactBoxBox.obj
 0002:00000560       ?maxV3Error$initializer$@_VecMathTests@aos@shdfnd@physx@@3P6AXXZEA 000000018011b560     GuContactBoxBox.obj
 0002:00000568       ?minV4Error$initializer$@_VecMathTests@aos@shdfnd@physx@@3P6AXXZEA 000000018011b568     GuContactBoxBox.obj
 0002:00000570       ?maxV4Error$initializer$@_VecMathTests@aos@shdfnd@physx@@3P6AXXZEA 000000018011b570     GuContactBoxBox.obj
 0002:00000578       ?minFError$initializer$@_VecMathTests@aos@shdfnd@physx@@3P6AXXZEA 000000018011b578     GuContactCapsuleBox.obj
 0002:00000580       ?maxFError$initializer$@_VecMathTests@aos@shdfnd@physx@@3P6AXXZEA 000000018011b580     GuContactCapsuleBox.obj
 0002:00000588       ?minV3Error$initializer$@_VecMathTests@aos@shdfnd@physx@@3P6AXXZEA 000000018011b588     GuContactCapsuleBox.obj
 0002:00000590       ?maxV3Error$initializer$@_VecMathTests@aos@shdfnd@physx@@3P6AXXZEA 000000018011b590     GuContactCapsuleBox.obj
 0002:00000598       ?minV4Error$initializer$@_VecMathTests@aos@shdfnd@physx@@3P6AXXZEA 000000018011b598     GuContactCapsuleBox.obj
 0002:000005a0       ?maxV4Error$initializer$@_VecMathTests@aos@shdfnd@physx@@3P6AXXZEA 000000018011b5a0     GuContactCapsuleBox.obj
 0002:000005a8       ?minFError$initializer$@_VecMathTests@aos@shdfnd@physx@@3P6AXXZEA 000000018011b5a8     GuContactCapsuleCapsule.obj
 0002:000005b0       ?maxFError$initializer$@_VecMathTests@aos@shdfnd@physx@@3P6AXXZEA 000000018011b5b0     GuContactCapsuleCapsule.obj
 0002:000005b8       ?minV3Error$initializer$@_VecMathTests@aos@shdfnd@physx@@3P6AXXZEA 000000018011b5b8     GuContactCapsuleCapsule.obj
 0002:000005c0       ?maxV3Error$initializer$@_VecMathTests@aos@shdfnd@physx@@3P6AXXZEA 000000018011b5c0     GuContactCapsuleCapsule.obj
 0002:000005c8       ?minV4Error$initializer$@_VecMathTests@aos@shdfnd@physx@@3P6AXXZEA 000000018011b5c8     GuContactCapsuleCapsule.obj
 0002:000005d0       ?maxV4Error$initializer$@_VecMathTests@aos@shdfnd@physx@@3P6AXXZEA 000000018011b5d0     GuContactCapsuleCapsule.obj
 0002:000005d8       ?minFError$initializer$@_VecMathTests@aos@shdfnd@physx@@3P6AXXZEA 000000018011b5d8     GuContactCapsuleConvex.obj
 0002:000005e0       ?maxFError$initializer$@_VecMathTests@aos@shdfnd@physx@@3P6AXXZEA 000000018011b5e0     GuContactCapsuleConvex.obj
 0002:000005e8       ?minV3Error$initializer$@_VecMathTests@aos@shdfnd@physx@@3P6AXXZEA 000000018011b5e8     GuContactCapsuleConvex.obj
 0002:000005f0       ?maxV3Error$initializer$@_VecMathTests@aos@shdfnd@physx@@3P6AXXZEA 000000018011b5f0     GuContactCapsuleConvex.obj
 0002:000005f8       ?minV4Error$initializer$@_VecMathTests@aos@shdfnd@physx@@3P6AXXZEA 000000018011b5f8     GuContactCapsuleConvex.obj
 0002:00000600       ?maxV4Error$initializer$@_VecMathTests@aos@shdfnd@physx@@3P6AXXZEA 000000018011b600     GuContactCapsuleConvex.obj
 0002:00000608       ?minFError$initializer$@_VecMathTests@aos@shdfnd@physx@@3P6AXXZEA 000000018011b608     GuContactCapsuleMesh.obj
 0002:00000610       ?maxFError$initializer$@_VecMathTests@aos@shdfnd@physx@@3P6AXXZEA 000000018011b610     GuContactCapsuleMesh.obj
 0002:00000618       ?minV3Error$initializer$@_VecMathTests@aos@shdfnd@physx@@3P6AXXZEA 000000018011b618     GuContactCapsuleMesh.obj
 0002:00000620       ?maxV3Error$initializer$@_VecMathTests@aos@shdfnd@physx@@3P6AXXZEA 000000018011b620     GuContactCapsuleMesh.obj
 0002:00000628       ?minV4Error$initializer$@_VecMathTests@aos@shdfnd@physx@@3P6AXXZEA 000000018011b628     GuContactCapsuleMesh.obj
 0002:00000630       ?maxV4Error$initializer$@_VecMathTests@aos@shdfnd@physx@@3P6AXXZEA 000000018011b630     GuContactCapsuleMesh.obj
 0002:00000638       ?minFError$initializer$@_VecMathTests@aos@shdfnd@physx@@3P6AXXZEA 000000018011b638     GuContactConvexConvex.obj
 0002:00000640       ?maxFError$initializer$@_VecMathTests@aos@shdfnd@physx@@3P6AXXZEA 000000018011b640     GuContactConvexConvex.obj
 0002:00000648       ?minV3Error$initializer$@_VecMathTests@aos@shdfnd@physx@@3P6AXXZEA 000000018011b648     GuContactConvexConvex.obj
 0002:00000650       ?maxV3Error$initializer$@_VecMathTests@aos@shdfnd@physx@@3P6AXXZEA 000000018011b650     GuContactConvexConvex.obj
 0002:00000658       ?minV4Error$initializer$@_VecMathTests@aos@shdfnd@physx@@3P6AXXZEA 000000018011b658     GuContactConvexConvex.obj
 0002:00000660       ?maxV4Error$initializer$@_VecMathTests@aos@shdfnd@physx@@3P6AXXZEA 000000018011b660     GuContactConvexConvex.obj
 0002:00000668       ?minFError$initializer$@_VecMathTests@aos@shdfnd@physx@@3P6AXXZEA 000000018011b668     GuContactConvexMesh.obj
 0002:00000670       ?maxFError$initializer$@_VecMathTests@aos@shdfnd@physx@@3P6AXXZEA 000000018011b670     GuContactConvexMesh.obj
 0002:00000678       ?minV3Error$initializer$@_VecMathTests@aos@shdfnd@physx@@3P6AXXZEA 000000018011b678     GuContactConvexMesh.obj
 0002:00000680       ?maxV3Error$initializer$@_VecMathTests@aos@shdfnd@physx@@3P6AXXZEA 000000018011b680     GuContactConvexMesh.obj
 0002:00000688       ?minV4Error$initializer$@_VecMathTests@aos@shdfnd@physx@@3P6AXXZEA 000000018011b688     GuContactConvexMesh.obj
 0002:00000690       ?maxV4Error$initializer$@_VecMathTests@aos@shdfnd@physx@@3P6AXXZEA 000000018011b690     GuContactConvexMesh.obj
 0002:00000698       ?minFError$initializer$@_VecMathTests@aos@shdfnd@physx@@3P6AXXZEA 000000018011b698     GuContactPlaneBox.obj
 0002:000006a0       ?maxFError$initializer$@_VecMathTests@aos@shdfnd@physx@@3P6AXXZEA 000000018011b6a0     GuContactPlaneBox.obj
 0002:000006a8       ?minV3Error$initializer$@_VecMathTests@aos@shdfnd@physx@@3P6AXXZEA 000000018011b6a8     GuContactPlaneBox.obj
 0002:000006b0       ?maxV3Error$initializer$@_VecMathTests@aos@shdfnd@physx@@3P6AXXZEA 000000018011b6b0     GuContactPlaneBox.obj
 0002:000006b8       ?minV4Error$initializer$@_VecMathTests@aos@shdfnd@physx@@3P6AXXZEA 000000018011b6b8     GuContactPlaneBox.obj
 0002:000006c0       ?maxV4Error$initializer$@_VecMathTests@aos@shdfnd@physx@@3P6AXXZEA 000000018011b6c0     GuContactPlaneBox.obj
 0002:000006c8       ?minFError$initializer$@_VecMathTests@aos@shdfnd@physx@@3P6AXXZEA 000000018011b6c8     GuContactPlaneCapsule.obj
 0002:000006d0       ?maxFError$initializer$@_VecMathTests@aos@shdfnd@physx@@3P6AXXZEA 000000018011b6d0     GuContactPlaneCapsule.obj
 0002:000006d8       ?minV3Error$initializer$@_VecMathTests@aos@shdfnd@physx@@3P6AXXZEA 000000018011b6d8     GuContactPlaneCapsule.obj
 0002:000006e0       ?maxV3Error$initializer$@_VecMathTests@aos@shdfnd@physx@@3P6AXXZEA 000000018011b6e0     GuContactPlaneCapsule.obj
 0002:000006e8       ?minV4Error$initializer$@_VecMathTests@aos@shdfnd@physx@@3P6AXXZEA 000000018011b6e8     GuContactPlaneCapsule.obj
 0002:000006f0       ?maxV4Error$initializer$@_VecMathTests@aos@shdfnd@physx@@3P6AXXZEA 000000018011b6f0     GuContactPlaneCapsule.obj
 0002:000006f8       ?minFError$initializer$@_VecMathTests@aos@shdfnd@physx@@3P6AXXZEA 000000018011b6f8     GuContactPlaneConvex.obj
 0002:00000700       ?maxFError$initializer$@_VecMathTests@aos@shdfnd@physx@@3P6AXXZEA 000000018011b700     GuContactPlaneConvex.obj
 0002:00000708       ?minV3Error$initializer$@_VecMathTests@aos@shdfnd@physx@@3P6AXXZEA 000000018011b708     GuContactPlaneConvex.obj
 0002:00000710       ?maxV3Error$initializer$@_VecMathTests@aos@shdfnd@physx@@3P6AXXZEA 000000018011b710     GuContactPlaneConvex.obj
 0002:00000718       ?minV4Error$initializer$@_VecMathTests@aos@shdfnd@physx@@3P6AXXZEA 000000018011b718     GuContactPlaneConvex.obj
 0002:00000720       ?maxV4Error$initializer$@_VecMathTests@aos@shdfnd@physx@@3P6AXXZEA 000000018011b720     GuContactPlaneConvex.obj
 0002:00000728       ?minFError$initializer$@_VecMathTests@aos@shdfnd@physx@@3P6AXXZEA 000000018011b728     GuContactSphereBox.obj
 0002:00000730       ?maxFError$initializer$@_VecMathTests@aos@shdfnd@physx@@3P6AXXZEA 000000018011b730     GuContactSphereBox.obj
 0002:00000738       ?minV3Error$initializer$@_VecMathTests@aos@shdfnd@physx@@3P6AXXZEA 000000018011b738     GuContactSphereBox.obj
 0002:00000740       ?maxV3Error$initializer$@_VecMathTests@aos@shdfnd@physx@@3P6AXXZEA 000000018011b740     GuContactSphereBox.obj
 0002:00000748       ?minV4Error$initializer$@_VecMathTests@aos@shdfnd@physx@@3P6AXXZEA 000000018011b748     GuContactSphereBox.obj
 0002:00000750       ?maxV4Error$initializer$@_VecMathTests@aos@shdfnd@physx@@3P6AXXZEA 000000018011b750     GuContactSphereBox.obj
 0002:00000758       ?minFError$initializer$@_VecMathTests@aos@shdfnd@physx@@3P6AXXZEA 000000018011b758     GuContactSphereCapsule.obj
 0002:00000760       ?maxFError$initializer$@_VecMathTests@aos@shdfnd@physx@@3P6AXXZEA 000000018011b760     GuContactSphereCapsule.obj
 0002:00000768       ?minV3Error$initializer$@_VecMathTests@aos@shdfnd@physx@@3P6AXXZEA 000000018011b768     GuContactSphereCapsule.obj
 0002:00000770       ?maxV3Error$initializer$@_VecMathTests@aos@shdfnd@physx@@3P6AXXZEA 000000018011b770     GuContactSphereCapsule.obj
 0002:00000778       ?minV4Error$initializer$@_VecMathTests@aos@shdfnd@physx@@3P6AXXZEA 000000018011b778     GuContactSphereCapsule.obj
 0002:00000780       ?maxV4Error$initializer$@_VecMathTests@aos@shdfnd@physx@@3P6AXXZEA 000000018011b780     GuContactSphereCapsule.obj
 0002:00000788       ?minFError$initializer$@_VecMathTests@aos@shdfnd@physx@@3P6AXXZEA 000000018011b788     GuContactSphereMesh.obj
 0002:00000790       ?maxFError$initializer$@_VecMathTests@aos@shdfnd@physx@@3P6AXXZEA 000000018011b790     GuContactSphereMesh.obj
 0002:00000798       ?minV3Error$initializer$@_VecMathTests@aos@shdfnd@physx@@3P6AXXZEA 000000018011b798     GuContactSphereMesh.obj
 0002:000007a0       ?maxV3Error$initializer$@_VecMathTests@aos@shdfnd@physx@@3P6AXXZEA 000000018011b7a0     GuContactSphereMesh.obj
 0002:000007a8       ?minV4Error$initializer$@_VecMathTests@aos@shdfnd@physx@@3P6AXXZEA 000000018011b7a8     GuContactSphereMesh.obj
 0002:000007b0       ?maxV4Error$initializer$@_VecMathTests@aos@shdfnd@physx@@3P6AXXZEA 000000018011b7b0     GuContactSphereMesh.obj
 0002:000007b8       ?minFError$initializer$@_VecMathTests@aos@shdfnd@physx@@3P6AXXZEA 000000018011b7b8     GuContactSpherePlane.obj
 0002:000007c0       ?maxFError$initializer$@_VecMathTests@aos@shdfnd@physx@@3P6AXXZEA 000000018011b7c0     GuContactSpherePlane.obj
 0002:000007c8       ?minV3Error$initializer$@_VecMathTests@aos@shdfnd@physx@@3P6AXXZEA 000000018011b7c8     GuContactSpherePlane.obj
 0002:000007d0       ?maxV3Error$initializer$@_VecMathTests@aos@shdfnd@physx@@3P6AXXZEA 000000018011b7d0     GuContactSpherePlane.obj
 0002:000007d8       ?minV4Error$initializer$@_VecMathTests@aos@shdfnd@physx@@3P6AXXZEA 000000018011b7d8     GuContactSpherePlane.obj
 0002:000007e0       ?maxV4Error$initializer$@_VecMathTests@aos@shdfnd@physx@@3P6AXXZEA 000000018011b7e0     GuContactSpherePlane.obj
 0002:000007e8       ?minFError$initializer$@_VecMathTests@aos@shdfnd@physx@@3P6AXXZEA 000000018011b7e8     GuContactSphereSphere.obj
 0002:000007f0       ?maxFError$initializer$@_VecMathTests@aos@shdfnd@physx@@3P6AXXZEA 000000018011b7f0     GuContactSphereSphere.obj
 0002:000007f8       ?minV3Error$initializer$@_VecMathTests@aos@shdfnd@physx@@3P6AXXZEA 000000018011b7f8     GuContactSphereSphere.obj
 0002:00000800       ?maxV3Error$initializer$@_VecMathTests@aos@shdfnd@physx@@3P6AXXZEA 000000018011b800     GuContactSphereSphere.obj
 0002:00000808       ?minV4Error$initializer$@_VecMathTests@aos@shdfnd@physx@@3P6AXXZEA 000000018011b808     GuContactSphereSphere.obj
 0002:00000810       ?maxV4Error$initializer$@_VecMathTests@aos@shdfnd@physx@@3P6AXXZEA 000000018011b810     GuContactSphereSphere.obj
 0002:00000818       ?minFError$initializer$@_VecMathTests@aos@shdfnd@physx@@3P6AXXZEA 000000018011b818     GuConvexHelper.obj
 0002:00000820       ?maxFError$initializer$@_VecMathTests@aos@shdfnd@physx@@3P6AXXZEA 000000018011b820     GuConvexHelper.obj
 0002:00000828       ?minV3Error$initializer$@_VecMathTests@aos@shdfnd@physx@@3P6AXXZEA 000000018011b828     GuConvexHelper.obj
 0002:00000830       ?maxV3Error$initializer$@_VecMathTests@aos@shdfnd@physx@@3P6AXXZEA 000000018011b830     GuConvexHelper.obj
 0002:00000838       ?minV4Error$initializer$@_VecMathTests@aos@shdfnd@physx@@3P6AXXZEA 000000018011b838     GuConvexHelper.obj
 0002:00000840       ?maxV4Error$initializer$@_VecMathTests@aos@shdfnd@physx@@3P6AXXZEA 000000018011b840     GuConvexHelper.obj
 0002:00000848       ?minFError$initializer$@_VecMathTests@aos@shdfnd@physx@@3P6AXXZEA 000000018011b848     GuConvexSupportTable.obj
 0002:00000850       ?maxFError$initializer$@_VecMathTests@aos@shdfnd@physx@@3P6AXXZEA 000000018011b850     GuConvexSupportTable.obj
 0002:00000858       ?minV3Error$initializer$@_VecMathTests@aos@shdfnd@physx@@3P6AXXZEA 000000018011b858     GuConvexSupportTable.obj
 0002:00000860       ?maxV3Error$initializer$@_VecMathTests@aos@shdfnd@physx@@3P6AXXZEA 000000018011b860     GuConvexSupportTable.obj
 0002:00000868       ?minV4Error$initializer$@_VecMathTests@aos@shdfnd@physx@@3P6AXXZEA 000000018011b868     GuConvexSupportTable.obj
 0002:00000870       ?maxV4Error$initializer$@_VecMathTests@aos@shdfnd@physx@@3P6AXXZEA 000000018011b870     GuConvexSupportTable.obj
 0002:00000878       ?boxVertexTable$initializer$@physx@@3P6AXXZEA 000000018011b878     GuConvexSupportTable.obj
 0002:00000880       ?minFError$initializer$@_VecMathTests@aos@shdfnd@physx@@3P6AXXZEA 000000018011b880     GuConvexUtilsInternal.obj
 0002:00000888       ?maxFError$initializer$@_VecMathTests@aos@shdfnd@physx@@3P6AXXZEA 000000018011b888     GuConvexUtilsInternal.obj
 0002:00000890       ?minV3Error$initializer$@_VecMathTests@aos@shdfnd@physx@@3P6AXXZEA 000000018011b890     GuConvexUtilsInternal.obj
 0002:00000898       ?maxV3Error$initializer$@_VecMathTests@aos@shdfnd@physx@@3P6AXXZEA 000000018011b898     GuConvexUtilsInternal.obj
 0002:000008a0       ?minV4Error$initializer$@_VecMathTests@aos@shdfnd@physx@@3P6AXXZEA 000000018011b8a0     GuConvexUtilsInternal.obj
 0002:000008a8       ?maxV4Error$initializer$@_VecMathTests@aos@shdfnd@physx@@3P6AXXZEA 000000018011b8a8     GuConvexUtilsInternal.obj
 0002:000008b0       ?minFError$initializer$@_VecMathTests@aos@shdfnd@physx@@3P6AXXZEA 000000018011b8b0     GuDistancePointTriangle.obj
 0002:000008b8       ?maxFError$initializer$@_VecMathTests@aos@shdfnd@physx@@3P6AXXZEA 000000018011b8b8     GuDistancePointTriangle.obj
 0002:000008c0       ?minV3Error$initializer$@_VecMathTests@aos@shdfnd@physx@@3P6AXXZEA 000000018011b8c0     GuDistancePointTriangle.obj
 0002:000008c8       ?maxV3Error$initializer$@_VecMathTests@aos@shdfnd@physx@@3P6AXXZEA 000000018011b8c8     GuDistancePointTriangle.obj
 0002:000008d0       ?minV4Error$initializer$@_VecMathTests@aos@shdfnd@physx@@3P6AXXZEA 000000018011b8d0     GuDistancePointTriangle.obj
 0002:000008d8       ?maxV4Error$initializer$@_VecMathTests@aos@shdfnd@physx@@3P6AXXZEA 000000018011b8d8     GuDistancePointTriangle.obj
 0002:000008e0       ?minFError$initializer$@_VecMathTests@aos@shdfnd@physx@@3P6AXXZEA 000000018011b8e0     GuDistanceSegmentSegment.obj
 0002:000008e8       ?maxFError$initializer$@_VecMathTests@aos@shdfnd@physx@@3P6AXXZEA 000000018011b8e8     GuDistanceSegmentSegment.obj
 0002:000008f0       ?minV3Error$initializer$@_VecMathTests@aos@shdfnd@physx@@3P6AXXZEA 000000018011b8f0     GuDistanceSegmentSegment.obj
 0002:000008f8       ?maxV3Error$initializer$@_VecMathTests@aos@shdfnd@physx@@3P6AXXZEA 000000018011b8f8     GuDistanceSegmentSegment.obj
 0002:00000900       ?minV4Error$initializer$@_VecMathTests@aos@shdfnd@physx@@3P6AXXZEA 000000018011b900     GuDistanceSegmentSegment.obj
 0002:00000908       ?maxV4Error$initializer$@_VecMathTests@aos@shdfnd@physx@@3P6AXXZEA 000000018011b908     GuDistanceSegmentSegment.obj
 0002:00000910       ?minFError$initializer$@_VecMathTests@aos@shdfnd@physx@@3P6AXXZEA 000000018011b910     GuDistanceSegmentTriangle.obj
 0002:00000918       ?maxFError$initializer$@_VecMathTests@aos@shdfnd@physx@@3P6AXXZEA 000000018011b918     GuDistanceSegmentTriangle.obj
 0002:00000920       ?minV3Error$initializer$@_VecMathTests@aos@shdfnd@physx@@3P6AXXZEA 000000018011b920     GuDistanceSegmentTriangle.obj
 0002:00000928       ?maxV3Error$initializer$@_VecMathTests@aos@shdfnd@physx@@3P6AXXZEA 000000018011b928     GuDistanceSegmentTriangle.obj
 0002:00000930       ?minV4Error$initializer$@_VecMathTests@aos@shdfnd@physx@@3P6AXXZEA 000000018011b930     GuDistanceSegmentTriangle.obj
 0002:00000938       ?maxV4Error$initializer$@_VecMathTests@aos@shdfnd@physx@@3P6AXXZEA 000000018011b938     GuDistanceSegmentTriangle.obj
 0002:00000940       ?minFError$initializer$@_VecMathTests@aos@shdfnd@physx@@3P6AXXZEA 000000018011b940     GuEPA.obj
 0002:00000948       ?maxFError$initializer$@_VecMathTests@aos@shdfnd@physx@@3P6AXXZEA 000000018011b948     GuEPA.obj
 0002:00000950       ?minV3Error$initializer$@_VecMathTests@aos@shdfnd@physx@@3P6AXXZEA 000000018011b950     GuEPA.obj
 0002:00000958       ?maxV3Error$initializer$@_VecMathTests@aos@shdfnd@physx@@3P6AXXZEA 000000018011b958     GuEPA.obj
 0002:00000960       ?minV4Error$initializer$@_VecMathTests@aos@shdfnd@physx@@3P6AXXZEA 000000018011b960     GuEPA.obj
 0002:00000968       ?maxV4Error$initializer$@_VecMathTests@aos@shdfnd@physx@@3P6AXXZEA 000000018011b968     GuEPA.obj
 0002:00000970       ?minFError$initializer$@_VecMathTests@aos@shdfnd@physx@@3P6AXXZEA 000000018011b970     GuGJKSimplex.obj
 0002:00000978       ?maxFError$initializer$@_VecMathTests@aos@shdfnd@physx@@3P6AXXZEA 000000018011b978     GuGJKSimplex.obj
 0002:00000980       ?minV3Error$initializer$@_VecMathTests@aos@shdfnd@physx@@3P6AXXZEA 000000018011b980     GuGJKSimplex.obj
 0002:00000988       ?maxV3Error$initializer$@_VecMathTests@aos@shdfnd@physx@@3P6AXXZEA 000000018011b988     GuGJKSimplex.obj
 0002:00000990       ?minV4Error$initializer$@_VecMathTests@aos@shdfnd@physx@@3P6AXXZEA 000000018011b990     GuGJKSimplex.obj
 0002:00000998       ?maxV4Error$initializer$@_VecMathTests@aos@shdfnd@physx@@3P6AXXZEA 000000018011b998     GuGJKSimplex.obj
 0002:000009a0       ?minFError$initializer$@_VecMathTests@aos@shdfnd@physx@@3P6AXXZEA 000000018011b9a0     GuGJKTest.obj
 0002:000009a8       ?maxFError$initializer$@_VecMathTests@aos@shdfnd@physx@@3P6AXXZEA 000000018011b9a8     GuGJKTest.obj
 0002:000009b0       ?minV3Error$initializer$@_VecMathTests@aos@shdfnd@physx@@3P6AXXZEA 000000018011b9b0     GuGJKTest.obj
 0002:000009b8       ?maxV3Error$initializer$@_VecMathTests@aos@shdfnd@physx@@3P6AXXZEA 000000018011b9b8     GuGJKTest.obj
 0002:000009c0       ?minV4Error$initializer$@_VecMathTests@aos@shdfnd@physx@@3P6AXXZEA 000000018011b9c0     GuGJKTest.obj
 0002:000009c8       ?maxV4Error$initializer$@_VecMathTests@aos@shdfnd@physx@@3P6AXXZEA 000000018011b9c8     GuGJKTest.obj
 0002:000009d0       ?minFError$initializer$@_VecMathTests@aos@shdfnd@physx@@3P6AXXZEA 000000018011b9d0     GuHeightFieldUtil.obj
 0002:000009d8       ?maxFError$initializer$@_VecMathTests@aos@shdfnd@physx@@3P6AXXZEA 000000018011b9d8     GuHeightFieldUtil.obj
 0002:000009e0       ?minV3Error$initializer$@_VecMathTests@aos@shdfnd@physx@@3P6AXXZEA 000000018011b9e0     GuHeightFieldUtil.obj
 0002:000009e8       ?maxV3Error$initializer$@_VecMathTests@aos@shdfnd@physx@@3P6AXXZEA 000000018011b9e8     GuHeightFieldUtil.obj
 0002:000009f0       ?minV4Error$initializer$@_VecMathTests@aos@shdfnd@physx@@3P6AXXZEA 000000018011b9f0     GuHeightFieldUtil.obj
 0002:000009f8       ?maxV4Error$initializer$@_VecMathTests@aos@shdfnd@physx@@3P6AXXZEA 000000018011b9f8     GuHeightFieldUtil.obj
 0002:00000a00       ?minFError$initializer$@_VecMathTests@aos@shdfnd@physx@@3P6AXXZEA 000000018011ba00     GuOverlapTestsHF.obj
 0002:00000a08       ?maxFError$initializer$@_VecMathTests@aos@shdfnd@physx@@3P6AXXZEA 000000018011ba08     GuOverlapTestsHF.obj
 0002:00000a10       ?minV3Error$initializer$@_VecMathTests@aos@shdfnd@physx@@3P6AXXZEA 000000018011ba10     GuOverlapTestsHF.obj
 0002:00000a18       ?maxV3Error$initializer$@_VecMathTests@aos@shdfnd@physx@@3P6AXXZEA 000000018011ba18     GuOverlapTestsHF.obj
 0002:00000a20       ?minV4Error$initializer$@_VecMathTests@aos@shdfnd@physx@@3P6AXXZEA 000000018011ba20     GuOverlapTestsHF.obj
 0002:00000a28       ?maxV4Error$initializer$@_VecMathTests@aos@shdfnd@physx@@3P6AXXZEA 000000018011ba28     GuOverlapTestsHF.obj
 0002:00000a30       ?minFError$initializer$@_VecMathTests@aos@shdfnd@physx@@3P6AXXZEA 000000018011ba30     GuSweepsHF.obj
 0002:00000a38       ?maxFError$initializer$@_VecMathTests@aos@shdfnd@physx@@3P6AXXZEA 000000018011ba38     GuSweepsHF.obj
 0002:00000a40       ?minV3Error$initializer$@_VecMathTests@aos@shdfnd@physx@@3P6AXXZEA 000000018011ba40     GuSweepsHF.obj
 0002:00000a48       ?maxV3Error$initializer$@_VecMathTests@aos@shdfnd@physx@@3P6AXXZEA 000000018011ba48     GuSweepsHF.obj
 0002:00000a50       ?minV4Error$initializer$@_VecMathTests@aos@shdfnd@physx@@3P6AXXZEA 000000018011ba50     GuSweepsHF.obj
 0002:00000a58       ?maxV4Error$initializer$@_VecMathTests@aos@shdfnd@physx@@3P6AXXZEA 000000018011ba58     GuSweepsHF.obj
 0002:00000a60       ?minFError$initializer$@_VecMathTests@aos@shdfnd@physx@@3P6AXXZEA 000000018011ba60     GuIntersectionRayBox.obj
 0002:00000a68       ?maxFError$initializer$@_VecMathTests@aos@shdfnd@physx@@3P6AXXZEA 000000018011ba68     GuIntersectionRayBox.obj
 0002:00000a70       ?minV3Error$initializer$@_VecMathTests@aos@shdfnd@physx@@3P6AXXZEA 000000018011ba70     GuIntersectionRayBox.obj
 0002:00000a78       ?maxV3Error$initializer$@_VecMathTests@aos@shdfnd@physx@@3P6AXXZEA 000000018011ba78     GuIntersectionRayBox.obj
 0002:00000a80       ?minV4Error$initializer$@_VecMathTests@aos@shdfnd@physx@@3P6AXXZEA 000000018011ba80     GuIntersectionRayBox.obj
 0002:00000a88       ?maxV4Error$initializer$@_VecMathTests@aos@shdfnd@physx@@3P6AXXZEA 000000018011ba88     GuIntersectionRayBox.obj
 0002:00000a90       ?minFError$initializer$@_VecMathTests@aos@shdfnd@physx@@3P6AXXZEA 000000018011ba90     GuIntersectionTriangleBox.obj
 0002:00000a98       ?maxFError$initializer$@_VecMathTests@aos@shdfnd@physx@@3P6AXXZEA 000000018011ba98     GuIntersectionTriangleBox.obj
 0002:00000aa0       ?minV3Error$initializer$@_VecMathTests@aos@shdfnd@physx@@3P6AXXZEA 000000018011baa0     GuIntersectionTriangleBox.obj
 0002:00000aa8       ?maxV3Error$initializer$@_VecMathTests@aos@shdfnd@physx@@3P6AXXZEA 000000018011baa8     GuIntersectionTriangleBox.obj
 0002:00000ab0       ?minV4Error$initializer$@_VecMathTests@aos@shdfnd@physx@@3P6AXXZEA 000000018011bab0     GuIntersectionTriangleBox.obj
 0002:00000ab8       ?maxV4Error$initializer$@_VecMathTests@aos@shdfnd@physx@@3P6AXXZEA 000000018011bab8     GuIntersectionTriangleBox.obj
 0002:00000ac0       ?signV$initializer$@@3P6AXXZEA 000000018011bac0     GuIntersectionTriangleBox.obj
 0002:00000ac8       ?minFError$initializer$@_VecMathTests@aos@shdfnd@physx@@3P6AXXZEA 000000018011bac8     GuBV4.obj
 0002:00000ad0       ?maxFError$initializer$@_VecMathTests@aos@shdfnd@physx@@3P6AXXZEA 000000018011bad0     GuBV4.obj
 0002:00000ad8       ?minV3Error$initializer$@_VecMathTests@aos@shdfnd@physx@@3P6AXXZEA 000000018011bad8     GuBV4.obj
 0002:00000ae0       ?maxV3Error$initializer$@_VecMathTests@aos@shdfnd@physx@@3P6AXXZEA 000000018011bae0     GuBV4.obj
 0002:00000ae8       ?minV4Error$initializer$@_VecMathTests@aos@shdfnd@physx@@3P6AXXZEA 000000018011bae8     GuBV4.obj
 0002:00000af0       ?maxV4Error$initializer$@_VecMathTests@aos@shdfnd@physx@@3P6AXXZEA 000000018011baf0     GuBV4.obj
 0002:00000af8       ?minFError$initializer$@_VecMathTests@aos@shdfnd@physx@@3P6AXXZEA 000000018011baf8     GuBV4Build.obj
 0002:00000b00       ?maxFError$initializer$@_VecMathTests@aos@shdfnd@physx@@3P6AXXZEA 000000018011bb00     GuBV4Build.obj
 0002:00000b08       ?minV3Error$initializer$@_VecMathTests@aos@shdfnd@physx@@3P6AXXZEA 000000018011bb08     GuBV4Build.obj
 0002:00000b10       ?maxV3Error$initializer$@_VecMathTests@aos@shdfnd@physx@@3P6AXXZEA 000000018011bb10     GuBV4Build.obj
 0002:00000b18       ?minV4Error$initializer$@_VecMathTests@aos@shdfnd@physx@@3P6AXXZEA 000000018011bb18     GuBV4Build.obj
 0002:00000b20       ?maxV4Error$initializer$@_VecMathTests@aos@shdfnd@physx@@3P6AXXZEA 000000018011bb20     GuBV4Build.obj
 0002:00000b28       ?minFError$initializer$@_VecMathTests@aos@shdfnd@physx@@3P6AXXZEA 000000018011bb28     GuBV4_AABBSweep.obj
 0002:00000b30       ?maxFError$initializer$@_VecMathTests@aos@shdfnd@physx@@3P6AXXZEA 000000018011bb30     GuBV4_AABBSweep.obj
 0002:00000b38       ?minV3Error$initializer$@_VecMathTests@aos@shdfnd@physx@@3P6AXXZEA 000000018011bb38     GuBV4_AABBSweep.obj
 0002:00000b40       ?maxV3Error$initializer$@_VecMathTests@aos@shdfnd@physx@@3P6AXXZEA 000000018011bb40     GuBV4_AABBSweep.obj
 0002:00000b48       ?minV4Error$initializer$@_VecMathTests@aos@shdfnd@physx@@3P6AXXZEA 000000018011bb48     GuBV4_AABBSweep.obj
 0002:00000b50       ?maxV4Error$initializer$@_VecMathTests@aos@shdfnd@physx@@3P6AXXZEA 000000018011bb50     GuBV4_AABBSweep.obj
 0002:00000b58       ?signMask$initializer$@?A0xfd7bd042@@3P6AXXZEA 000000018011bb58     GuBV4_AABBSweep.obj
 0002:00000b60       ?epsFloat4$initializer$@?A0xfd7bd042@@3P6AXXZEA 000000018011bb60     GuBV4_AABBSweep.obj
 0002:00000b68       ?zeroes$initializer$@?A0xfd7bd042@@3P6AXXZEA 000000018011bb68     GuBV4_AABBSweep.obj
 0002:00000b70       ?twos$initializer$@?A0xfd7bd042@@3P6AXXZEA 000000018011bb70     GuBV4_AABBSweep.obj
 0002:00000b78       ?epsInflateFloat4$initializer$@?A0xfd7bd042@@3P6AXXZEA 000000018011bb78     GuBV4_AABBSweep.obj
 0002:00000b80       ?minFError$initializer$@_VecMathTests@aos@shdfnd@physx@@3P6AXXZEA 000000018011bb80     GuBV4_BoxOverlap.obj
 0002:00000b88       ?maxFError$initializer$@_VecMathTests@aos@shdfnd@physx@@3P6AXXZEA 000000018011bb88     GuBV4_BoxOverlap.obj
 0002:00000b90       ?minV3Error$initializer$@_VecMathTests@aos@shdfnd@physx@@3P6AXXZEA 000000018011bb90     GuBV4_BoxOverlap.obj
 0002:00000b98       ?maxV3Error$initializer$@_VecMathTests@aos@shdfnd@physx@@3P6AXXZEA 000000018011bb98     GuBV4_BoxOverlap.obj
 0002:00000ba0       ?minV4Error$initializer$@_VecMathTests@aos@shdfnd@physx@@3P6AXXZEA 000000018011bba0     GuBV4_BoxOverlap.obj
 0002:00000ba8       ?maxV4Error$initializer$@_VecMathTests@aos@shdfnd@physx@@3P6AXXZEA 000000018011bba8     GuBV4_BoxOverlap.obj
 0002:00000bb0       ?minFError$initializer$@_VecMathTests@aos@shdfnd@physx@@3P6AXXZEA 000000018011bbb0     GuBV4_CapsuleSweep.obj
 0002:00000bb8       ?maxFError$initializer$@_VecMathTests@aos@shdfnd@physx@@3P6AXXZEA 000000018011bbb8     GuBV4_CapsuleSweep.obj
 0002:00000bc0       ?minV3Error$initializer$@_VecMathTests@aos@shdfnd@physx@@3P6AXXZEA 000000018011bbc0     GuBV4_CapsuleSweep.obj
 0002:00000bc8       ?maxV3Error$initializer$@_VecMathTests@aos@shdfnd@physx@@3P6AXXZEA 000000018011bbc8     GuBV4_CapsuleSweep.obj
 0002:00000bd0       ?minV4Error$initializer$@_VecMathTests@aos@shdfnd@physx@@3P6AXXZEA 000000018011bbd0     GuBV4_CapsuleSweep.obj
 0002:00000bd8       ?maxV4Error$initializer$@_VecMathTests@aos@shdfnd@physx@@3P6AXXZEA 000000018011bbd8     GuBV4_CapsuleSweep.obj
 0002:00000be0       ?minFError$initializer$@_VecMathTests@aos@shdfnd@physx@@3P6AXXZEA 000000018011bbe0     GuBV4_CapsuleSweepAA.obj
 0002:00000be8       ?maxFError$initializer$@_VecMathTests@aos@shdfnd@physx@@3P6AXXZEA 000000018011bbe8     GuBV4_CapsuleSweepAA.obj
 0002:00000bf0       ?minV3Error$initializer$@_VecMathTests@aos@shdfnd@physx@@3P6AXXZEA 000000018011bbf0     GuBV4_CapsuleSweepAA.obj
 0002:00000bf8       ?maxV3Error$initializer$@_VecMathTests@aos@shdfnd@physx@@3P6AXXZEA 000000018011bbf8     GuBV4_CapsuleSweepAA.obj
 0002:00000c00       ?minV4Error$initializer$@_VecMathTests@aos@shdfnd@physx@@3P6AXXZEA 000000018011bc00     GuBV4_CapsuleSweepAA.obj
 0002:00000c08       ?maxV4Error$initializer$@_VecMathTests@aos@shdfnd@physx@@3P6AXXZEA 000000018011bc08     GuBV4_CapsuleSweepAA.obj
 0002:00000c10       ?signMask$initializer$@?A0xf8c4922f@@3P6AXXZEA 000000018011bc10     GuBV4_CapsuleSweepAA.obj
 0002:00000c18       ?epsFloat4$initializer$@?A0xf8c4922f@@3P6AXXZEA 000000018011bc18     GuBV4_CapsuleSweepAA.obj
 0002:00000c20       ?zeroes$initializer$@?A0xf8c4922f@@3P6AXXZEA 000000018011bc20     GuBV4_CapsuleSweepAA.obj
 0002:00000c28       ?twos$initializer$@?A0xf8c4922f@@3P6AXXZEA 000000018011bc28     GuBV4_CapsuleSweepAA.obj
 0002:00000c30       ?epsInflateFloat4$initializer$@?A0xf8c4922f@@3P6AXXZEA 000000018011bc30     GuBV4_CapsuleSweepAA.obj
 0002:00000c38       ?minFError$initializer$@_VecMathTests@aos@shdfnd@physx@@3P6AXXZEA 000000018011bc38     GuBV4_OBBSweep.obj
 0002:00000c40       ?maxFError$initializer$@_VecMathTests@aos@shdfnd@physx@@3P6AXXZEA 000000018011bc40     GuBV4_OBBSweep.obj
 0002:00000c48       ?minV3Error$initializer$@_VecMathTests@aos@shdfnd@physx@@3P6AXXZEA 000000018011bc48     GuBV4_OBBSweep.obj
 0002:00000c50       ?maxV3Error$initializer$@_VecMathTests@aos@shdfnd@physx@@3P6AXXZEA 000000018011bc50     GuBV4_OBBSweep.obj
 0002:00000c58       ?minV4Error$initializer$@_VecMathTests@aos@shdfnd@physx@@3P6AXXZEA 000000018011bc58     GuBV4_OBBSweep.obj
 0002:00000c60       ?maxV4Error$initializer$@_VecMathTests@aos@shdfnd@physx@@3P6AXXZEA 000000018011bc60     GuBV4_OBBSweep.obj
 0002:00000c68       ?minFError$initializer$@_VecMathTests@aos@shdfnd@physx@@3P6AXXZEA 000000018011bc68     GuBV4_Raycast.obj
 0002:00000c70       ?maxFError$initializer$@_VecMathTests@aos@shdfnd@physx@@3P6AXXZEA 000000018011bc70     GuBV4_Raycast.obj
 0002:00000c78       ?minV3Error$initializer$@_VecMathTests@aos@shdfnd@physx@@3P6AXXZEA 000000018011bc78     GuBV4_Raycast.obj
 0002:00000c80       ?maxV3Error$initializer$@_VecMathTests@aos@shdfnd@physx@@3P6AXXZEA 000000018011bc80     GuBV4_Raycast.obj
 0002:00000c88       ?minV4Error$initializer$@_VecMathTests@aos@shdfnd@physx@@3P6AXXZEA 000000018011bc88     GuBV4_Raycast.obj
 0002:00000c90       ?maxV4Error$initializer$@_VecMathTests@aos@shdfnd@physx@@3P6AXXZEA 000000018011bc90     GuBV4_Raycast.obj
 0002:00000c98       ?signMask$initializer$@?A0xcea15bf0@@3P6AXXZEA 000000018011bc98     GuBV4_Raycast.obj
 0002:00000ca0       ?epsFloat4$initializer$@?A0xcea15bf0@@3P6AXXZEA 000000018011bca0     GuBV4_Raycast.obj
 0002:00000ca8       ?zeroes$initializer$@?A0xcea15bf0@@3P6AXXZEA 000000018011bca8     GuBV4_Raycast.obj
 0002:00000cb0       ?twos$initializer$@?A0xcea15bf0@@3P6AXXZEA 000000018011bcb0     GuBV4_Raycast.obj
 0002:00000cb8       ?epsInflateFloat4$initializer$@?A0xcea15bf0@@3P6AXXZEA 000000018011bcb8     GuBV4_Raycast.obj
 0002:00000cc0       ?minFError$initializer$@_VecMathTests@aos@shdfnd@physx@@3P6AXXZEA 000000018011bcc0     GuBV4_SphereOverlap.obj
 0002:00000cc8       ?maxFError$initializer$@_VecMathTests@aos@shdfnd@physx@@3P6AXXZEA 000000018011bcc8     GuBV4_SphereOverlap.obj
 0002:00000cd0       ?minV3Error$initializer$@_VecMathTests@aos@shdfnd@physx@@3P6AXXZEA 000000018011bcd0     GuBV4_SphereOverlap.obj
 0002:00000cd8       ?maxV3Error$initializer$@_VecMathTests@aos@shdfnd@physx@@3P6AXXZEA 000000018011bcd8     GuBV4_SphereOverlap.obj
 0002:00000ce0       ?minV4Error$initializer$@_VecMathTests@aos@shdfnd@physx@@3P6AXXZEA 000000018011bce0     GuBV4_SphereOverlap.obj
 0002:00000ce8       ?maxV4Error$initializer$@_VecMathTests@aos@shdfnd@physx@@3P6AXXZEA 000000018011bce8     GuBV4_SphereOverlap.obj
 0002:00000cf0       ?minFError$initializer$@_VecMathTests@aos@shdfnd@physx@@3P6AXXZEA 000000018011bcf0     GuBV4_SphereSweep.obj
 0002:00000cf8       ?maxFError$initializer$@_VecMathTests@aos@shdfnd@physx@@3P6AXXZEA 000000018011bcf8     GuBV4_SphereSweep.obj
 0002:00000d00       ?minV3Error$initializer$@_VecMathTests@aos@shdfnd@physx@@3P6AXXZEA 000000018011bd00     GuBV4_SphereSweep.obj
 0002:00000d08       ?maxV3Error$initializer$@_VecMathTests@aos@shdfnd@physx@@3P6AXXZEA 000000018011bd08     GuBV4_SphereSweep.obj
 0002:00000d10       ?minV4Error$initializer$@_VecMathTests@aos@shdfnd@physx@@3P6AXXZEA 000000018011bd10     GuBV4_SphereSweep.obj
 0002:00000d18       ?maxV4Error$initializer$@_VecMathTests@aos@shdfnd@physx@@3P6AXXZEA 000000018011bd18     GuBV4_SphereSweep.obj
 0002:00000d20       ?signMask$initializer$@?A0xfb2bdd08@@3P6AXXZEA 000000018011bd20     GuBV4_SphereSweep.obj
 0002:00000d28       ?epsFloat4$initializer$@?A0xfb2bdd08@@3P6AXXZEA 000000018011bd28     GuBV4_SphereSweep.obj
 0002:00000d30       ?zeroes$initializer$@?A0xfb2bdd08@@3P6AXXZEA 000000018011bd30     GuBV4_SphereSweep.obj
 0002:00000d38       ?twos$initializer$@?A0xfb2bdd08@@3P6AXXZEA 000000018011bd38     GuBV4_SphereSweep.obj
 0002:00000d40       ?epsInflateFloat4$initializer$@?A0xfb2bdd08@@3P6AXXZEA 000000018011bd40     GuBV4_SphereSweep.obj
 0002:00000d48       ?minFError$initializer$@_VecMathTests@aos@shdfnd@physx@@3P6AXXZEA 000000018011bd48     GuMidphaseBV4.obj
 0002:00000d50       ?maxFError$initializer$@_VecMathTests@aos@shdfnd@physx@@3P6AXXZEA 000000018011bd50     GuMidphaseBV4.obj
 0002:00000d58       ?minV3Error$initializer$@_VecMathTests@aos@shdfnd@physx@@3P6AXXZEA 000000018011bd58     GuMidphaseBV4.obj
 0002:00000d60       ?maxV3Error$initializer$@_VecMathTests@aos@shdfnd@physx@@3P6AXXZEA 000000018011bd60     GuMidphaseBV4.obj
 0002:00000d68       ?minV4Error$initializer$@_VecMathTests@aos@shdfnd@physx@@3P6AXXZEA 000000018011bd68     GuMidphaseBV4.obj
 0002:00000d70       ?maxV4Error$initializer$@_VecMathTests@aos@shdfnd@physx@@3P6AXXZEA 000000018011bd70     GuMidphaseBV4.obj
 0002:00000d78       ?minFError$initializer$@_VecMathTests@aos@shdfnd@physx@@3P6AXXZEA 000000018011bd78     GuMeshQuery.obj
 0002:00000d80       ?maxFError$initializer$@_VecMathTests@aos@shdfnd@physx@@3P6AXXZEA 000000018011bd80     GuMeshQuery.obj
 0002:00000d88       ?minV3Error$initializer$@_VecMathTests@aos@shdfnd@physx@@3P6AXXZEA 000000018011bd88     GuMeshQuery.obj
 0002:00000d90       ?maxV3Error$initializer$@_VecMathTests@aos@shdfnd@physx@@3P6AXXZEA 000000018011bd90     GuMeshQuery.obj
 0002:00000d98       ?minV4Error$initializer$@_VecMathTests@aos@shdfnd@physx@@3P6AXXZEA 000000018011bd98     GuMeshQuery.obj
 0002:00000da0       ?maxV4Error$initializer$@_VecMathTests@aos@shdfnd@physx@@3P6AXXZEA 000000018011bda0     GuMeshQuery.obj
 0002:00000da8       ?minFError$initializer$@_VecMathTests@aos@shdfnd@physx@@3P6AXXZEA 000000018011bda8     GuMidphaseRTree.obj
 0002:00000db0       ?maxFError$initializer$@_VecMathTests@aos@shdfnd@physx@@3P6AXXZEA 000000018011bdb0     GuMidphaseRTree.obj
 0002:00000db8       ?minV3Error$initializer$@_VecMathTests@aos@shdfnd@physx@@3P6AXXZEA 000000018011bdb8     GuMidphaseRTree.obj
 0002:00000dc0       ?maxV3Error$initializer$@_VecMathTests@aos@shdfnd@physx@@3P6AXXZEA 000000018011bdc0     GuMidphaseRTree.obj
 0002:00000dc8       ?minV4Error$initializer$@_VecMathTests@aos@shdfnd@physx@@3P6AXXZEA 000000018011bdc8     GuMidphaseRTree.obj
 0002:00000dd0       ?maxV4Error$initializer$@_VecMathTests@aos@shdfnd@physx@@3P6AXXZEA 000000018011bdd0     GuMidphaseRTree.obj
 0002:00000dd8       ?minFError$initializer$@_VecMathTests@aos@shdfnd@physx@@3P6AXXZEA 000000018011bdd8     GuOverlapTestsMesh.obj
 0002:00000de0       ?maxFError$initializer$@_VecMathTests@aos@shdfnd@physx@@3P6AXXZEA 000000018011bde0     GuOverlapTestsMesh.obj
 0002:00000de8       ?minV3Error$initializer$@_VecMathTests@aos@shdfnd@physx@@3P6AXXZEA 000000018011bde8     GuOverlapTestsMesh.obj
 0002:00000df0       ?maxV3Error$initializer$@_VecMathTests@aos@shdfnd@physx@@3P6AXXZEA 000000018011bdf0     GuOverlapTestsMesh.obj
 0002:00000df8       ?minV4Error$initializer$@_VecMathTests@aos@shdfnd@physx@@3P6AXXZEA 000000018011bdf8     GuOverlapTestsMesh.obj
 0002:00000e00       ?maxV4Error$initializer$@_VecMathTests@aos@shdfnd@physx@@3P6AXXZEA 000000018011be00     GuOverlapTestsMesh.obj
 0002:00000e08       ?minFError$initializer$@_VecMathTests@aos@shdfnd@physx@@3P6AXXZEA 000000018011be08     GuRTree.obj
 0002:00000e10       ?maxFError$initializer$@_VecMathTests@aos@shdfnd@physx@@3P6AXXZEA 000000018011be10     GuRTree.obj
 0002:00000e18       ?minV3Error$initializer$@_VecMathTests@aos@shdfnd@physx@@3P6AXXZEA 000000018011be18     GuRTree.obj
 0002:00000e20       ?maxV3Error$initializer$@_VecMathTests@aos@shdfnd@physx@@3P6AXXZEA 000000018011be20     GuRTree.obj
 0002:00000e28       ?minV4Error$initializer$@_VecMathTests@aos@shdfnd@physx@@3P6AXXZEA 000000018011be28     GuRTree.obj
 0002:00000e30       ?maxV4Error$initializer$@_VecMathTests@aos@shdfnd@physx@@3P6AXXZEA 000000018011be30     GuRTree.obj
 0002:00000e38       ?minFError$initializer$@_VecMathTests@aos@shdfnd@physx@@3P6AXXZEA 000000018011be38     GuRTreeQueries.obj
 0002:00000e40       ?maxFError$initializer$@_VecMathTests@aos@shdfnd@physx@@3P6AXXZEA 000000018011be40     GuRTreeQueries.obj
 0002:00000e48       ?minV3Error$initializer$@_VecMathTests@aos@shdfnd@physx@@3P6AXXZEA 000000018011be48     GuRTreeQueries.obj
 0002:00000e50       ?maxV3Error$initializer$@_VecMathTests@aos@shdfnd@physx@@3P6AXXZEA 000000018011be50     GuRTreeQueries.obj
 0002:00000e58       ?minV4Error$initializer$@_VecMathTests@aos@shdfnd@physx@@3P6AXXZEA 000000018011be58     GuRTreeQueries.obj
 0002:00000e60       ?maxV4Error$initializer$@_VecMathTests@aos@shdfnd@physx@@3P6AXXZEA 000000018011be60     GuRTreeQueries.obj
 0002:00000e68       ?signMask$initializer$@?A0xba75b37c@@3P6AXXZEA 000000018011be68     GuRTreeQueries.obj
 0002:00000e70       ?epsFloat4$initializer$@?A0xba75b37c@@3P6AXXZEA 000000018011be70     GuRTreeQueries.obj
 0002:00000e78       ?zeroes$initializer$@?A0xba75b37c@@3P6AXXZEA 000000018011be78     GuRTreeQueries.obj
 0002:00000e80       ?twos$initializer$@?A0xba75b37c@@3P6AXXZEA 000000018011be80     GuRTreeQueries.obj
 0002:00000e88       ?epsInflateFloat4$initializer$@?A0xba75b37c@@3P6AXXZEA 000000018011be88     GuRTreeQueries.obj
 0002:00000e90       ?minFError$initializer$@_VecMathTests@aos@shdfnd@physx@@3P6AXXZEA 000000018011be90     GuSweepsMesh.obj
 0002:00000e98       ?maxFError$initializer$@_VecMathTests@aos@shdfnd@physx@@3P6AXXZEA 000000018011be98     GuSweepsMesh.obj
 0002:00000ea0       ?minV3Error$initializer$@_VecMathTests@aos@shdfnd@physx@@3P6AXXZEA 000000018011bea0     GuSweepsMesh.obj
 0002:00000ea8       ?maxV3Error$initializer$@_VecMathTests@aos@shdfnd@physx@@3P6AXXZEA 000000018011bea8     GuSweepsMesh.obj
 0002:00000eb0       ?minV4Error$initializer$@_VecMathTests@aos@shdfnd@physx@@3P6AXXZEA 000000018011beb0     GuSweepsMesh.obj
 0002:00000eb8       ?maxV4Error$initializer$@_VecMathTests@aos@shdfnd@physx@@3P6AXXZEA 000000018011beb8     GuSweepsMesh.obj
 0002:00000ec0       ?minFError$initializer$@_VecMathTests@aos@shdfnd@physx@@3P6AXXZEA 000000018011bec0     GuTriangleMesh.obj
 0002:00000ec8       ?maxFError$initializer$@_VecMathTests@aos@shdfnd@physx@@3P6AXXZEA 000000018011bec8     GuTriangleMesh.obj
 0002:00000ed0       ?minV3Error$initializer$@_VecMathTests@aos@shdfnd@physx@@3P6AXXZEA 000000018011bed0     GuTriangleMesh.obj
 0002:00000ed8       ?maxV3Error$initializer$@_VecMathTests@aos@shdfnd@physx@@3P6AXXZEA 000000018011bed8     GuTriangleMesh.obj
 0002:00000ee0       ?minV4Error$initializer$@_VecMathTests@aos@shdfnd@physx@@3P6AXXZEA 000000018011bee0     GuTriangleMesh.obj
 0002:00000ee8       ?maxV4Error$initializer$@_VecMathTests@aos@shdfnd@physx@@3P6AXXZEA 000000018011bee8     GuTriangleMesh.obj
 0002:00000ef0       ?minFError$initializer$@_VecMathTests@aos@shdfnd@physx@@3P6AXXZEA 000000018011bef0     GuTriangleMeshBV4.obj
 0002:00000ef8       ?maxFError$initializer$@_VecMathTests@aos@shdfnd@physx@@3P6AXXZEA 000000018011bef8     GuTriangleMeshBV4.obj
 0002:00000f00       ?minV3Error$initializer$@_VecMathTests@aos@shdfnd@physx@@3P6AXXZEA 000000018011bf00     GuTriangleMeshBV4.obj
 0002:00000f08       ?maxV3Error$initializer$@_VecMathTests@aos@shdfnd@physx@@3P6AXXZEA 000000018011bf08     GuTriangleMeshBV4.obj
 0002:00000f10       ?minV4Error$initializer$@_VecMathTests@aos@shdfnd@physx@@3P6AXXZEA 000000018011bf10     GuTriangleMeshBV4.obj
 0002:00000f18       ?maxV4Error$initializer$@_VecMathTests@aos@shdfnd@physx@@3P6AXXZEA 000000018011bf18     GuTriangleMeshBV4.obj
 0002:00000f20       ?minFError$initializer$@_VecMathTests@aos@shdfnd@physx@@3P6AXXZEA 000000018011bf20     GuTriangleMeshRTree.obj
 0002:00000f28       ?maxFError$initializer$@_VecMathTests@aos@shdfnd@physx@@3P6AXXZEA 000000018011bf28     GuTriangleMeshRTree.obj
 0002:00000f30       ?minV3Error$initializer$@_VecMathTests@aos@shdfnd@physx@@3P6AXXZEA 000000018011bf30     GuTriangleMeshRTree.obj
 0002:00000f38       ?maxV3Error$initializer$@_VecMathTests@aos@shdfnd@physx@@3P6AXXZEA 000000018011bf38     GuTriangleMeshRTree.obj
 0002:00000f40       ?minV4Error$initializer$@_VecMathTests@aos@shdfnd@physx@@3P6AXXZEA 000000018011bf40     GuTriangleMeshRTree.obj
 0002:00000f48       ?maxV4Error$initializer$@_VecMathTests@aos@shdfnd@physx@@3P6AXXZEA 000000018011bf48     GuTriangleMeshRTree.obj
 0002:00000f50       ?minFError$initializer$@_VecMathTests@aos@shdfnd@physx@@3P6AXXZEA 000000018011bf50     GuBV32Build.obj
 0002:00000f58       ?maxFError$initializer$@_VecMathTests@aos@shdfnd@physx@@3P6AXXZEA 000000018011bf58     GuBV32Build.obj
 0002:00000f60       ?minV3Error$initializer$@_VecMathTests@aos@shdfnd@physx@@3P6AXXZEA 000000018011bf60     GuBV32Build.obj
 0002:00000f68       ?maxV3Error$initializer$@_VecMathTests@aos@shdfnd@physx@@3P6AXXZEA 000000018011bf68     GuBV32Build.obj
 0002:00000f70       ?minV4Error$initializer$@_VecMathTests@aos@shdfnd@physx@@3P6AXXZEA 000000018011bf70     GuBV32Build.obj
 0002:00000f78       ?maxV4Error$initializer$@_VecMathTests@aos@shdfnd@physx@@3P6AXXZEA 000000018011bf78     GuBV32Build.obj
 0002:00000f80       ?minFError$initializer$@_VecMathTests@aos@shdfnd@physx@@3P6AXXZEA 000000018011bf80     GuPCMContactBoxBox.obj
 0002:00000f88       ?maxFError$initializer$@_VecMathTests@aos@shdfnd@physx@@3P6AXXZEA 000000018011bf88     GuPCMContactBoxBox.obj
 0002:00000f90       ?minV3Error$initializer$@_VecMathTests@aos@shdfnd@physx@@3P6AXXZEA 000000018011bf90     GuPCMContactBoxBox.obj
 0002:00000f98       ?maxV3Error$initializer$@_VecMathTests@aos@shdfnd@physx@@3P6AXXZEA 000000018011bf98     GuPCMContactBoxBox.obj
 0002:00000fa0       ?minV4Error$initializer$@_VecMathTests@aos@shdfnd@physx@@3P6AXXZEA 000000018011bfa0     GuPCMContactBoxBox.obj
 0002:00000fa8       ?maxV4Error$initializer$@_VecMathTests@aos@shdfnd@physx@@3P6AXXZEA 000000018011bfa8     GuPCMContactBoxBox.obj
 0002:00000fb0       ?minFError$initializer$@_VecMathTests@aos@shdfnd@physx@@3P6AXXZEA 000000018011bfb0     GuPCMContactBoxConvex.obj
 0002:00000fb8       ?maxFError$initializer$@_VecMathTests@aos@shdfnd@physx@@3P6AXXZEA 000000018011bfb8     GuPCMContactBoxConvex.obj
 0002:00000fc0       ?minV3Error$initializer$@_VecMathTests@aos@shdfnd@physx@@3P6AXXZEA 000000018011bfc0     GuPCMContactBoxConvex.obj
 0002:00000fc8       ?maxV3Error$initializer$@_VecMathTests@aos@shdfnd@physx@@3P6AXXZEA 000000018011bfc8     GuPCMContactBoxConvex.obj
 0002:00000fd0       ?minV4Error$initializer$@_VecMathTests@aos@shdfnd@physx@@3P6AXXZEA 000000018011bfd0     GuPCMContactBoxConvex.obj
 0002:00000fd8       ?maxV4Error$initializer$@_VecMathTests@aos@shdfnd@physx@@3P6AXXZEA 000000018011bfd8     GuPCMContactBoxConvex.obj
 0002:00000fe0       ?minFError$initializer$@_VecMathTests@aos@shdfnd@physx@@3P6AXXZEA 000000018011bfe0     GuPCMContactCapsuleBox.obj
 0002:00000fe8       ?maxFError$initializer$@_VecMathTests@aos@shdfnd@physx@@3P6AXXZEA 000000018011bfe8     GuPCMContactCapsuleBox.obj
 0002:00000ff0       ?minV3Error$initializer$@_VecMathTests@aos@shdfnd@physx@@3P6AXXZEA 000000018011bff0     GuPCMContactCapsuleBox.obj
 0002:00000ff8       ?maxV3Error$initializer$@_VecMathTests@aos@shdfnd@physx@@3P6AXXZEA 000000018011bff8     GuPCMContactCapsuleBox.obj
 0002:00001000       ?minV4Error$initializer$@_VecMathTests@aos@shdfnd@physx@@3P6AXXZEA 000000018011c000     GuPCMContactCapsuleBox.obj
 0002:00001008       ?maxV4Error$initializer$@_VecMathTests@aos@shdfnd@physx@@3P6AXXZEA 000000018011c008     GuPCMContactCapsuleBox.obj
 0002:00001010       ?minFError$initializer$@_VecMathTests@aos@shdfnd@physx@@3P6AXXZEA 000000018011c010     GuPCMContactCapsuleCapsule.obj
 0002:00001018       ?maxFError$initializer$@_VecMathTests@aos@shdfnd@physx@@3P6AXXZEA 000000018011c018     GuPCMContactCapsuleCapsule.obj
 0002:00001020       ?minV3Error$initializer$@_VecMathTests@aos@shdfnd@physx@@3P6AXXZEA 000000018011c020     GuPCMContactCapsuleCapsule.obj
 0002:00001028       ?maxV3Error$initializer$@_VecMathTests@aos@shdfnd@physx@@3P6AXXZEA 000000018011c028     GuPCMContactCapsuleCapsule.obj
 0002:00001030       ?minV4Error$initializer$@_VecMathTests@aos@shdfnd@physx@@3P6AXXZEA 000000018011c030     GuPCMContactCapsuleCapsule.obj
 0002:00001038       ?maxV4Error$initializer$@_VecMathTests@aos@shdfnd@physx@@3P6AXXZEA 000000018011c038     GuPCMContactCapsuleCapsule.obj
 0002:00001040       ?minFError$initializer$@_VecMathTests@aos@shdfnd@physx@@3P6AXXZEA 000000018011c040     GuPCMContactCapsuleConvex.obj
 0002:00001048       ?maxFError$initializer$@_VecMathTests@aos@shdfnd@physx@@3P6AXXZEA 000000018011c048     GuPCMContactCapsuleConvex.obj
 0002:00001050       ?minV3Error$initializer$@_VecMathTests@aos@shdfnd@physx@@3P6AXXZEA 000000018011c050     GuPCMContactCapsuleConvex.obj
 0002:00001058       ?maxV3Error$initializer$@_VecMathTests@aos@shdfnd@physx@@3P6AXXZEA 000000018011c058     GuPCMContactCapsuleConvex.obj
 0002:00001060       ?minV4Error$initializer$@_VecMathTests@aos@shdfnd@physx@@3P6AXXZEA 000000018011c060     GuPCMContactCapsuleConvex.obj
 0002:00001068       ?maxV4Error$initializer$@_VecMathTests@aos@shdfnd@physx@@3P6AXXZEA 000000018011c068     GuPCMContactCapsuleConvex.obj
 0002:00001070       ?minFError$initializer$@_VecMathTests@aos@shdfnd@physx@@3P6AXXZEA 000000018011c070     GuPCMContactCapsuleHeightField.obj
 0002:00001078       ?maxFError$initializer$@_VecMathTests@aos@shdfnd@physx@@3P6AXXZEA 000000018011c078     GuPCMContactCapsuleHeightField.obj
 0002:00001080       ?minV3Error$initializer$@_VecMathTests@aos@shdfnd@physx@@3P6AXXZEA 000000018011c080     GuPCMContactCapsuleHeightField.obj
 0002:00001088       ?maxV3Error$initializer$@_VecMathTests@aos@shdfnd@physx@@3P6AXXZEA 000000018011c088     GuPCMContactCapsuleHeightField.obj
 0002:00001090       ?minV4Error$initializer$@_VecMathTests@aos@shdfnd@physx@@3P6AXXZEA 000000018011c090     GuPCMContactCapsuleHeightField.obj
 0002:00001098       ?maxV4Error$initializer$@_VecMathTests@aos@shdfnd@physx@@3P6AXXZEA 000000018011c098     GuPCMContactCapsuleHeightField.obj
 0002:000010a0       ?minFError$initializer$@_VecMathTests@aos@shdfnd@physx@@3P6AXXZEA 000000018011c0a0     GuPCMContactCapsuleMesh.obj
 0002:000010a8       ?maxFError$initializer$@_VecMathTests@aos@shdfnd@physx@@3P6AXXZEA 000000018011c0a8     GuPCMContactCapsuleMesh.obj
 0002:000010b0       ?minV3Error$initializer$@_VecMathTests@aos@shdfnd@physx@@3P6AXXZEA 000000018011c0b0     GuPCMContactCapsuleMesh.obj
 0002:000010b8       ?maxV3Error$initializer$@_VecMathTests@aos@shdfnd@physx@@3P6AXXZEA 000000018011c0b8     GuPCMContactCapsuleMesh.obj
 0002:000010c0       ?minV4Error$initializer$@_VecMathTests@aos@shdfnd@physx@@3P6AXXZEA 000000018011c0c0     GuPCMContactCapsuleMesh.obj
 0002:000010c8       ?maxV4Error$initializer$@_VecMathTests@aos@shdfnd@physx@@3P6AXXZEA 000000018011c0c8     GuPCMContactCapsuleMesh.obj
 0002:000010d0       ?minFError$initializer$@_VecMathTests@aos@shdfnd@physx@@3P6AXXZEA 000000018011c0d0     GuPCMContactConvexCommon.obj
 0002:000010d8       ?maxFError$initializer$@_VecMathTests@aos@shdfnd@physx@@3P6AXXZEA 000000018011c0d8     GuPCMContactConvexCommon.obj
 0002:000010e0       ?minV3Error$initializer$@_VecMathTests@aos@shdfnd@physx@@3P6AXXZEA 000000018011c0e0     GuPCMContactConvexCommon.obj
 0002:000010e8       ?maxV3Error$initializer$@_VecMathTests@aos@shdfnd@physx@@3P6AXXZEA 000000018011c0e8     GuPCMContactConvexCommon.obj
 0002:000010f0       ?minV4Error$initializer$@_VecMathTests@aos@shdfnd@physx@@3P6AXXZEA 000000018011c0f0     GuPCMContactConvexCommon.obj
 0002:000010f8       ?maxV4Error$initializer$@_VecMathTests@aos@shdfnd@physx@@3P6AXXZEA 000000018011c0f8     GuPCMContactConvexCommon.obj
 0002:00001100       ?minFError$initializer$@_VecMathTests@aos@shdfnd@physx@@3P6AXXZEA 000000018011c100     GuPCMContactConvexConvex.obj
 0002:00001108       ?maxFError$initializer$@_VecMathTests@aos@shdfnd@physx@@3P6AXXZEA 000000018011c108     GuPCMContactConvexConvex.obj
 0002:00001110       ?minV3Error$initializer$@_VecMathTests@aos@shdfnd@physx@@3P6AXXZEA 000000018011c110     GuPCMContactConvexConvex.obj
 0002:00001118       ?maxV3Error$initializer$@_VecMathTests@aos@shdfnd@physx@@3P6AXXZEA 000000018011c118     GuPCMContactConvexConvex.obj
 0002:00001120       ?minV4Error$initializer$@_VecMathTests@aos@shdfnd@physx@@3P6AXXZEA 000000018011c120     GuPCMContactConvexConvex.obj
 0002:00001128       ?maxV4Error$initializer$@_VecMathTests@aos@shdfnd@physx@@3P6AXXZEA 000000018011c128     GuPCMContactConvexConvex.obj
 0002:00001130       ?minFError$initializer$@_VecMathTests@aos@shdfnd@physx@@3P6AXXZEA 000000018011c130     GuPCMContactConvexHeightField.obj
 0002:00001138       ?maxFError$initializer$@_VecMathTests@aos@shdfnd@physx@@3P6AXXZEA 000000018011c138     GuPCMContactConvexHeightField.obj
 0002:00001140       ?minV3Error$initializer$@_VecMathTests@aos@shdfnd@physx@@3P6AXXZEA 000000018011c140     GuPCMContactConvexHeightField.obj
 0002:00001148       ?maxV3Error$initializer$@_VecMathTests@aos@shdfnd@physx@@3P6AXXZEA 000000018011c148     GuPCMContactConvexHeightField.obj
 0002:00001150       ?minV4Error$initializer$@_VecMathTests@aos@shdfnd@physx@@3P6AXXZEA 000000018011c150     GuPCMContactConvexHeightField.obj
 0002:00001158       ?maxV4Error$initializer$@_VecMathTests@aos@shdfnd@physx@@3P6AXXZEA 000000018011c158     GuPCMContactConvexHeightField.obj
 0002:00001160       ?minFError$initializer$@_VecMathTests@aos@shdfnd@physx@@3P6AXXZEA 000000018011c160     GuPCMContactConvexMesh.obj
 0002:00001168       ?maxFError$initializer$@_VecMathTests@aos@shdfnd@physx@@3P6AXXZEA 000000018011c168     GuPCMContactConvexMesh.obj
 0002:00001170       ?minV3Error$initializer$@_VecMathTests@aos@shdfnd@physx@@3P6AXXZEA 000000018011c170     GuPCMContactConvexMesh.obj
 0002:00001178       ?maxV3Error$initializer$@_VecMathTests@aos@shdfnd@physx@@3P6AXXZEA 000000018011c178     GuPCMContactConvexMesh.obj
 0002:00001180       ?minV4Error$initializer$@_VecMathTests@aos@shdfnd@physx@@3P6AXXZEA 000000018011c180     GuPCMContactConvexMesh.obj
 0002:00001188       ?maxV4Error$initializer$@_VecMathTests@aos@shdfnd@physx@@3P6AXXZEA 000000018011c188     GuPCMContactConvexMesh.obj
 0002:00001190       ?minFError$initializer$@_VecMathTests@aos@shdfnd@physx@@3P6AXXZEA 000000018011c190     GuPCMContactGenBoxConvex.obj
 0002:00001198       ?maxFError$initializer$@_VecMathTests@aos@shdfnd@physx@@3P6AXXZEA 000000018011c198     GuPCMContactGenBoxConvex.obj
 0002:000011a0       ?minV3Error$initializer$@_VecMathTests@aos@shdfnd@physx@@3P6AXXZEA 000000018011c1a0     GuPCMContactGenBoxConvex.obj
 0002:000011a8       ?maxV3Error$initializer$@_VecMathTests@aos@shdfnd@physx@@3P6AXXZEA 000000018011c1a8     GuPCMContactGenBoxConvex.obj
 0002:000011b0       ?minV4Error$initializer$@_VecMathTests@aos@shdfnd@physx@@3P6AXXZEA 000000018011c1b0     GuPCMContactGenBoxConvex.obj
 0002:000011b8       ?maxV4Error$initializer$@_VecMathTests@aos@shdfnd@physx@@3P6AXXZEA 000000018011c1b8     GuPCMContactGenBoxConvex.obj
 0002:000011c0       ?minFError$initializer$@_VecMathTests@aos@shdfnd@physx@@3P6AXXZEA 000000018011c1c0     GuPCMContactGenSphereCapsule.obj
 0002:000011c8       ?maxFError$initializer$@_VecMathTests@aos@shdfnd@physx@@3P6AXXZEA 000000018011c1c8     GuPCMContactGenSphereCapsule.obj
 0002:000011d0       ?minV3Error$initializer$@_VecMathTests@aos@shdfnd@physx@@3P6AXXZEA 000000018011c1d0     GuPCMContactGenSphereCapsule.obj
 0002:000011d8       ?maxV3Error$initializer$@_VecMathTests@aos@shdfnd@physx@@3P6AXXZEA 000000018011c1d8     GuPCMContactGenSphereCapsule.obj
 0002:000011e0       ?minV4Error$initializer$@_VecMathTests@aos@shdfnd@physx@@3P6AXXZEA 000000018011c1e0     GuPCMContactGenSphereCapsule.obj
 0002:000011e8       ?maxV4Error$initializer$@_VecMathTests@aos@shdfnd@physx@@3P6AXXZEA 000000018011c1e8     GuPCMContactGenSphereCapsule.obj
 0002:000011f0       ?minFError$initializer$@_VecMathTests@aos@shdfnd@physx@@3P6AXXZEA 000000018011c1f0     GuPCMContactPlaneBox.obj
 0002:000011f8       ?maxFError$initializer$@_VecMathTests@aos@shdfnd@physx@@3P6AXXZEA 000000018011c1f8     GuPCMContactPlaneBox.obj
 0002:00001200       ?minV3Error$initializer$@_VecMathTests@aos@shdfnd@physx@@3P6AXXZEA 000000018011c200     GuPCMContactPlaneBox.obj
 0002:00001208       ?maxV3Error$initializer$@_VecMathTests@aos@shdfnd@physx@@3P6AXXZEA 000000018011c208     GuPCMContactPlaneBox.obj
 0002:00001210       ?minV4Error$initializer$@_VecMathTests@aos@shdfnd@physx@@3P6AXXZEA 000000018011c210     GuPCMContactPlaneBox.obj
 0002:00001218       ?maxV4Error$initializer$@_VecMathTests@aos@shdfnd@physx@@3P6AXXZEA 000000018011c218     GuPCMContactPlaneBox.obj
 0002:00001220       ?minFError$initializer$@_VecMathTests@aos@shdfnd@physx@@3P6AXXZEA 000000018011c220     GuPCMContactPlaneCapsule.obj
 0002:00001228       ?maxFError$initializer$@_VecMathTests@aos@shdfnd@physx@@3P6AXXZEA 000000018011c228     GuPCMContactPlaneCapsule.obj
 0002:00001230       ?minV3Error$initializer$@_VecMathTests@aos@shdfnd@physx@@3P6AXXZEA 000000018011c230     GuPCMContactPlaneCapsule.obj
 0002:00001238       ?maxV3Error$initializer$@_VecMathTests@aos@shdfnd@physx@@3P6AXXZEA 000000018011c238     GuPCMContactPlaneCapsule.obj
 0002:00001240       ?minV4Error$initializer$@_VecMathTests@aos@shdfnd@physx@@3P6AXXZEA 000000018011c240     GuPCMContactPlaneCapsule.obj
 0002:00001248       ?maxV4Error$initializer$@_VecMathTests@aos@shdfnd@physx@@3P6AXXZEA 000000018011c248     GuPCMContactPlaneCapsule.obj
 0002:00001250       ?minFError$initializer$@_VecMathTests@aos@shdfnd@physx@@3P6AXXZEA 000000018011c250     GuPCMContactPlaneConvex.obj
 0002:00001258       ?maxFError$initializer$@_VecMathTests@aos@shdfnd@physx@@3P6AXXZEA 000000018011c258     GuPCMContactPlaneConvex.obj
 0002:00001260       ?minV3Error$initializer$@_VecMathTests@aos@shdfnd@physx@@3P6AXXZEA 000000018011c260     GuPCMContactPlaneConvex.obj
 0002:00001268       ?maxV3Error$initializer$@_VecMathTests@aos@shdfnd@physx@@3P6AXXZEA 000000018011c268     GuPCMContactPlaneConvex.obj
 0002:00001270       ?minV4Error$initializer$@_VecMathTests@aos@shdfnd@physx@@3P6AXXZEA 000000018011c270     GuPCMContactPlaneConvex.obj
 0002:00001278       ?maxV4Error$initializer$@_VecMathTests@aos@shdfnd@physx@@3P6AXXZEA 000000018011c278     GuPCMContactPlaneConvex.obj
 0002:00001280       ?minFError$initializer$@_VecMathTests@aos@shdfnd@physx@@3P6AXXZEA 000000018011c280     GuPCMContactSphereBox.obj
 0002:00001288       ?maxFError$initializer$@_VecMathTests@aos@shdfnd@physx@@3P6AXXZEA 000000018011c288     GuPCMContactSphereBox.obj
 0002:00001290       ?minV3Error$initializer$@_VecMathTests@aos@shdfnd@physx@@3P6AXXZEA 000000018011c290     GuPCMContactSphereBox.obj
 0002:00001298       ?maxV3Error$initializer$@_VecMathTests@aos@shdfnd@physx@@3P6AXXZEA 000000018011c298     GuPCMContactSphereBox.obj
 0002:000012a0       ?minV4Error$initializer$@_VecMathTests@aos@shdfnd@physx@@3P6AXXZEA 000000018011c2a0     GuPCMContactSphereBox.obj
 0002:000012a8       ?maxV4Error$initializer$@_VecMathTests@aos@shdfnd@physx@@3P6AXXZEA 000000018011c2a8     GuPCMContactSphereBox.obj
 0002:000012b0       ?minFError$initializer$@_VecMathTests@aos@shdfnd@physx@@3P6AXXZEA 000000018011c2b0     GuPCMContactSphereCapsule.obj
 0002:000012b8       ?maxFError$initializer$@_VecMathTests@aos@shdfnd@physx@@3P6AXXZEA 000000018011c2b8     GuPCMContactSphereCapsule.obj
 0002:000012c0       ?minV3Error$initializer$@_VecMathTests@aos@shdfnd@physx@@3P6AXXZEA 000000018011c2c0     GuPCMContactSphereCapsule.obj
 0002:000012c8       ?maxV3Error$initializer$@_VecMathTests@aos@shdfnd@physx@@3P6AXXZEA 000000018011c2c8     GuPCMContactSphereCapsule.obj
 0002:000012d0       ?minV4Error$initializer$@_VecMathTests@aos@shdfnd@physx@@3P6AXXZEA 000000018011c2d0     GuPCMContactSphereCapsule.obj
 0002:000012d8       ?maxV4Error$initializer$@_VecMathTests@aos@shdfnd@physx@@3P6AXXZEA 000000018011c2d8     GuPCMContactSphereCapsule.obj
 0002:000012e0       ?minFError$initializer$@_VecMathTests@aos@shdfnd@physx@@3P6AXXZEA 000000018011c2e0     GuPCMContactSphereConvex.obj
 0002:000012e8       ?maxFError$initializer$@_VecMathTests@aos@shdfnd@physx@@3P6AXXZEA 000000018011c2e8     GuPCMContactSphereConvex.obj
 0002:000012f0       ?minV3Error$initializer$@_VecMathTests@aos@shdfnd@physx@@3P6AXXZEA 000000018011c2f0     GuPCMContactSphereConvex.obj
 0002:000012f8       ?maxV3Error$initializer$@_VecMathTests@aos@shdfnd@physx@@3P6AXXZEA 000000018011c2f8     GuPCMContactSphereConvex.obj
 0002:00001300       ?minV4Error$initializer$@_VecMathTests@aos@shdfnd@physx@@3P6AXXZEA 000000018011c300     GuPCMContactSphereConvex.obj
 0002:00001308       ?maxV4Error$initializer$@_VecMathTests@aos@shdfnd@physx@@3P6AXXZEA 000000018011c308     GuPCMContactSphereConvex.obj
 0002:00001310       ?minFError$initializer$@_VecMathTests@aos@shdfnd@physx@@3P6AXXZEA 000000018011c310     GuPCMContactSphereHeightField.obj
 0002:00001318       ?maxFError$initializer$@_VecMathTests@aos@shdfnd@physx@@3P6AXXZEA 000000018011c318     GuPCMContactSphereHeightField.obj
 0002:00001320       ?minV3Error$initializer$@_VecMathTests@aos@shdfnd@physx@@3P6AXXZEA 000000018011c320     GuPCMContactSphereHeightField.obj
 0002:00001328       ?maxV3Error$initializer$@_VecMathTests@aos@shdfnd@physx@@3P6AXXZEA 000000018011c328     GuPCMContactSphereHeightField.obj
 0002:00001330       ?minV4Error$initializer$@_VecMathTests@aos@shdfnd@physx@@3P6AXXZEA 000000018011c330     GuPCMContactSphereHeightField.obj
 0002:00001338       ?maxV4Error$initializer$@_VecMathTests@aos@shdfnd@physx@@3P6AXXZEA 000000018011c338     GuPCMContactSphereHeightField.obj
 0002:00001340       ?minFError$initializer$@_VecMathTests@aos@shdfnd@physx@@3P6AXXZEA 000000018011c340     GuPCMContactSphereMesh.obj
 0002:00001348       ?maxFError$initializer$@_VecMathTests@aos@shdfnd@physx@@3P6AXXZEA 000000018011c348     GuPCMContactSphereMesh.obj
 0002:00001350       ?minV3Error$initializer$@_VecMathTests@aos@shdfnd@physx@@3P6AXXZEA 000000018011c350     GuPCMContactSphereMesh.obj
 0002:00001358       ?maxV3Error$initializer$@_VecMathTests@aos@shdfnd@physx@@3P6AXXZEA 000000018011c358     GuPCMContactSphereMesh.obj
 0002:00001360       ?minV4Error$initializer$@_VecMathTests@aos@shdfnd@physx@@3P6AXXZEA 000000018011c360     GuPCMContactSphereMesh.obj
 0002:00001368       ?maxV4Error$initializer$@_VecMathTests@aos@shdfnd@physx@@3P6AXXZEA 000000018011c368     GuPCMContactSphereMesh.obj
 0002:00001370       ?minFError$initializer$@_VecMathTests@aos@shdfnd@physx@@3P6AXXZEA 000000018011c370     GuPCMContactSpherePlane.obj
 0002:00001378       ?maxFError$initializer$@_VecMathTests@aos@shdfnd@physx@@3P6AXXZEA 000000018011c378     GuPCMContactSpherePlane.obj
 0002:00001380       ?minV3Error$initializer$@_VecMathTests@aos@shdfnd@physx@@3P6AXXZEA 000000018011c380     GuPCMContactSpherePlane.obj
 0002:00001388       ?maxV3Error$initializer$@_VecMathTests@aos@shdfnd@physx@@3P6AXXZEA 000000018011c388     GuPCMContactSpherePlane.obj
 0002:00001390       ?minV4Error$initializer$@_VecMathTests@aos@shdfnd@physx@@3P6AXXZEA 000000018011c390     GuPCMContactSpherePlane.obj
 0002:00001398       ?maxV4Error$initializer$@_VecMathTests@aos@shdfnd@physx@@3P6AXXZEA 000000018011c398     GuPCMContactSpherePlane.obj
 0002:000013a0       ?minFError$initializer$@_VecMathTests@aos@shdfnd@physx@@3P6AXXZEA 000000018011c3a0     GuPCMContactSphereSphere.obj
 0002:000013a8       ?maxFError$initializer$@_VecMathTests@aos@shdfnd@physx@@3P6AXXZEA 000000018011c3a8     GuPCMContactSphereSphere.obj
 0002:000013b0       ?minV3Error$initializer$@_VecMathTests@aos@shdfnd@physx@@3P6AXXZEA 000000018011c3b0     GuPCMContactSphereSphere.obj
 0002:000013b8       ?maxV3Error$initializer$@_VecMathTests@aos@shdfnd@physx@@3P6AXXZEA 000000018011c3b8     GuPCMContactSphereSphere.obj
 0002:000013c0       ?minV4Error$initializer$@_VecMathTests@aos@shdfnd@physx@@3P6AXXZEA 000000018011c3c0     GuPCMContactSphereSphere.obj
 0002:000013c8       ?maxV4Error$initializer$@_VecMathTests@aos@shdfnd@physx@@3P6AXXZEA 000000018011c3c8     GuPCMContactSphereSphere.obj
 0002:000013d0       ?minFError$initializer$@_VecMathTests@aos@shdfnd@physx@@3P6AXXZEA 000000018011c3d0     GuPCMShapeConvex.obj
 0002:000013d8       ?maxFError$initializer$@_VecMathTests@aos@shdfnd@physx@@3P6AXXZEA 000000018011c3d8     GuPCMShapeConvex.obj
 0002:000013e0       ?minV3Error$initializer$@_VecMathTests@aos@shdfnd@physx@@3P6AXXZEA 000000018011c3e0     GuPCMShapeConvex.obj
 0002:000013e8       ?maxV3Error$initializer$@_VecMathTests@aos@shdfnd@physx@@3P6AXXZEA 000000018011c3e8     GuPCMShapeConvex.obj
 0002:000013f0       ?minV4Error$initializer$@_VecMathTests@aos@shdfnd@physx@@3P6AXXZEA 000000018011c3f0     GuPCMShapeConvex.obj
 0002:000013f8       ?maxV4Error$initializer$@_VecMathTests@aos@shdfnd@physx@@3P6AXXZEA 000000018011c3f8     GuPCMShapeConvex.obj
 0002:00001400       ?minFError$initializer$@_VecMathTests@aos@shdfnd@physx@@3P6AXXZEA 000000018011c400     GuPCMTriangleContactGen.obj
 0002:00001408       ?maxFError$initializer$@_VecMathTests@aos@shdfnd@physx@@3P6AXXZEA 000000018011c408     GuPCMTriangleContactGen.obj
 0002:00001410       ?minV3Error$initializer$@_VecMathTests@aos@shdfnd@physx@@3P6AXXZEA 000000018011c410     GuPCMTriangleContactGen.obj
 0002:00001418       ?maxV3Error$initializer$@_VecMathTests@aos@shdfnd@physx@@3P6AXXZEA 000000018011c418     GuPCMTriangleContactGen.obj
 0002:00001420       ?minV4Error$initializer$@_VecMathTests@aos@shdfnd@physx@@3P6AXXZEA 000000018011c420     GuPCMTriangleContactGen.obj
 0002:00001428       ?maxV4Error$initializer$@_VecMathTests@aos@shdfnd@physx@@3P6AXXZEA 000000018011c428     GuPCMTriangleContactGen.obj
 0002:00001430       ?minFError$initializer$@_VecMathTests@aos@shdfnd@physx@@3P6AXXZEA 000000018011c430     GuPersistentContactManifold.obj
 0002:00001438       ?maxFError$initializer$@_VecMathTests@aos@shdfnd@physx@@3P6AXXZEA 000000018011c438     GuPersistentContactManifold.obj
 0002:00001440       ?minV3Error$initializer$@_VecMathTests@aos@shdfnd@physx@@3P6AXXZEA 000000018011c440     GuPersistentContactManifold.obj
 0002:00001448       ?maxV3Error$initializer$@_VecMathTests@aos@shdfnd@physx@@3P6AXXZEA 000000018011c448     GuPersistentContactManifold.obj
 0002:00001450       ?minV4Error$initializer$@_VecMathTests@aos@shdfnd@physx@@3P6AXXZEA 000000018011c450     GuPersistentContactManifold.obj
 0002:00001458       ?maxV4Error$initializer$@_VecMathTests@aos@shdfnd@physx@@3P6AXXZEA 000000018011c458     GuPersistentContactManifold.obj
 0002:00001460       ?minFError$initializer$@_VecMathTests@aos@shdfnd@physx@@3P6AXXZEA 000000018011c460     GuSweepBoxBox.obj
 0002:00001468       ?maxFError$initializer$@_VecMathTests@aos@shdfnd@physx@@3P6AXXZEA 000000018011c468     GuSweepBoxBox.obj
 0002:00001470       ?minV3Error$initializer$@_VecMathTests@aos@shdfnd@physx@@3P6AXXZEA 000000018011c470     GuSweepBoxBox.obj
 0002:00001478       ?maxV3Error$initializer$@_VecMathTests@aos@shdfnd@physx@@3P6AXXZEA 000000018011c478     GuSweepBoxBox.obj
 0002:00001480       ?minV4Error$initializer$@_VecMathTests@aos@shdfnd@physx@@3P6AXXZEA 000000018011c480     GuSweepBoxBox.obj
 0002:00001488       ?maxV4Error$initializer$@_VecMathTests@aos@shdfnd@physx@@3P6AXXZEA 000000018011c488     GuSweepBoxBox.obj
 0002:00001490       ?minFError$initializer$@_VecMathTests@aos@shdfnd@physx@@3P6AXXZEA 000000018011c490     GuSweepBoxSphere.obj
 0002:00001498       ?maxFError$initializer$@_VecMathTests@aos@shdfnd@physx@@3P6AXXZEA 000000018011c498     GuSweepBoxSphere.obj
 0002:000014a0       ?minV3Error$initializer$@_VecMathTests@aos@shdfnd@physx@@3P6AXXZEA 000000018011c4a0     GuSweepBoxSphere.obj
 0002:000014a8       ?maxV3Error$initializer$@_VecMathTests@aos@shdfnd@physx@@3P6AXXZEA 000000018011c4a8     GuSweepBoxSphere.obj
 0002:000014b0       ?minV4Error$initializer$@_VecMathTests@aos@shdfnd@physx@@3P6AXXZEA 000000018011c4b0     GuSweepBoxSphere.obj
 0002:000014b8       ?maxV4Error$initializer$@_VecMathTests@aos@shdfnd@physx@@3P6AXXZEA 000000018011c4b8     GuSweepBoxSphere.obj
 0002:000014c0       ?minFError$initializer$@_VecMathTests@aos@shdfnd@physx@@3P6AXXZEA 000000018011c4c0     GuSweepBoxTriangle_FeatureBased.obj
 0002:000014c8       ?maxFError$initializer$@_VecMathTests@aos@shdfnd@physx@@3P6AXXZEA 000000018011c4c8     GuSweepBoxTriangle_FeatureBased.obj
 0002:000014d0       ?minV3Error$initializer$@_VecMathTests@aos@shdfnd@physx@@3P6AXXZEA 000000018011c4d0     GuSweepBoxTriangle_FeatureBased.obj
 0002:000014d8       ?maxV3Error$initializer$@_VecMathTests@aos@shdfnd@physx@@3P6AXXZEA 000000018011c4d8     GuSweepBoxTriangle_FeatureBased.obj
 0002:000014e0       ?minV4Error$initializer$@_VecMathTests@aos@shdfnd@physx@@3P6AXXZEA 000000018011c4e0     GuSweepBoxTriangle_FeatureBased.obj
 0002:000014e8       ?maxV4Error$initializer$@_VecMathTests@aos@shdfnd@physx@@3P6AXXZEA 000000018011c4e8     GuSweepBoxTriangle_FeatureBased.obj
 0002:000014f0       ?minFError$initializer$@_VecMathTests@aos@shdfnd@physx@@3P6AXXZEA 000000018011c4f0     GuSweepBoxTriangle_SAT.obj
 0002:000014f8       ?maxFError$initializer$@_VecMathTests@aos@shdfnd@physx@@3P6AXXZEA 000000018011c4f8     GuSweepBoxTriangle_SAT.obj
 0002:00001500       ?minV3Error$initializer$@_VecMathTests@aos@shdfnd@physx@@3P6AXXZEA 000000018011c500     GuSweepBoxTriangle_SAT.obj
 0002:00001508       ?maxV3Error$initializer$@_VecMathTests@aos@shdfnd@physx@@3P6AXXZEA 000000018011c508     GuSweepBoxTriangle_SAT.obj
 0002:00001510       ?minV4Error$initializer$@_VecMathTests@aos@shdfnd@physx@@3P6AXXZEA 000000018011c510     GuSweepBoxTriangle_SAT.obj
 0002:00001518       ?maxV4Error$initializer$@_VecMathTests@aos@shdfnd@physx@@3P6AXXZEA 000000018011c518     GuSweepBoxTriangle_SAT.obj
 0002:00001520       ?minFError$initializer$@_VecMathTests@aos@shdfnd@physx@@3P6AXXZEA 000000018011c520     GuSweepCapsuleBox.obj
 0002:00001528       ?maxFError$initializer$@_VecMathTests@aos@shdfnd@physx@@3P6AXXZEA 000000018011c528     GuSweepCapsuleBox.obj
 0002:00001530       ?minV3Error$initializer$@_VecMathTests@aos@shdfnd@physx@@3P6AXXZEA 000000018011c530     GuSweepCapsuleBox.obj
 0002:00001538       ?maxV3Error$initializer$@_VecMathTests@aos@shdfnd@physx@@3P6AXXZEA 000000018011c538     GuSweepCapsuleBox.obj
 0002:00001540       ?minV4Error$initializer$@_VecMathTests@aos@shdfnd@physx@@3P6AXXZEA 000000018011c540     GuSweepCapsuleBox.obj
 0002:00001548       ?maxV4Error$initializer$@_VecMathTests@aos@shdfnd@physx@@3P6AXXZEA 000000018011c548     GuSweepCapsuleBox.obj
 0002:00001550       ?minFError$initializer$@_VecMathTests@aos@shdfnd@physx@@3P6AXXZEA 000000018011c550     GuSweepCapsuleTriangle.obj
 0002:00001558       ?maxFError$initializer$@_VecMathTests@aos@shdfnd@physx@@3P6AXXZEA 000000018011c558     GuSweepCapsuleTriangle.obj
 0002:00001560       ?minV3Error$initializer$@_VecMathTests@aos@shdfnd@physx@@3P6AXXZEA 000000018011c560     GuSweepCapsuleTriangle.obj
 0002:00001568       ?maxV3Error$initializer$@_VecMathTests@aos@shdfnd@physx@@3P6AXXZEA 000000018011c568     GuSweepCapsuleTriangle.obj
 0002:00001570       ?minV4Error$initializer$@_VecMathTests@aos@shdfnd@physx@@3P6AXXZEA 000000018011c570     GuSweepCapsuleTriangle.obj
 0002:00001578       ?maxV4Error$initializer$@_VecMathTests@aos@shdfnd@physx@@3P6AXXZEA 000000018011c578     GuSweepCapsuleTriangle.obj
 0002:00001580       ?minFError$initializer$@_VecMathTests@aos@shdfnd@physx@@3P6AXXZEA 000000018011c580     GuSweepSphereTriangle.obj
 0002:00001588       ?maxFError$initializer$@_VecMathTests@aos@shdfnd@physx@@3P6AXXZEA 000000018011c588     GuSweepSphereTriangle.obj
 0002:00001590       ?minV3Error$initializer$@_VecMathTests@aos@shdfnd@physx@@3P6AXXZEA 000000018011c590     GuSweepSphereTriangle.obj
 0002:00001598       ?maxV3Error$initializer$@_VecMathTests@aos@shdfnd@physx@@3P6AXXZEA 000000018011c598     GuSweepSphereTriangle.obj
 0002:000015a0       ?minV4Error$initializer$@_VecMathTests@aos@shdfnd@physx@@3P6AXXZEA 000000018011c5a0     GuSweepSphereTriangle.obj
 0002:000015a8       ?maxV4Error$initializer$@_VecMathTests@aos@shdfnd@physx@@3P6AXXZEA 000000018011c5a8     GuSweepSphereTriangle.obj
 0002:000015b0       ?minFError$initializer$@_VecMathTests@aos@shdfnd@physx@@3P6AXXZEA 000000018011c5b0     GuSweepTriangleUtils.obj
 0002:000015b8       ?maxFError$initializer$@_VecMathTests@aos@shdfnd@physx@@3P6AXXZEA 000000018011c5b8     GuSweepTriangleUtils.obj
 0002:000015c0       ?minV3Error$initializer$@_VecMathTests@aos@shdfnd@physx@@3P6AXXZEA 000000018011c5c0     GuSweepTriangleUtils.obj
 0002:000015c8       ?maxV3Error$initializer$@_VecMathTests@aos@shdfnd@physx@@3P6AXXZEA 000000018011c5c8     GuSweepTriangleUtils.obj
 0002:000015d0       ?minV4Error$initializer$@_VecMathTests@aos@shdfnd@physx@@3P6AXXZEA 000000018011c5d0     GuSweepTriangleUtils.obj
 0002:000015d8       ?maxV4Error$initializer$@_VecMathTests@aos@shdfnd@physx@@3P6AXXZEA 000000018011c5d8     GuSweepTriangleUtils.obj
 0002:00001ab0       ?minus1w@?A0x265957ca@aos@shdfnd@physx@@3QBMB 000000018011cab0     GuBounds.obj
 0002:00001ac0       ?gMaskXYZ@internalWindowsSimd@aos@shdfnd@physx@@3QBIB 000000018011cac0     GuBounds.obj
 0002:00001c30       ?minus1w@?A0xe71762fc@aos@shdfnd@physx@@3QBMB 000000018011cc30     GuBox.obj
 0002:00001c40       ?gMaskXYZ@internalWindowsSimd@aos@shdfnd@physx@@3QBIB 000000018011cc40     GuBox.obj
 0002:00001c60       ?minus1w@?A0xa978b47a@aos@shdfnd@physx@@3QBMB 000000018011cc60     GuCCTSweepTests.obj
 0002:00001c70       ?gMaskXYZ@internalWindowsSimd@aos@shdfnd@physx@@3QBIB 000000018011cc70     GuCCTSweepTests.obj
 0002:00001c90       ??_7LocalReport@?1??sweepBox_HeightFieldGeom_Precise@@YA_NAEBVPxGeometry@physx@@AEBVPxTransform@3@AEBVPxBoxGeometry@3@1AEBVBox@Gu@3@AEBVPxVec3@3@MAEAUPxSweepHit@3@V?$PxFlags@W4Enum@PxHitFlag@physx@@G@3@M@Z@6B@ 000000018011cc90     GuCCTSweepTests.obj
 0002:00001cb0       ?minus1w@?A0xcfff5cc0@aos@shdfnd@physx@@3QBMB 000000018011ccb0     GuGeometryQuery.obj
 0002:00001cc0       ?gMaskXYZ@internalWindowsSimd@aos@shdfnd@physx@@3QBIB 000000018011ccc0     GuGeometryQuery.obj
 0002:00001ce0       ?minus1w@?A0xa7f4fa74@aos@shdfnd@physx@@3QBMB 000000018011cce0     GuGeometryUnion.obj
 0002:00001cf0       ?gMaskXYZ@internalWindowsSimd@aos@shdfnd@physx@@3QBIB 000000018011ccf0     GuGeometryUnion.obj
 0002:00001d50       ?minus1w@?A0x44283a08@aos@shdfnd@physx@@3QBMB 000000018011cd50     GuInternal.obj
 0002:00001d60       ?gMaskXYZ@internalWindowsSimd@aos@shdfnd@physx@@3QBIB 000000018011cd60     GuInternal.obj
 0002:00001d70       ?minus1w@?A0x6fcf2989@aos@shdfnd@physx@@3QBMB 000000018011cd70     GuMeshFactory.obj
 0002:00001d80       ?gMaskXYZ@internalWindowsSimd@aos@shdfnd@physx@@3QBIB 000000018011cd80     GuMeshFactory.obj
 0002:00001f80       ?minus1w@?A0x736add0a@aos@shdfnd@physx@@3QBMB 000000018011cf80     GuMetaData.obj
 0002:00001f90       ?gMaskXYZ@internalWindowsSimd@aos@shdfnd@physx@@3QBIB 000000018011cf90     GuMetaData.obj
 0002:00002b60       ?minus1w@?A0x2ffa7a84@aos@shdfnd@physx@@3QBMB 000000018011db60     GuMTD.obj
 0002:00002b70       ?gMaskXYZ@internalWindowsSimd@aos@shdfnd@physx@@3QBIB 000000018011db70     GuMTD.obj
 0002:00002d10       ?gMaskXYZ@internalWindowsSimd@aos@shdfnd@physx@@3QBIB 000000018011dd10     GuOverlapTests.obj
 0002:00002d20       ?minus1w@?A0x153d6a36@aos@shdfnd@physx@@3QBMB 000000018011dd20     GuOverlapTests.obj
 0002:00002e30       ?minus1w@?A0xe6f01d9c@aos@shdfnd@physx@@3QBMB 000000018011de30     GuRaycastTests.obj
 0002:00002e40       ?gMaskXYZ@internalWindowsSimd@aos@shdfnd@physx@@3QBIB 000000018011de40     GuRaycastTests.obj
 0002:00002e50       ?gMidphaseRaycastTable@Gu@physx@@3QBQ6AIPEBVTriangleMesh@12@AEBVPxTriangleMeshGeometry@2@AEBVPxTransform@2@AEBVPxVec3@2@3MV?$PxFlags@W4Enum@PxHitFlag@physx@@G@2@IPEIAUPxRaycastHit@2@@ZB 000000018011de50     GuRaycastTests.obj
 0002:00002f30       ?minus1w@?A0x4d7528f3@aos@shdfnd@physx@@3QBMB 000000018011df30     GuSweepMTD.obj
 0002:00002f40       ?gMaskXYZ@internalWindowsSimd@aos@shdfnd@physx@@3QBIB 000000018011df40     GuSweepMTD.obj
 0002:00002f50       ?gMidphaseBoxCBOverlapTable@Gu@physx@@3QBQ6AXPEBVTriangleMesh@12@AEBVBox@12@AEAU?$MeshHitCallback@UPxRaycastHit@physx@@@12@_N3@ZB 000000018011df50     GuSweepMTD.obj
 0002:00002fd0       ?minus1w@?A0xd374c993@aos@shdfnd@physx@@3QBMB 000000018011dfd0     GuSweepSharedTests.obj
 0002:00002fe0       ?gMaskXYZ@internalWindowsSimd@aos@shdfnd@physx@@3QBIB 000000018011dfe0     GuSweepSharedTests.obj
 0002:00003010       ?minus1w@?A0x2668bfcc@aos@shdfnd@physx@@3QBMB 000000018011e010     GuSweepTests.obj
 0002:00003020       ?gMaskXYZ@internalWindowsSimd@aos@shdfnd@physx@@3QBIB 000000018011e020     GuSweepTests.obj
 0002:00003140       ?minus1w@?A0x7be2cf84@aos@shdfnd@physx@@3QBMB 000000018011e140     GuAABBTreeBuild.obj
 0002:00003150       ?gMaskXYZ@internalWindowsSimd@aos@shdfnd@physx@@3QBIB 000000018011e150     GuAABBTreeBuild.obj
 0002:000031b0       ?minus1w@?A0x8caead3f@aos@shdfnd@physx@@3QBMB 000000018011e1b0     GuBVHStructure.obj
 0002:000031c0       ?gMaskXYZ@internalWindowsSimd@aos@shdfnd@physx@@3QBIB 000000018011e1c0     GuBVHStructure.obj
 0002:00003330       ?minus1w@?A0x96af2beb@aos@shdfnd@physx@@3QBMB 000000018011e330     GuCCDSweepConvexMesh.obj
 0002:00003340       ?gMaskXYZ@internalWindowsSimd@aos@shdfnd@physx@@3QBIB 000000018011e340     GuCCDSweepConvexMesh.obj
 0002:00003350       ?gMidphaseBoxCBOverlapTable@Gu@physx@@3QBQ6AXPEBVTriangleMesh@12@AEBVBox@12@AEAU?$MeshHitCallback@UPxRaycastHit@physx@@@12@_N3@ZB 000000018011e350     GuCCDSweepConvexMesh.obj
 0002:00003360       ??_7AccumCallback@?A0x96af2beb@Gu@physx@@6B@ 000000018011e360     GuCCDSweepConvexMesh.obj
 0002:00003370       ??_7EntityReportContainerCallback@?A0x96af2beb@Gu@physx@@6B@ 000000018011e370     GuCCDSweepConvexMesh.obj
 0002:00003380       ??_7CB@?1??SweepEstimateAnyShapeMesh@Gu@physx@@YAMAEBUCCDShape@23@0AEBVPxTransform@3@111MM@Z@6B@ 000000018011e380     GuCCDSweepConvexMesh.obj
 0002:000033d0       ?minus1w@?A0xc0e09361@aos@shdfnd@physx@@3QBMB 000000018011e3d0     GuCCDSweepPrimitives.obj
 0002:000033e0       ?gMaskXYZ@internalWindowsSimd@aos@shdfnd@physx@@3QBIB 000000018011e3e0     GuCCDSweepPrimitives.obj
 0002:00003460       ?gMaskXYZ@internalWindowsSimd@aos@shdfnd@physx@@3QBIB 000000018011e460     GuBarycentricCoordinates.obj
 0002:00003470       ?minus1w@?A0xc2a48d96@aos@shdfnd@physx@@3QBMB 000000018011e470     GuBarycentricCoordinates.obj
 0002:00003480       ?minus1w@?A0x5fa8f676@aos@shdfnd@physx@@3QBMB 000000018011e480     GuContactBoxBox.obj
 0002:00003490       ?gMaskXYZ@internalWindowsSimd@aos@shdfnd@physx@@3QBIB 000000018011e490     GuContactBoxBox.obj
 0002:000034a0       ?indices@?1??generateContacts@@YAHAEAVContactBuffer@Gu@physx@@AEBVPxVec3@4@MM1AEBVMatrix34@Cm@4@2M@Z@4QBHB 000000018011e4a0     GuContactBoxBox.obj
 0002:00003500       ?face@?EK@??generateContacts@@YAHAEAVContactBuffer@Gu@physx@@AEBVPxVec3@4@MM1AEBVMatrix34@Cm@4@2M@Z@4QAY03$$CBHA 000000018011e500     GuContactBoxBox.obj
 0002:00003570       ?minus1w@?A0x7ed1e0cd@aos@shdfnd@physx@@3QBMB 000000018011e570     GuContactCapsuleBox.obj
 0002:00003580       ?gMaskXYZ@internalWindowsSimd@aos@shdfnd@physx@@3QBIB 000000018011e580     GuContactCapsuleBox.obj
 0002:00003590       ?minus1w@?A0x3e5f4ab2@aos@shdfnd@physx@@3QBMB 000000018011e590     GuContactCapsuleCapsule.obj
 0002:000035a0       ?gMaskXYZ@internalWindowsSimd@aos@shdfnd@physx@@3QBIB 000000018011e5a0     GuContactCapsuleCapsule.obj
 0002:000035c0       ?minus1w@?A0xf4b7973d@aos@shdfnd@physx@@3QBMB 000000018011e5c0     GuContactCapsuleConvex.obj
 0002:000035d0       ?gMaskXYZ@internalWindowsSimd@aos@shdfnd@physx@@3QBIB 000000018011e5d0     GuContactCapsuleConvex.obj
 0002:000035e0       ?minus1w@?A0xbd241c00@aos@shdfnd@physx@@3QBMB 000000018011e5e0     GuContactCapsuleMesh.obj
 0002:000035f0       ?gMaskXYZ@internalWindowsSimd@aos@shdfnd@physx@@3QBIB 000000018011e5f0     GuContactCapsuleMesh.obj
 0002:00003600       ?gMidphaseBoxCBOverlapTable@Gu@physx@@3QBQ6AXPEBVTriangleMesh@12@AEBVBox@12@AEAU?$MeshHitCallback@UPxRaycastHit@physx@@@12@_N3@ZB 000000018011e600     GuContactCapsuleMesh.obj
 0002:00003610       ??_7CapsuleMeshContactGenerationCallback_NoScale@?A0xbd241c00@@6B@ 000000018011e610     GuContactCapsuleMesh.obj
 0002:00003620       ??_7CapsuleMeshContactGenerationCallback_Scale@?A0xbd241c00@@6B@ 000000018011e620     GuContactCapsuleMesh.obj
 0002:00003630       ??_7CapsuleHeightfieldContactGenerationCallback@?A0xbd241c00@@6B@ 000000018011e630     GuContactCapsuleMesh.obj
 0002:00003650       ?minus1w@?A0xe691562b@aos@shdfnd@physx@@3QBMB 000000018011e650     GuContactConvexConvex.obj
 0002:00003660       ?gMaskXYZ@internalWindowsSimd@aos@shdfnd@physx@@3QBIB 000000018011e660     GuContactConvexConvex.obj
 0002:00003670       ?minus1w@?A0xf10ed24e@aos@shdfnd@physx@@3QBMB 000000018011e670     GuContactConvexMesh.obj
 0002:00003680       ?gMaskXYZ@internalWindowsSimd@aos@shdfnd@physx@@3QBIB 000000018011e680     GuContactConvexMesh.obj
 0002:00003690       ?gMidphaseBoxCBOverlapTable@Gu@physx@@3QBQ6AXPEBVTriangleMesh@12@AEBVBox@12@AEAU?$MeshHitCallback@UPxRaycastHit@physx@@@12@_N3@ZB 000000018011e690     GuContactConvexMesh.obj
 0002:000036b0       ??_7ConvexVsHeightfieldContactGenerationCallback@?A0xf10ed24e@@6B@ 000000018011e6b0     GuContactConvexMesh.obj
 0002:000036c0       ?minus1w@?A0x0c80bec5@aos@shdfnd@physx@@3QBMB 000000018011e6c0     GuContactPlaneBox.obj
 0002:000036d0       ?gMaskXYZ@internalWindowsSimd@aos@shdfnd@physx@@3QBIB 000000018011e6d0     GuContactPlaneBox.obj
 0002:000036e0       ?minus1w@?A0x80621de2@aos@shdfnd@physx@@3QBMB 000000018011e6e0     GuContactPlaneCapsule.obj
 0002:000036f0       ?gMaskXYZ@internalWindowsSimd@aos@shdfnd@physx@@3QBIB 000000018011e6f0     GuContactPlaneCapsule.obj
 0002:00003700       ?minus1w@?A0xc2f0d74f@aos@shdfnd@physx@@3QBMB 000000018011e700     GuContactPlaneConvex.obj
 0002:00003710       ?gMaskXYZ@internalWindowsSimd@aos@shdfnd@physx@@3QBIB 000000018011e710     GuContactPlaneConvex.obj
 0002:00003750       ?minus1w@?A0x881e87f2@aos@shdfnd@physx@@3QBMB 000000018011e750     GuContactSphereBox.obj
 0002:00003760       ?gMaskXYZ@internalWindowsSimd@aos@shdfnd@physx@@3QBIB 000000018011e760     GuContactSphereBox.obj
 0002:00003770       ?minus1w@?A0xc333e348@aos@shdfnd@physx@@3QBMB 000000018011e770     GuContactSphereCapsule.obj
 0002:00003780       ?gMaskXYZ@internalWindowsSimd@aos@shdfnd@physx@@3QBIB 000000018011e780     GuContactSphereCapsule.obj
 0002:00003790       ?minus1w@?A0x0bb4fe5a@aos@shdfnd@physx@@3QBMB 000000018011e790     GuContactSphereMesh.obj
 0002:000037a0       ?gMaskXYZ@internalWindowsSimd@aos@shdfnd@physx@@3QBIB 000000018011e7a0     GuContactSphereMesh.obj
 0002:000037b0       ?gMidphaseBoxCBOverlapTable@Gu@physx@@3QBQ6AXPEBVTriangleMesh@12@AEBVBox@12@AEAU?$MeshHitCallback@UPxRaycastHit@physx@@@12@_N3@ZB 000000018011e7b0     GuContactSphereMesh.obj
 0002:000037c0       ??_7SphereMeshContactGenerationCallback_NoScale@?A0x0bb4fe5a@@6B@ 000000018011e7c0     GuContactSphereMesh.obj
 0002:000037d0       ??_7SphereMeshContactGenerationCallback_Scale@?A0x0bb4fe5a@@6B@ 000000018011e7d0     GuContactSphereMesh.obj
 0002:000037e0       ??_7SphereHeightfieldContactGenerationCallback@?A0x0bb4fe5a@@6B@ 000000018011e7e0     GuContactSphereMesh.obj
 0002:00003840       ?minus1w@?A0x006754ab@aos@shdfnd@physx@@3QBMB 000000018011e840     GuContactSpherePlane.obj
 0002:00003850       ?gMaskXYZ@internalWindowsSimd@aos@shdfnd@physx@@3QBIB 000000018011e850     GuContactSpherePlane.obj
 0002:00003860       ?minus1w@?A0x1eabf5ce@aos@shdfnd@physx@@3QBMB 000000018011e860     GuContactSphereSphere.obj
 0002:00003870       ?gMaskXYZ@internalWindowsSimd@aos@shdfnd@physx@@3QBIB 000000018011e870     GuContactSphereSphere.obj
 0002:000038f0       ?minus1w@?A0xbb5795c6@aos@shdfnd@physx@@3QBMB 000000018011e8f0     GuConvexHelper.obj
 0002:00003900       ?gMaskXYZ@internalWindowsSimd@aos@shdfnd@physx@@3QBIB 000000018011e900     GuConvexHelper.obj
 0002:00003af0       ?minus1w@?A0xdc778f54@aos@shdfnd@physx@@3QBMB 000000018011eaf0     GuConvexSupportTable.obj
 0002:00003b00       ?gMaskXYZ@internalWindowsSimd@aos@shdfnd@physx@@3QBIB 000000018011eb00     GuConvexSupportTable.obj
 0002:00003b70       ?minus1w@?A0xba4c5597@aos@shdfnd@physx@@3QBMB 000000018011eb70     GuConvexUtilsInternal.obj
 0002:00003b80       ?gMaskXYZ@internalWindowsSimd@aos@shdfnd@physx@@3QBIB 000000018011eb80     GuConvexUtilsInternal.obj
 0002:00003b90       ?gPxcBoxPolygonData@@3QBEB 000000018011eb90     GuShapeConvex.obj
 0002:00003bb0       ?minus1w@?A0x9ebeebe1@aos@shdfnd@physx@@3QBMB 000000018011ebb0     GuDistancePointTriangle.obj
 0002:00003bc0       ?gMaskXYZ@internalWindowsSimd@aos@shdfnd@physx@@3QBIB 000000018011ebc0     GuDistancePointTriangle.obj
 0002:00003bd0       ?minus1w@?A0xa535b0be@aos@shdfnd@physx@@3QBMB 000000018011ebd0     GuDistanceSegmentSegment.obj
 0002:00003be0       ?gMaskXYZ@internalWindowsSimd@aos@shdfnd@physx@@3QBIB 000000018011ebe0     GuDistanceSegmentSegment.obj
 0002:00003bf0       ?minus1w@?A0x0081d217@aos@shdfnd@physx@@3QBMB 000000018011ebf0     GuDistanceSegmentTriangle.obj
 0002:00003c00       ?gMaskXYZ@internalWindowsSimd@aos@shdfnd@physx@@3QBIB 000000018011ec00     GuDistanceSegmentTriangle.obj
 0002:00003c40       ?gMaskXYZ@internalWindowsSimd@aos@shdfnd@physx@@3QBIB 000000018011ec40     GuEPA.obj
 0002:00003c50       ?minus1w@?A0x07b32426@aos@shdfnd@physx@@3QBMB 000000018011ec50     GuEPA.obj
 0002:00003c60       ?lookUp@Gu@physx@@3QBIB    000000018011ec60     GuEPA.obj
 0002:00003c70       ?gMaskXYZ@internalWindowsSimd@aos@shdfnd@physx@@3QBIB 000000018011ec70     GuGJKSimplex.obj
 0002:00003c80       ?minus1w@?A0xdb80b8b1@aos@shdfnd@physx@@3QBMB 000000018011ec80     GuGJKSimplex.obj
 0002:00003cb0       ?gMaskXYZ@internalWindowsSimd@aos@shdfnd@physx@@3QBIB 000000018011ecb0     GuGJKTest.obj
 0002:00003cc0       ?minus1w@?A0xfb17a6d5@aos@shdfnd@physx@@3QBMB 000000018011ecc0     GuGJKTest.obj
 0002:00003f40       ?minus1w@?A0xb47aba5a@aos@shdfnd@physx@@3QBMB 000000018011ef40     GuHeightFieldUtil.obj
 0002:00003f50       ?gMaskXYZ@internalWindowsSimd@aos@shdfnd@physx@@3QBIB 000000018011ef50     GuHeightFieldUtil.obj
 0002:00003f70       ?minus1w@?A0xf04b7c43@aos@shdfnd@physx@@3QBMB 000000018011ef70     GuOverlapTestsHF.obj
 0002:00003f80       ?gMaskXYZ@internalWindowsSimd@aos@shdfnd@physx@@3QBIB 000000018011ef80     GuOverlapTestsHF.obj
 0002:00003f90       ?edges@Gu@physx@@3QBDB     000000018011ef90     GuOverlapTestsHF.obj
 0002:00003fb0       ?minus1w@?A0xec2ddcc4@aos@shdfnd@physx@@3QBMB 000000018011efb0     GuSweepsHF.obj
 0002:00003fc0       ?gMaskXYZ@internalWindowsSimd@aos@shdfnd@physx@@3QBIB 000000018011efc0     GuSweepsHF.obj
 0002:00004020       ?minus1w@?A0xadbbb455@aos@shdfnd@physx@@3QBMB 000000018011f020     GuIntersectionRayBox.obj
 0002:00004030       ?gMaskXYZ@internalWindowsSimd@aos@shdfnd@physx@@3QBIB 000000018011f030     GuIntersectionRayBox.obj
 0002:00004070       ?minus1w@?A0x469cd9d5@aos@shdfnd@physx@@3QBMB 000000018011f070     GuIntersectionTriangleBox.obj
 0002:00004080       ?gMaskXYZ@internalWindowsSimd@aos@shdfnd@physx@@3QBIB 000000018011f080     GuIntersectionTriangleBox.obj
 0002:00004090       ?minus1w@?A0x6d30f09d@aos@shdfnd@physx@@3QBMB 000000018011f090     GuBV4.obj
 0002:000040a0       ?gMaskXYZ@internalWindowsSimd@aos@shdfnd@physx@@3QBIB 000000018011f0a0     GuBV4.obj
 0002:00004100       ?minus1w@?A0x7cd79071@aos@shdfnd@physx@@3QBMB 000000018011f100     GuBV4Build.obj
 0002:00004110       ?gMaskXYZ@internalWindowsSimd@aos@shdfnd@physx@@3QBIB 000000018011f110     GuBV4Build.obj
 0002:00004180       ?minus1w@?A0xfd7bd042@aos@shdfnd@physx@@3QBMB 000000018011f180     GuBV4_AABBSweep.obj
 0002:00004190       ?gMaskXYZ@internalWindowsSimd@aos@shdfnd@physx@@3QBIB 000000018011f190     GuBV4_AABBSweep.obj
 0002:000041e0       ?minus1w@?A0xed018f01@aos@shdfnd@physx@@3QBMB 000000018011f1e0     GuBV4_BoxOverlap.obj
 0002:000041f0       ?gMaskXYZ@internalWindowsSimd@aos@shdfnd@physx@@3QBIB 000000018011f1f0     GuBV4_BoxOverlap.obj
 0002:00004200       ?minus1w@?A0xa7738ed2@aos@shdfnd@physx@@3QBMB 000000018011f200     GuBV4_CapsuleSweep.obj
 0002:00004210       ?gMaskXYZ@internalWindowsSimd@aos@shdfnd@physx@@3QBIB 000000018011f210     GuBV4_CapsuleSweep.obj
 0002:00004220       ?minus1w@?A0xf8c4922f@aos@shdfnd@physx@@3QBMB 000000018011f220     GuBV4_CapsuleSweepAA.obj
 0002:00004230       ?gMaskXYZ@internalWindowsSimd@aos@shdfnd@physx@@3QBIB 000000018011f230     GuBV4_CapsuleSweepAA.obj
 0002:00004240       ?minus1w@?A0xcc6c65a1@aos@shdfnd@physx@@3QBMB 000000018011f240     GuBV4_OBBSweep.obj
 0002:00004250       ?gMaskXYZ@internalWindowsSimd@aos@shdfnd@physx@@3QBIB 000000018011f250     GuBV4_OBBSweep.obj
 0002:00004260       ?minus1w@?A0xcea15bf0@aos@shdfnd@physx@@3QBMB 000000018011f260     GuBV4_Raycast.obj
 0002:00004270       ?gMaskXYZ@internalWindowsSimd@aos@shdfnd@physx@@3QBIB 000000018011f270     GuBV4_Raycast.obj
 0002:00004280       ?minus1w@?A0x92d246f3@aos@shdfnd@physx@@3QBMB 000000018011f280     GuBV4_SphereOverlap.obj
 0002:00004290       ?gMaskXYZ@internalWindowsSimd@aos@shdfnd@physx@@3QBIB 000000018011f290     GuBV4_SphereOverlap.obj
 0002:000042a0       ?minus1w@?A0xfb2bdd08@aos@shdfnd@physx@@3QBMB 000000018011f2a0     GuBV4_SphereSweep.obj
 0002:000042b0       ?gMaskXYZ@internalWindowsSimd@aos@shdfnd@physx@@3QBIB 000000018011f2b0     GuBV4_SphereSweep.obj
 0002:000042c0       ?minus1w@?A0xb25cfbb3@aos@shdfnd@physx@@3QBMB 000000018011f2c0     GuMidphaseBV4.obj
 0002:000042d0       ?gMaskXYZ@internalWindowsSimd@aos@shdfnd@physx@@3QBIB 000000018011f2d0     GuMidphaseBV4.obj
 0002:000042f0       ?minus1w@?A0x5a5668d3@aos@shdfnd@physx@@3QBMB 000000018011f2f0     GuMeshQuery.obj
 0002:00004300       ?gMaskXYZ@internalWindowsSimd@aos@shdfnd@physx@@3QBIB 000000018011f300     GuMeshQuery.obj
 0002:00004310       ?gMidphaseSphereOverlapTable@Gu@physx@@3QBQ6A_NAEBVSphere@12@AEBVTriangleMesh@12@AEBVPxTransform@2@AEBVPxMeshScale@2@PEAULimitedResults@12@@ZB 000000018011f310     GuMeshQuery.obj
 0002:00004320       ?gMidphaseBoxOverlapTable@Gu@physx@@3QBQ6A_NAEBVBox@12@AEBVTriangleMesh@12@AEBVPxTransform@2@AEBVPxMeshScale@2@PEAULimitedResults@12@@ZB 000000018011f320     GuMeshQuery.obj
